
hello.elf:     file format elf32-littlearm


Disassembly of section .text:

080001c0 <__do_global_dtors_aux>:
 80001c0:	b510      	push	{r4, lr}
 80001c2:	4c05      	ldr	r4, [pc, #20]	; (80001d8 <__do_global_dtors_aux+0x18>)
 80001c4:	7823      	ldrb	r3, [r4, #0]
 80001c6:	b933      	cbnz	r3, 80001d6 <__do_global_dtors_aux+0x16>
 80001c8:	4b04      	ldr	r3, [pc, #16]	; (80001dc <__do_global_dtors_aux+0x1c>)
 80001ca:	b113      	cbz	r3, 80001d2 <__do_global_dtors_aux+0x12>
 80001cc:	4804      	ldr	r0, [pc, #16]	; (80001e0 <__do_global_dtors_aux+0x20>)
 80001ce:	f3af 8000 	nop.w
 80001d2:	2301      	movs	r3, #1
 80001d4:	7023      	strb	r3, [r4, #0]
 80001d6:	bd10      	pop	{r4, pc}
 80001d8:	200009c8 	.word	0x200009c8
 80001dc:	00000000 	.word	0x00000000
 80001e0:	08008a64 	.word	0x08008a64

080001e4 <frame_dummy>:
 80001e4:	b508      	push	{r3, lr}
 80001e6:	4b03      	ldr	r3, [pc, #12]	; (80001f4 <frame_dummy+0x10>)
 80001e8:	b11b      	cbz	r3, 80001f2 <frame_dummy+0xe>
 80001ea:	4903      	ldr	r1, [pc, #12]	; (80001f8 <frame_dummy+0x14>)
 80001ec:	4803      	ldr	r0, [pc, #12]	; (80001fc <frame_dummy+0x18>)
 80001ee:	f3af 8000 	nop.w
 80001f2:	bd08      	pop	{r3, pc}
 80001f4:	00000000 	.word	0x00000000
 80001f8:	200009cc 	.word	0x200009cc
 80001fc:	08008a64 	.word	0x08008a64

08000200 <__aeabi_uldivmod>:
 8000200:	b953      	cbnz	r3, 8000218 <__aeabi_uldivmod+0x18>
 8000202:	b94a      	cbnz	r2, 8000218 <__aeabi_uldivmod+0x18>
 8000204:	2900      	cmp	r1, #0
 8000206:	bf08      	it	eq
 8000208:	2800      	cmpeq	r0, #0
 800020a:	bf1c      	itt	ne
 800020c:	f04f 31ff 	movne.w	r1, #4294967295	; 0xffffffff
 8000210:	f04f 30ff 	movne.w	r0, #4294967295	; 0xffffffff
 8000214:	f000 b972 	b.w	80004fc <__aeabi_idiv0>
 8000218:	f1ad 0c08 	sub.w	ip, sp, #8
 800021c:	e96d ce04 	strd	ip, lr, [sp, #-16]!
 8000220:	f000 f806 	bl	8000230 <__udivmoddi4>
 8000224:	f8dd e004 	ldr.w	lr, [sp, #4]
 8000228:	e9dd 2302 	ldrd	r2, r3, [sp, #8]
 800022c:	b004      	add	sp, #16
 800022e:	4770      	bx	lr

08000230 <__udivmoddi4>:
 8000230:	e92d 47f0 	stmdb	sp!, {r4, r5, r6, r7, r8, r9, sl, lr}
 8000234:	9e08      	ldr	r6, [sp, #32]
 8000236:	4604      	mov	r4, r0
 8000238:	4688      	mov	r8, r1
 800023a:	2b00      	cmp	r3, #0
 800023c:	d14b      	bne.n	80002d6 <__udivmoddi4+0xa6>
 800023e:	428a      	cmp	r2, r1
 8000240:	4615      	mov	r5, r2
 8000242:	d967      	bls.n	8000314 <__udivmoddi4+0xe4>
 8000244:	fab2 f282 	clz	r2, r2
 8000248:	b14a      	cbz	r2, 800025e <__udivmoddi4+0x2e>
 800024a:	f1c2 0720 	rsb	r7, r2, #32
 800024e:	fa01 f302 	lsl.w	r3, r1, r2
 8000252:	fa20 f707 	lsr.w	r7, r0, r7
 8000256:	4095      	lsls	r5, r2
 8000258:	ea47 0803 	orr.w	r8, r7, r3
 800025c:	4094      	lsls	r4, r2
 800025e:	ea4f 4e15 	mov.w	lr, r5, lsr #16
 8000262:	0c23      	lsrs	r3, r4, #16
 8000264:	fbb8 f7fe 	udiv	r7, r8, lr
 8000268:	fa1f fc85 	uxth.w	ip, r5
 800026c:	fb0e 8817 	mls	r8, lr, r7, r8
 8000270:	ea43 4308 	orr.w	r3, r3, r8, lsl #16
 8000274:	fb07 f10c 	mul.w	r1, r7, ip
 8000278:	4299      	cmp	r1, r3
 800027a:	d909      	bls.n	8000290 <__udivmoddi4+0x60>
 800027c:	18eb      	adds	r3, r5, r3
 800027e:	f107 30ff 	add.w	r0, r7, #4294967295	; 0xffffffff
 8000282:	f080 811b 	bcs.w	80004bc <__udivmoddi4+0x28c>
 8000286:	4299      	cmp	r1, r3
 8000288:	f240 8118 	bls.w	80004bc <__udivmoddi4+0x28c>
 800028c:	3f02      	subs	r7, #2
 800028e:	442b      	add	r3, r5
 8000290:	1a5b      	subs	r3, r3, r1
 8000292:	b2a4      	uxth	r4, r4
 8000294:	fbb3 f0fe 	udiv	r0, r3, lr
 8000298:	fb0e 3310 	mls	r3, lr, r0, r3
 800029c:	ea44 4403 	orr.w	r4, r4, r3, lsl #16
 80002a0:	fb00 fc0c 	mul.w	ip, r0, ip
 80002a4:	45a4      	cmp	ip, r4
 80002a6:	d909      	bls.n	80002bc <__udivmoddi4+0x8c>
 80002a8:	192c      	adds	r4, r5, r4
 80002aa:	f100 33ff 	add.w	r3, r0, #4294967295	; 0xffffffff
 80002ae:	f080 8107 	bcs.w	80004c0 <__udivmoddi4+0x290>
 80002b2:	45a4      	cmp	ip, r4
 80002b4:	f240 8104 	bls.w	80004c0 <__udivmoddi4+0x290>
 80002b8:	3802      	subs	r0, #2
 80002ba:	442c      	add	r4, r5
 80002bc:	ea40 4007 	orr.w	r0, r0, r7, lsl #16
 80002c0:	eba4 040c 	sub.w	r4, r4, ip
 80002c4:	2700      	movs	r7, #0
 80002c6:	b11e      	cbz	r6, 80002d0 <__udivmoddi4+0xa0>
 80002c8:	40d4      	lsrs	r4, r2
 80002ca:	2300      	movs	r3, #0
 80002cc:	e9c6 4300 	strd	r4, r3, [r6]
 80002d0:	4639      	mov	r1, r7
 80002d2:	e8bd 87f0 	ldmia.w	sp!, {r4, r5, r6, r7, r8, r9, sl, pc}
 80002d6:	428b      	cmp	r3, r1
 80002d8:	d909      	bls.n	80002ee <__udivmoddi4+0xbe>
 80002da:	2e00      	cmp	r6, #0
 80002dc:	f000 80eb 	beq.w	80004b6 <__udivmoddi4+0x286>
 80002e0:	2700      	movs	r7, #0
 80002e2:	e9c6 0100 	strd	r0, r1, [r6]
 80002e6:	4638      	mov	r0, r7
 80002e8:	4639      	mov	r1, r7
 80002ea:	e8bd 87f0 	ldmia.w	sp!, {r4, r5, r6, r7, r8, r9, sl, pc}
 80002ee:	fab3 f783 	clz	r7, r3
 80002f2:	2f00      	cmp	r7, #0
 80002f4:	d147      	bne.n	8000386 <__udivmoddi4+0x156>
 80002f6:	428b      	cmp	r3, r1
 80002f8:	d302      	bcc.n	8000300 <__udivmoddi4+0xd0>
 80002fa:	4282      	cmp	r2, r0
 80002fc:	f200 80fa 	bhi.w	80004f4 <__udivmoddi4+0x2c4>
 8000300:	1a84      	subs	r4, r0, r2
 8000302:	eb61 0303 	sbc.w	r3, r1, r3
 8000306:	2001      	movs	r0, #1
 8000308:	4698      	mov	r8, r3
 800030a:	2e00      	cmp	r6, #0
 800030c:	d0e0      	beq.n	80002d0 <__udivmoddi4+0xa0>
 800030e:	e9c6 4800 	strd	r4, r8, [r6]
 8000312:	e7dd      	b.n	80002d0 <__udivmoddi4+0xa0>
 8000314:	b902      	cbnz	r2, 8000318 <__udivmoddi4+0xe8>
 8000316:	deff      	udf	#255	; 0xff
 8000318:	fab2 f282 	clz	r2, r2
 800031c:	2a00      	cmp	r2, #0
 800031e:	f040 808f 	bne.w	8000440 <__udivmoddi4+0x210>
 8000322:	1b49      	subs	r1, r1, r5
 8000324:	ea4f 4e15 	mov.w	lr, r5, lsr #16
 8000328:	fa1f f885 	uxth.w	r8, r5
 800032c:	2701      	movs	r7, #1
 800032e:	fbb1 fcfe 	udiv	ip, r1, lr
 8000332:	0c23      	lsrs	r3, r4, #16
 8000334:	fb0e 111c 	mls	r1, lr, ip, r1
 8000338:	ea43 4301 	orr.w	r3, r3, r1, lsl #16
 800033c:	fb08 f10c 	mul.w	r1, r8, ip
 8000340:	4299      	cmp	r1, r3
 8000342:	d907      	bls.n	8000354 <__udivmoddi4+0x124>
 8000344:	18eb      	adds	r3, r5, r3
 8000346:	f10c 30ff 	add.w	r0, ip, #4294967295	; 0xffffffff
 800034a:	d202      	bcs.n	8000352 <__udivmoddi4+0x122>
 800034c:	4299      	cmp	r1, r3
 800034e:	f200 80cd 	bhi.w	80004ec <__udivmoddi4+0x2bc>
 8000352:	4684      	mov	ip, r0
 8000354:	1a59      	subs	r1, r3, r1
 8000356:	b2a3      	uxth	r3, r4
 8000358:	fbb1 f0fe 	udiv	r0, r1, lr
 800035c:	fb0e 1410 	mls	r4, lr, r0, r1
 8000360:	ea43 4404 	orr.w	r4, r3, r4, lsl #16
 8000364:	fb08 f800 	mul.w	r8, r8, r0
 8000368:	45a0      	cmp	r8, r4
 800036a:	d907      	bls.n	800037c <__udivmoddi4+0x14c>
 800036c:	192c      	adds	r4, r5, r4
 800036e:	f100 33ff 	add.w	r3, r0, #4294967295	; 0xffffffff
 8000372:	d202      	bcs.n	800037a <__udivmoddi4+0x14a>
 8000374:	45a0      	cmp	r8, r4
 8000376:	f200 80b6 	bhi.w	80004e6 <__udivmoddi4+0x2b6>
 800037a:	4618      	mov	r0, r3
 800037c:	eba4 0408 	sub.w	r4, r4, r8
 8000380:	ea40 400c 	orr.w	r0, r0, ip, lsl #16
 8000384:	e79f      	b.n	80002c6 <__udivmoddi4+0x96>
 8000386:	f1c7 0c20 	rsb	ip, r7, #32
 800038a:	40bb      	lsls	r3, r7
 800038c:	fa22 fe0c 	lsr.w	lr, r2, ip
 8000390:	ea4e 0e03 	orr.w	lr, lr, r3
 8000394:	fa01 f407 	lsl.w	r4, r1, r7
 8000398:	fa20 f50c 	lsr.w	r5, r0, ip
 800039c:	fa21 f30c 	lsr.w	r3, r1, ip
 80003a0:	ea4f 481e 	mov.w	r8, lr, lsr #16
 80003a4:	4325      	orrs	r5, r4
 80003a6:	fbb3 f9f8 	udiv	r9, r3, r8
 80003aa:	0c2c      	lsrs	r4, r5, #16
 80003ac:	fb08 3319 	mls	r3, r8, r9, r3
 80003b0:	fa1f fa8e 	uxth.w	sl, lr
 80003b4:	ea44 4303 	orr.w	r3, r4, r3, lsl #16
 80003b8:	fb09 f40a 	mul.w	r4, r9, sl
 80003bc:	429c      	cmp	r4, r3
 80003be:	fa02 f207 	lsl.w	r2, r2, r7
 80003c2:	fa00 f107 	lsl.w	r1, r0, r7
 80003c6:	d90b      	bls.n	80003e0 <__udivmoddi4+0x1b0>
 80003c8:	eb1e 0303 	adds.w	r3, lr, r3
 80003cc:	f109 30ff 	add.w	r0, r9, #4294967295	; 0xffffffff
 80003d0:	f080 8087 	bcs.w	80004e2 <__udivmoddi4+0x2b2>
 80003d4:	429c      	cmp	r4, r3
 80003d6:	f240 8084 	bls.w	80004e2 <__udivmoddi4+0x2b2>
 80003da:	f1a9 0902 	sub.w	r9, r9, #2
 80003de:	4473      	add	r3, lr
 80003e0:	1b1b      	subs	r3, r3, r4
 80003e2:	b2ad      	uxth	r5, r5
 80003e4:	fbb3 f0f8 	udiv	r0, r3, r8
 80003e8:	fb08 3310 	mls	r3, r8, r0, r3
 80003ec:	ea45 4403 	orr.w	r4, r5, r3, lsl #16
 80003f0:	fb00 fa0a 	mul.w	sl, r0, sl
 80003f4:	45a2      	cmp	sl, r4
 80003f6:	d908      	bls.n	800040a <__udivmoddi4+0x1da>
 80003f8:	eb1e 0404 	adds.w	r4, lr, r4
 80003fc:	f100 33ff 	add.w	r3, r0, #4294967295	; 0xffffffff
 8000400:	d26b      	bcs.n	80004da <__udivmoddi4+0x2aa>
 8000402:	45a2      	cmp	sl, r4
 8000404:	d969      	bls.n	80004da <__udivmoddi4+0x2aa>
 8000406:	3802      	subs	r0, #2
 8000408:	4474      	add	r4, lr
 800040a:	ea40 4009 	orr.w	r0, r0, r9, lsl #16
 800040e:	fba0 8902 	umull	r8, r9, r0, r2
 8000412:	eba4 040a 	sub.w	r4, r4, sl
 8000416:	454c      	cmp	r4, r9
 8000418:	46c2      	mov	sl, r8
 800041a:	464b      	mov	r3, r9
 800041c:	d354      	bcc.n	80004c8 <__udivmoddi4+0x298>
 800041e:	d051      	beq.n	80004c4 <__udivmoddi4+0x294>
 8000420:	2e00      	cmp	r6, #0
 8000422:	d069      	beq.n	80004f8 <__udivmoddi4+0x2c8>
 8000424:	ebb1 050a 	subs.w	r5, r1, sl
 8000428:	eb64 0403 	sbc.w	r4, r4, r3
 800042c:	fa04 fc0c 	lsl.w	ip, r4, ip
 8000430:	40fd      	lsrs	r5, r7
 8000432:	40fc      	lsrs	r4, r7
 8000434:	ea4c 0505 	orr.w	r5, ip, r5
 8000438:	e9c6 5400 	strd	r5, r4, [r6]
 800043c:	2700      	movs	r7, #0
 800043e:	e747      	b.n	80002d0 <__udivmoddi4+0xa0>
 8000440:	f1c2 0320 	rsb	r3, r2, #32
 8000444:	fa20 f703 	lsr.w	r7, r0, r3
 8000448:	4095      	lsls	r5, r2
 800044a:	fa01 f002 	lsl.w	r0, r1, r2
 800044e:	fa21 f303 	lsr.w	r3, r1, r3
 8000452:	ea4f 4e15 	mov.w	lr, r5, lsr #16
 8000456:	4338      	orrs	r0, r7
 8000458:	0c01      	lsrs	r1, r0, #16
 800045a:	fbb3 f7fe 	udiv	r7, r3, lr
 800045e:	fa1f f885 	uxth.w	r8, r5
 8000462:	fb0e 3317 	mls	r3, lr, r7, r3
 8000466:	ea41 4103 	orr.w	r1, r1, r3, lsl #16
 800046a:	fb07 f308 	mul.w	r3, r7, r8
 800046e:	428b      	cmp	r3, r1
 8000470:	fa04 f402 	lsl.w	r4, r4, r2
 8000474:	d907      	bls.n	8000486 <__udivmoddi4+0x256>
 8000476:	1869      	adds	r1, r5, r1
 8000478:	f107 3cff 	add.w	ip, r7, #4294967295	; 0xffffffff
 800047c:	d22f      	bcs.n	80004de <__udivmoddi4+0x2ae>
 800047e:	428b      	cmp	r3, r1
 8000480:	d92d      	bls.n	80004de <__udivmoddi4+0x2ae>
 8000482:	3f02      	subs	r7, #2
 8000484:	4429      	add	r1, r5
 8000486:	1acb      	subs	r3, r1, r3
 8000488:	b281      	uxth	r1, r0
 800048a:	fbb3 f0fe 	udiv	r0, r3, lr
 800048e:	fb0e 3310 	mls	r3, lr, r0, r3
 8000492:	ea41 4103 	orr.w	r1, r1, r3, lsl #16
 8000496:	fb00 f308 	mul.w	r3, r0, r8
 800049a:	428b      	cmp	r3, r1
 800049c:	d907      	bls.n	80004ae <__udivmoddi4+0x27e>
 800049e:	1869      	adds	r1, r5, r1
 80004a0:	f100 3cff 	add.w	ip, r0, #4294967295	; 0xffffffff
 80004a4:	d217      	bcs.n	80004d6 <__udivmoddi4+0x2a6>
 80004a6:	428b      	cmp	r3, r1
 80004a8:	d915      	bls.n	80004d6 <__udivmoddi4+0x2a6>
 80004aa:	3802      	subs	r0, #2
 80004ac:	4429      	add	r1, r5
 80004ae:	1ac9      	subs	r1, r1, r3
 80004b0:	ea40 4707 	orr.w	r7, r0, r7, lsl #16
 80004b4:	e73b      	b.n	800032e <__udivmoddi4+0xfe>
 80004b6:	4637      	mov	r7, r6
 80004b8:	4630      	mov	r0, r6
 80004ba:	e709      	b.n	80002d0 <__udivmoddi4+0xa0>
 80004bc:	4607      	mov	r7, r0
 80004be:	e6e7      	b.n	8000290 <__udivmoddi4+0x60>
 80004c0:	4618      	mov	r0, r3
 80004c2:	e6fb      	b.n	80002bc <__udivmoddi4+0x8c>
 80004c4:	4541      	cmp	r1, r8
 80004c6:	d2ab      	bcs.n	8000420 <__udivmoddi4+0x1f0>
 80004c8:	ebb8 0a02 	subs.w	sl, r8, r2
 80004cc:	eb69 020e 	sbc.w	r2, r9, lr
 80004d0:	3801      	subs	r0, #1
 80004d2:	4613      	mov	r3, r2
 80004d4:	e7a4      	b.n	8000420 <__udivmoddi4+0x1f0>
 80004d6:	4660      	mov	r0, ip
 80004d8:	e7e9      	b.n	80004ae <__udivmoddi4+0x27e>
 80004da:	4618      	mov	r0, r3
 80004dc:	e795      	b.n	800040a <__udivmoddi4+0x1da>
 80004de:	4667      	mov	r7, ip
 80004e0:	e7d1      	b.n	8000486 <__udivmoddi4+0x256>
 80004e2:	4681      	mov	r9, r0
 80004e4:	e77c      	b.n	80003e0 <__udivmoddi4+0x1b0>
 80004e6:	3802      	subs	r0, #2
 80004e8:	442c      	add	r4, r5
 80004ea:	e747      	b.n	800037c <__udivmoddi4+0x14c>
 80004ec:	f1ac 0c02 	sub.w	ip, ip, #2
 80004f0:	442b      	add	r3, r5
 80004f2:	e72f      	b.n	8000354 <__udivmoddi4+0x124>
 80004f4:	4638      	mov	r0, r7
 80004f6:	e708      	b.n	800030a <__udivmoddi4+0xda>
 80004f8:	4637      	mov	r7, r6
 80004fa:	e6e9      	b.n	80002d0 <__udivmoddi4+0xa0>

080004fc <__aeabi_idiv0>:
 80004fc:	4770      	bx	lr
 80004fe:	bf00      	nop

08000500 <__aeabi_memset>:
 8000500:	b470      	push	{r4, r5, r6}
 8000502:	0784      	lsls	r4, r0, #30
 8000504:	d046      	beq.n	8000594 <__aeabi_memset+0x94>
 8000506:	1e4c      	subs	r4, r1, #1
 8000508:	2900      	cmp	r1, #0
 800050a:	d041      	beq.n	8000590 <__aeabi_memset+0x90>
 800050c:	b2d5      	uxtb	r5, r2
 800050e:	4603      	mov	r3, r0
 8000510:	e002      	b.n	8000518 <__aeabi_memset+0x18>
 8000512:	1e61      	subs	r1, r4, #1
 8000514:	b3e4      	cbz	r4, 8000590 <__aeabi_memset+0x90>
 8000516:	460c      	mov	r4, r1
 8000518:	f803 5b01 	strb.w	r5, [r3], #1
 800051c:	0799      	lsls	r1, r3, #30
 800051e:	d1f8      	bne.n	8000512 <__aeabi_memset+0x12>
 8000520:	2c03      	cmp	r4, #3
 8000522:	d92e      	bls.n	8000582 <__aeabi_memset+0x82>
 8000524:	b2d5      	uxtb	r5, r2
 8000526:	ea45 2505 	orr.w	r5, r5, r5, lsl #8
 800052a:	2c0f      	cmp	r4, #15
 800052c:	ea45 4505 	orr.w	r5, r5, r5, lsl #16
 8000530:	d919      	bls.n	8000566 <__aeabi_memset+0x66>
 8000532:	4626      	mov	r6, r4
 8000534:	f103 0110 	add.w	r1, r3, #16
 8000538:	3e10      	subs	r6, #16
 800053a:	2e0f      	cmp	r6, #15
 800053c:	f841 5c10 	str.w	r5, [r1, #-16]
 8000540:	f841 5c0c 	str.w	r5, [r1, #-12]
 8000544:	f841 5c08 	str.w	r5, [r1, #-8]
 8000548:	f841 5c04 	str.w	r5, [r1, #-4]
 800054c:	f101 0110 	add.w	r1, r1, #16
 8000550:	d8f2      	bhi.n	8000538 <__aeabi_memset+0x38>
 8000552:	f1a4 0110 	sub.w	r1, r4, #16
 8000556:	f021 010f 	bic.w	r1, r1, #15
 800055a:	f004 040f 	and.w	r4, r4, #15
 800055e:	3110      	adds	r1, #16
 8000560:	2c03      	cmp	r4, #3
 8000562:	440b      	add	r3, r1
 8000564:	d90d      	bls.n	8000582 <__aeabi_memset+0x82>
 8000566:	461e      	mov	r6, r3
 8000568:	4621      	mov	r1, r4
 800056a:	3904      	subs	r1, #4
 800056c:	2903      	cmp	r1, #3
 800056e:	f846 5b04 	str.w	r5, [r6], #4
 8000572:	d8fa      	bhi.n	800056a <__aeabi_memset+0x6a>
 8000574:	1f21      	subs	r1, r4, #4
 8000576:	f021 0103 	bic.w	r1, r1, #3
 800057a:	3104      	adds	r1, #4
 800057c:	440b      	add	r3, r1
 800057e:	f004 0403 	and.w	r4, r4, #3
 8000582:	b12c      	cbz	r4, 8000590 <__aeabi_memset+0x90>
 8000584:	b2d2      	uxtb	r2, r2
 8000586:	441c      	add	r4, r3
 8000588:	f803 2b01 	strb.w	r2, [r3], #1
 800058c:	42a3      	cmp	r3, r4
 800058e:	d1fb      	bne.n	8000588 <__aeabi_memset+0x88>
 8000590:	bc70      	pop	{r4, r5, r6}
 8000592:	4770      	bx	lr
 8000594:	460c      	mov	r4, r1
 8000596:	4603      	mov	r3, r0
 8000598:	e7c2      	b.n	8000520 <__aeabi_memset+0x20>
	...

0800059c <memcpy>:
 800059c:	4684      	mov	ip, r0
 800059e:	ea41 0300 	orr.w	r3, r1, r0
 80005a2:	f013 0303 	ands.w	r3, r3, #3
 80005a6:	d16d      	bne.n	8000684 <memcpy+0xe8>
 80005a8:	3a40      	subs	r2, #64	; 0x40
 80005aa:	d341      	bcc.n	8000630 <memcpy+0x94>
 80005ac:	f851 3b04 	ldr.w	r3, [r1], #4
 80005b0:	f840 3b04 	str.w	r3, [r0], #4
 80005b4:	f851 3b04 	ldr.w	r3, [r1], #4
 80005b8:	f840 3b04 	str.w	r3, [r0], #4
 80005bc:	f851 3b04 	ldr.w	r3, [r1], #4
 80005c0:	f840 3b04 	str.w	r3, [r0], #4
 80005c4:	f851 3b04 	ldr.w	r3, [r1], #4
 80005c8:	f840 3b04 	str.w	r3, [r0], #4
 80005cc:	f851 3b04 	ldr.w	r3, [r1], #4
 80005d0:	f840 3b04 	str.w	r3, [r0], #4
 80005d4:	f851 3b04 	ldr.w	r3, [r1], #4
 80005d8:	f840 3b04 	str.w	r3, [r0], #4
 80005dc:	f851 3b04 	ldr.w	r3, [r1], #4
 80005e0:	f840 3b04 	str.w	r3, [r0], #4
 80005e4:	f851 3b04 	ldr.w	r3, [r1], #4
 80005e8:	f840 3b04 	str.w	r3, [r0], #4
 80005ec:	f851 3b04 	ldr.w	r3, [r1], #4
 80005f0:	f840 3b04 	str.w	r3, [r0], #4
 80005f4:	f851 3b04 	ldr.w	r3, [r1], #4
 80005f8:	f840 3b04 	str.w	r3, [r0], #4
 80005fc:	f851 3b04 	ldr.w	r3, [r1], #4
 8000600:	f840 3b04 	str.w	r3, [r0], #4
 8000604:	f851 3b04 	ldr.w	r3, [r1], #4
 8000608:	f840 3b04 	str.w	r3, [r0], #4
 800060c:	f851 3b04 	ldr.w	r3, [r1], #4
 8000610:	f840 3b04 	str.w	r3, [r0], #4
 8000614:	f851 3b04 	ldr.w	r3, [r1], #4
 8000618:	f840 3b04 	str.w	r3, [r0], #4
 800061c:	f851 3b04 	ldr.w	r3, [r1], #4
 8000620:	f840 3b04 	str.w	r3, [r0], #4
 8000624:	f851 3b04 	ldr.w	r3, [r1], #4
 8000628:	f840 3b04 	str.w	r3, [r0], #4
 800062c:	3a40      	subs	r2, #64	; 0x40
 800062e:	d2bd      	bcs.n	80005ac <memcpy+0x10>
 8000630:	3230      	adds	r2, #48	; 0x30
 8000632:	d311      	bcc.n	8000658 <memcpy+0xbc>
 8000634:	f851 3b04 	ldr.w	r3, [r1], #4
 8000638:	f840 3b04 	str.w	r3, [r0], #4
 800063c:	f851 3b04 	ldr.w	r3, [r1], #4
 8000640:	f840 3b04 	str.w	r3, [r0], #4
 8000644:	f851 3b04 	ldr.w	r3, [r1], #4
 8000648:	f840 3b04 	str.w	r3, [r0], #4
 800064c:	f851 3b04 	ldr.w	r3, [r1], #4
 8000650:	f840 3b04 	str.w	r3, [r0], #4
 8000654:	3a10      	subs	r2, #16
 8000656:	d2ed      	bcs.n	8000634 <memcpy+0x98>
 8000658:	320c      	adds	r2, #12
 800065a:	d305      	bcc.n	8000668 <memcpy+0xcc>
 800065c:	f851 3b04 	ldr.w	r3, [r1], #4
 8000660:	f840 3b04 	str.w	r3, [r0], #4
 8000664:	3a04      	subs	r2, #4
 8000666:	d2f9      	bcs.n	800065c <memcpy+0xc0>
 8000668:	3204      	adds	r2, #4
 800066a:	d008      	beq.n	800067e <memcpy+0xe2>
 800066c:	07d2      	lsls	r2, r2, #31
 800066e:	bf1c      	itt	ne
 8000670:	f811 3b01 	ldrbne.w	r3, [r1], #1
 8000674:	f800 3b01 	strbne.w	r3, [r0], #1
 8000678:	d301      	bcc.n	800067e <memcpy+0xe2>
 800067a:	880b      	ldrh	r3, [r1, #0]
 800067c:	8003      	strh	r3, [r0, #0]
 800067e:	4660      	mov	r0, ip
 8000680:	4770      	bx	lr
 8000682:	bf00      	nop
 8000684:	2a08      	cmp	r2, #8
 8000686:	d313      	bcc.n	80006b0 <memcpy+0x114>
 8000688:	078b      	lsls	r3, r1, #30
 800068a:	d08d      	beq.n	80005a8 <memcpy+0xc>
 800068c:	f010 0303 	ands.w	r3, r0, #3
 8000690:	d08a      	beq.n	80005a8 <memcpy+0xc>
 8000692:	f1c3 0304 	rsb	r3, r3, #4
 8000696:	1ad2      	subs	r2, r2, r3
 8000698:	07db      	lsls	r3, r3, #31
 800069a:	bf1c      	itt	ne
 800069c:	f811 3b01 	ldrbne.w	r3, [r1], #1
 80006a0:	f800 3b01 	strbne.w	r3, [r0], #1
 80006a4:	d380      	bcc.n	80005a8 <memcpy+0xc>
 80006a6:	f831 3b02 	ldrh.w	r3, [r1], #2
 80006aa:	f820 3b02 	strh.w	r3, [r0], #2
 80006ae:	e77b      	b.n	80005a8 <memcpy+0xc>
 80006b0:	3a04      	subs	r2, #4
 80006b2:	d3d9      	bcc.n	8000668 <memcpy+0xcc>
 80006b4:	3a01      	subs	r2, #1
 80006b6:	f811 3b01 	ldrb.w	r3, [r1], #1
 80006ba:	f800 3b01 	strb.w	r3, [r0], #1
 80006be:	d2f9      	bcs.n	80006b4 <memcpy+0x118>
 80006c0:	780b      	ldrb	r3, [r1, #0]
 80006c2:	7003      	strb	r3, [r0, #0]
 80006c4:	784b      	ldrb	r3, [r1, #1]
 80006c6:	7043      	strb	r3, [r0, #1]
 80006c8:	788b      	ldrb	r3, [r1, #2]
 80006ca:	7083      	strb	r3, [r0, #2]
 80006cc:	4660      	mov	r0, ip
 80006ce:	4770      	bx	lr
	...

08000700 <strlen>:
 8000700:	f890 f000 	pld	[r0]
 8000704:	e96d 4502 	strd	r4, r5, [sp, #-8]!
 8000708:	f020 0107 	bic.w	r1, r0, #7
 800070c:	f06f 0c00 	mvn.w	ip, #0
 8000710:	f010 0407 	ands.w	r4, r0, #7
 8000714:	f891 f020 	pld	[r1, #32]
 8000718:	f040 8049 	bne.w	80007ae <strlen+0xae>
 800071c:	f04f 0400 	mov.w	r4, #0
 8000720:	f06f 0007 	mvn.w	r0, #7
 8000724:	e9d1 2300 	ldrd	r2, r3, [r1]
 8000728:	f891 f040 	pld	[r1, #64]	; 0x40
 800072c:	f100 0008 	add.w	r0, r0, #8
 8000730:	fa82 f24c 	uadd8	r2, r2, ip
 8000734:	faa4 f28c 	sel	r2, r4, ip
 8000738:	fa83 f34c 	uadd8	r3, r3, ip
 800073c:	faa2 f38c 	sel	r3, r2, ip
 8000740:	bb4b      	cbnz	r3, 8000796 <strlen+0x96>
 8000742:	e9d1 2302 	ldrd	r2, r3, [r1, #8]
 8000746:	fa82 f24c 	uadd8	r2, r2, ip
 800074a:	f100 0008 	add.w	r0, r0, #8
 800074e:	faa4 f28c 	sel	r2, r4, ip
 8000752:	fa83 f34c 	uadd8	r3, r3, ip
 8000756:	faa2 f38c 	sel	r3, r2, ip
 800075a:	b9e3      	cbnz	r3, 8000796 <strlen+0x96>
 800075c:	e9d1 2304 	ldrd	r2, r3, [r1, #16]
 8000760:	fa82 f24c 	uadd8	r2, r2, ip
 8000764:	f100 0008 	add.w	r0, r0, #8
 8000768:	faa4 f28c 	sel	r2, r4, ip
 800076c:	fa83 f34c 	uadd8	r3, r3, ip
 8000770:	faa2 f38c 	sel	r3, r2, ip
 8000774:	b97b      	cbnz	r3, 8000796 <strlen+0x96>
 8000776:	e9d1 2306 	ldrd	r2, r3, [r1, #24]
 800077a:	f101 0120 	add.w	r1, r1, #32
 800077e:	fa82 f24c 	uadd8	r2, r2, ip
 8000782:	f100 0008 	add.w	r0, r0, #8
 8000786:	faa4 f28c 	sel	r2, r4, ip
 800078a:	fa83 f34c 	uadd8	r3, r3, ip
 800078e:	faa2 f38c 	sel	r3, r2, ip
 8000792:	2b00      	cmp	r3, #0
 8000794:	d0c6      	beq.n	8000724 <strlen+0x24>
 8000796:	2a00      	cmp	r2, #0
 8000798:	bf04      	itt	eq
 800079a:	3004      	addeq	r0, #4
 800079c:	461a      	moveq	r2, r3
 800079e:	ba12      	rev	r2, r2
 80007a0:	fab2 f282 	clz	r2, r2
 80007a4:	e8fd 4502 	ldrd	r4, r5, [sp], #8
 80007a8:	eb00 00d2 	add.w	r0, r0, r2, lsr #3
 80007ac:	4770      	bx	lr
 80007ae:	e9d1 2300 	ldrd	r2, r3, [r1]
 80007b2:	f004 0503 	and.w	r5, r4, #3
 80007b6:	f1c4 0000 	rsb	r0, r4, #0
 80007ba:	ea4f 05c5 	mov.w	r5, r5, lsl #3
 80007be:	f014 0f04 	tst.w	r4, #4
 80007c2:	f891 f040 	pld	[r1, #64]	; 0x40
 80007c6:	fa0c f505 	lsl.w	r5, ip, r5
 80007ca:	ea62 0205 	orn	r2, r2, r5
 80007ce:	bf1c      	itt	ne
 80007d0:	ea63 0305 	ornne	r3, r3, r5
 80007d4:	4662      	movne	r2, ip
 80007d6:	f04f 0400 	mov.w	r4, #0
 80007da:	e7a9      	b.n	8000730 <strlen+0x30>
 80007dc:	0000      	movs	r0, r0
	...

080007e0 <memchr>:
 80007e0:	f001 01ff 	and.w	r1, r1, #255	; 0xff
 80007e4:	2a10      	cmp	r2, #16
 80007e6:	db2b      	blt.n	8000840 <memchr+0x60>
 80007e8:	f010 0f07 	tst.w	r0, #7
 80007ec:	d008      	beq.n	8000800 <memchr+0x20>
 80007ee:	f810 3b01 	ldrb.w	r3, [r0], #1
 80007f2:	3a01      	subs	r2, #1
 80007f4:	428b      	cmp	r3, r1
 80007f6:	d02d      	beq.n	8000854 <memchr+0x74>
 80007f8:	f010 0f07 	tst.w	r0, #7
 80007fc:	b342      	cbz	r2, 8000850 <memchr+0x70>
 80007fe:	d1f6      	bne.n	80007ee <memchr+0xe>
 8000800:	b4f0      	push	{r4, r5, r6, r7}
 8000802:	ea41 2101 	orr.w	r1, r1, r1, lsl #8
 8000806:	ea41 4101 	orr.w	r1, r1, r1, lsl #16
 800080a:	f022 0407 	bic.w	r4, r2, #7
 800080e:	f07f 0700 	mvns.w	r7, #0
 8000812:	2300      	movs	r3, #0
 8000814:	e8f0 5602 	ldrd	r5, r6, [r0], #8
 8000818:	3c08      	subs	r4, #8
 800081a:	ea85 0501 	eor.w	r5, r5, r1
 800081e:	ea86 0601 	eor.w	r6, r6, r1
 8000822:	fa85 f547 	uadd8	r5, r5, r7
 8000826:	faa3 f587 	sel	r5, r3, r7
 800082a:	fa86 f647 	uadd8	r6, r6, r7
 800082e:	faa5 f687 	sel	r6, r5, r7
 8000832:	b98e      	cbnz	r6, 8000858 <memchr+0x78>
 8000834:	d1ee      	bne.n	8000814 <memchr+0x34>
 8000836:	bcf0      	pop	{r4, r5, r6, r7}
 8000838:	f001 01ff 	and.w	r1, r1, #255	; 0xff
 800083c:	f002 0207 	and.w	r2, r2, #7
 8000840:	b132      	cbz	r2, 8000850 <memchr+0x70>
 8000842:	f810 3b01 	ldrb.w	r3, [r0], #1
 8000846:	3a01      	subs	r2, #1
 8000848:	ea83 0301 	eor.w	r3, r3, r1
 800084c:	b113      	cbz	r3, 8000854 <memchr+0x74>
 800084e:	d1f8      	bne.n	8000842 <memchr+0x62>
 8000850:	2000      	movs	r0, #0
 8000852:	4770      	bx	lr
 8000854:	3801      	subs	r0, #1
 8000856:	4770      	bx	lr
 8000858:	2d00      	cmp	r5, #0
 800085a:	bf06      	itte	eq
 800085c:	4635      	moveq	r5, r6
 800085e:	3803      	subeq	r0, #3
 8000860:	3807      	subne	r0, #7
 8000862:	f015 0f01 	tst.w	r5, #1
 8000866:	d107      	bne.n	8000878 <memchr+0x98>
 8000868:	3001      	adds	r0, #1
 800086a:	f415 7f80 	tst.w	r5, #256	; 0x100
 800086e:	bf02      	ittt	eq
 8000870:	3001      	addeq	r0, #1
 8000872:	f415 3fc0 	tsteq.w	r5, #98304	; 0x18000
 8000876:	3001      	addeq	r0, #1
 8000878:	bcf0      	pop	{r4, r5, r6, r7}
 800087a:	3801      	subs	r0, #1
 800087c:	4770      	bx	lr
 800087e:	bf00      	nop

08000880 <__aeabi_drsub>:
 8000880:	f081 4100 	eor.w	r1, r1, #2147483648	; 0x80000000
 8000884:	e002      	b.n	800088c <__adddf3>
 8000886:	bf00      	nop

08000888 <__aeabi_dsub>:
 8000888:	f083 4300 	eor.w	r3, r3, #2147483648	; 0x80000000

0800088c <__adddf3>:
 800088c:	b530      	push	{r4, r5, lr}
 800088e:	ea4f 0441 	mov.w	r4, r1, lsl #1
 8000892:	ea4f 0543 	mov.w	r5, r3, lsl #1
 8000896:	ea94 0f05 	teq	r4, r5
 800089a:	bf08      	it	eq
 800089c:	ea90 0f02 	teqeq	r0, r2
 80008a0:	bf1f      	itttt	ne
 80008a2:	ea54 0c00 	orrsne.w	ip, r4, r0
 80008a6:	ea55 0c02 	orrsne.w	ip, r5, r2
 80008aa:	ea7f 5c64 	mvnsne.w	ip, r4, asr #21
 80008ae:	ea7f 5c65 	mvnsne.w	ip, r5, asr #21
 80008b2:	f000 80e2 	beq.w	8000a7a <__adddf3+0x1ee>
 80008b6:	ea4f 5454 	mov.w	r4, r4, lsr #21
 80008ba:	ebd4 5555 	rsbs	r5, r4, r5, lsr #21
 80008be:	bfb8      	it	lt
 80008c0:	426d      	neglt	r5, r5
 80008c2:	dd0c      	ble.n	80008de <__adddf3+0x52>
 80008c4:	442c      	add	r4, r5
 80008c6:	ea80 0202 	eor.w	r2, r0, r2
 80008ca:	ea81 0303 	eor.w	r3, r1, r3
 80008ce:	ea82 0000 	eor.w	r0, r2, r0
 80008d2:	ea83 0101 	eor.w	r1, r3, r1
 80008d6:	ea80 0202 	eor.w	r2, r0, r2
 80008da:	ea81 0303 	eor.w	r3, r1, r3
 80008de:	2d36      	cmp	r5, #54	; 0x36
 80008e0:	bf88      	it	hi
 80008e2:	bd30      	pophi	{r4, r5, pc}
 80008e4:	f011 4f00 	tst.w	r1, #2147483648	; 0x80000000
 80008e8:	ea4f 3101 	mov.w	r1, r1, lsl #12
 80008ec:	f44f 1c80 	mov.w	ip, #1048576	; 0x100000
 80008f0:	ea4c 3111 	orr.w	r1, ip, r1, lsr #12
 80008f4:	d002      	beq.n	80008fc <__adddf3+0x70>
 80008f6:	4240      	negs	r0, r0
 80008f8:	eb61 0141 	sbc.w	r1, r1, r1, lsl #1
 80008fc:	f013 4f00 	tst.w	r3, #2147483648	; 0x80000000
 8000900:	ea4f 3303 	mov.w	r3, r3, lsl #12
 8000904:	ea4c 3313 	orr.w	r3, ip, r3, lsr #12
 8000908:	d002      	beq.n	8000910 <__adddf3+0x84>
 800090a:	4252      	negs	r2, r2
 800090c:	eb63 0343 	sbc.w	r3, r3, r3, lsl #1
 8000910:	ea94 0f05 	teq	r4, r5
 8000914:	f000 80a7 	beq.w	8000a66 <__adddf3+0x1da>
 8000918:	f1a4 0401 	sub.w	r4, r4, #1
 800091c:	f1d5 0e20 	rsbs	lr, r5, #32
 8000920:	db0d      	blt.n	800093e <__adddf3+0xb2>
 8000922:	fa02 fc0e 	lsl.w	ip, r2, lr
 8000926:	fa22 f205 	lsr.w	r2, r2, r5
 800092a:	1880      	adds	r0, r0, r2
 800092c:	f141 0100 	adc.w	r1, r1, #0
 8000930:	fa03 f20e 	lsl.w	r2, r3, lr
 8000934:	1880      	adds	r0, r0, r2
 8000936:	fa43 f305 	asr.w	r3, r3, r5
 800093a:	4159      	adcs	r1, r3
 800093c:	e00e      	b.n	800095c <__adddf3+0xd0>
 800093e:	f1a5 0520 	sub.w	r5, r5, #32
 8000942:	f10e 0e20 	add.w	lr, lr, #32
 8000946:	2a01      	cmp	r2, #1
 8000948:	fa03 fc0e 	lsl.w	ip, r3, lr
 800094c:	bf28      	it	cs
 800094e:	f04c 0c02 	orrcs.w	ip, ip, #2
 8000952:	fa43 f305 	asr.w	r3, r3, r5
 8000956:	18c0      	adds	r0, r0, r3
 8000958:	eb51 71e3 	adcs.w	r1, r1, r3, asr #31
 800095c:	f001 4500 	and.w	r5, r1, #2147483648	; 0x80000000
 8000960:	d507      	bpl.n	8000972 <__adddf3+0xe6>
 8000962:	f04f 0e00 	mov.w	lr, #0
 8000966:	f1dc 0c00 	rsbs	ip, ip, #0
 800096a:	eb7e 0000 	sbcs.w	r0, lr, r0
 800096e:	eb6e 0101 	sbc.w	r1, lr, r1
 8000972:	f5b1 1f80 	cmp.w	r1, #1048576	; 0x100000
 8000976:	d31b      	bcc.n	80009b0 <__adddf3+0x124>
 8000978:	f5b1 1f00 	cmp.w	r1, #2097152	; 0x200000
 800097c:	d30c      	bcc.n	8000998 <__adddf3+0x10c>
 800097e:	0849      	lsrs	r1, r1, #1
 8000980:	ea5f 0030 	movs.w	r0, r0, rrx
 8000984:	ea4f 0c3c 	mov.w	ip, ip, rrx
 8000988:	f104 0401 	add.w	r4, r4, #1
 800098c:	ea4f 5244 	mov.w	r2, r4, lsl #21
 8000990:	f512 0f80 	cmn.w	r2, #4194304	; 0x400000
 8000994:	f080 809a 	bcs.w	8000acc <__adddf3+0x240>
 8000998:	f1bc 4f00 	cmp.w	ip, #2147483648	; 0x80000000
 800099c:	bf08      	it	eq
 800099e:	ea5f 0c50 	movseq.w	ip, r0, lsr #1
 80009a2:	f150 0000 	adcs.w	r0, r0, #0
 80009a6:	eb41 5104 	adc.w	r1, r1, r4, lsl #20
 80009aa:	ea41 0105 	orr.w	r1, r1, r5
 80009ae:	bd30      	pop	{r4, r5, pc}
 80009b0:	ea5f 0c4c 	movs.w	ip, ip, lsl #1
 80009b4:	4140      	adcs	r0, r0
 80009b6:	eb41 0101 	adc.w	r1, r1, r1
 80009ba:	f411 1f80 	tst.w	r1, #1048576	; 0x100000
 80009be:	f1a4 0401 	sub.w	r4, r4, #1
 80009c2:	d1e9      	bne.n	8000998 <__adddf3+0x10c>
 80009c4:	f091 0f00 	teq	r1, #0
 80009c8:	bf04      	itt	eq
 80009ca:	4601      	moveq	r1, r0
 80009cc:	2000      	moveq	r0, #0
 80009ce:	fab1 f381 	clz	r3, r1
 80009d2:	bf08      	it	eq
 80009d4:	3320      	addeq	r3, #32
 80009d6:	f1a3 030b 	sub.w	r3, r3, #11
 80009da:	f1b3 0220 	subs.w	r2, r3, #32
 80009de:	da0c      	bge.n	80009fa <__adddf3+0x16e>
 80009e0:	320c      	adds	r2, #12
 80009e2:	dd08      	ble.n	80009f6 <__adddf3+0x16a>
 80009e4:	f102 0c14 	add.w	ip, r2, #20
 80009e8:	f1c2 020c 	rsb	r2, r2, #12
 80009ec:	fa01 f00c 	lsl.w	r0, r1, ip
 80009f0:	fa21 f102 	lsr.w	r1, r1, r2
 80009f4:	e00c      	b.n	8000a10 <__adddf3+0x184>
 80009f6:	f102 0214 	add.w	r2, r2, #20
 80009fa:	bfd8      	it	le
 80009fc:	f1c2 0c20 	rsble	ip, r2, #32
 8000a00:	fa01 f102 	lsl.w	r1, r1, r2
 8000a04:	fa20 fc0c 	lsr.w	ip, r0, ip
 8000a08:	bfdc      	itt	le
 8000a0a:	ea41 010c 	orrle.w	r1, r1, ip
 8000a0e:	4090      	lslle	r0, r2
 8000a10:	1ae4      	subs	r4, r4, r3
 8000a12:	bfa2      	ittt	ge
 8000a14:	eb01 5104 	addge.w	r1, r1, r4, lsl #20
 8000a18:	4329      	orrge	r1, r5
 8000a1a:	bd30      	popge	{r4, r5, pc}
 8000a1c:	ea6f 0404 	mvn.w	r4, r4
 8000a20:	3c1f      	subs	r4, #31
 8000a22:	da1c      	bge.n	8000a5e <__adddf3+0x1d2>
 8000a24:	340c      	adds	r4, #12
 8000a26:	dc0e      	bgt.n	8000a46 <__adddf3+0x1ba>
 8000a28:	f104 0414 	add.w	r4, r4, #20
 8000a2c:	f1c4 0220 	rsb	r2, r4, #32
 8000a30:	fa20 f004 	lsr.w	r0, r0, r4
 8000a34:	fa01 f302 	lsl.w	r3, r1, r2
 8000a38:	ea40 0003 	orr.w	r0, r0, r3
 8000a3c:	fa21 f304 	lsr.w	r3, r1, r4
 8000a40:	ea45 0103 	orr.w	r1, r5, r3
 8000a44:	bd30      	pop	{r4, r5, pc}
 8000a46:	f1c4 040c 	rsb	r4, r4, #12
 8000a4a:	f1c4 0220 	rsb	r2, r4, #32
 8000a4e:	fa20 f002 	lsr.w	r0, r0, r2
 8000a52:	fa01 f304 	lsl.w	r3, r1, r4
 8000a56:	ea40 0003 	orr.w	r0, r0, r3
 8000a5a:	4629      	mov	r1, r5
 8000a5c:	bd30      	pop	{r4, r5, pc}
 8000a5e:	fa21 f004 	lsr.w	r0, r1, r4
 8000a62:	4629      	mov	r1, r5
 8000a64:	bd30      	pop	{r4, r5, pc}
 8000a66:	f094 0f00 	teq	r4, #0
 8000a6a:	f483 1380 	eor.w	r3, r3, #1048576	; 0x100000
 8000a6e:	bf06      	itte	eq
 8000a70:	f481 1180 	eoreq.w	r1, r1, #1048576	; 0x100000
 8000a74:	3401      	addeq	r4, #1
 8000a76:	3d01      	subne	r5, #1
 8000a78:	e74e      	b.n	8000918 <__adddf3+0x8c>
 8000a7a:	ea7f 5c64 	mvns.w	ip, r4, asr #21
 8000a7e:	bf18      	it	ne
 8000a80:	ea7f 5c65 	mvnsne.w	ip, r5, asr #21
 8000a84:	d029      	beq.n	8000ada <__adddf3+0x24e>
 8000a86:	ea94 0f05 	teq	r4, r5
 8000a8a:	bf08      	it	eq
 8000a8c:	ea90 0f02 	teqeq	r0, r2
 8000a90:	d005      	beq.n	8000a9e <__adddf3+0x212>
 8000a92:	ea54 0c00 	orrs.w	ip, r4, r0
 8000a96:	bf04      	itt	eq
 8000a98:	4619      	moveq	r1, r3
 8000a9a:	4610      	moveq	r0, r2
 8000a9c:	bd30      	pop	{r4, r5, pc}
 8000a9e:	ea91 0f03 	teq	r1, r3
 8000aa2:	bf1e      	ittt	ne
 8000aa4:	2100      	movne	r1, #0
 8000aa6:	2000      	movne	r0, #0
 8000aa8:	bd30      	popne	{r4, r5, pc}
 8000aaa:	ea5f 5c54 	movs.w	ip, r4, lsr #21
 8000aae:	d105      	bne.n	8000abc <__adddf3+0x230>
 8000ab0:	0040      	lsls	r0, r0, #1
 8000ab2:	4149      	adcs	r1, r1
 8000ab4:	bf28      	it	cs
 8000ab6:	f041 4100 	orrcs.w	r1, r1, #2147483648	; 0x80000000
 8000aba:	bd30      	pop	{r4, r5, pc}
 8000abc:	f514 0480 	adds.w	r4, r4, #4194304	; 0x400000
 8000ac0:	bf3c      	itt	cc
 8000ac2:	f501 1180 	addcc.w	r1, r1, #1048576	; 0x100000
 8000ac6:	bd30      	popcc	{r4, r5, pc}
 8000ac8:	f001 4500 	and.w	r5, r1, #2147483648	; 0x80000000
 8000acc:	f045 41fe 	orr.w	r1, r5, #2130706432	; 0x7f000000
 8000ad0:	f441 0170 	orr.w	r1, r1, #15728640	; 0xf00000
 8000ad4:	f04f 0000 	mov.w	r0, #0
 8000ad8:	bd30      	pop	{r4, r5, pc}
 8000ada:	ea7f 5c64 	mvns.w	ip, r4, asr #21
 8000ade:	bf1a      	itte	ne
 8000ae0:	4619      	movne	r1, r3
 8000ae2:	4610      	movne	r0, r2
 8000ae4:	ea7f 5c65 	mvnseq.w	ip, r5, asr #21
 8000ae8:	bf1c      	itt	ne
 8000aea:	460b      	movne	r3, r1
 8000aec:	4602      	movne	r2, r0
 8000aee:	ea50 3401 	orrs.w	r4, r0, r1, lsl #12
 8000af2:	bf06      	itte	eq
 8000af4:	ea52 3503 	orrseq.w	r5, r2, r3, lsl #12
 8000af8:	ea91 0f03 	teqeq	r1, r3
 8000afc:	f441 2100 	orrne.w	r1, r1, #524288	; 0x80000
 8000b00:	bd30      	pop	{r4, r5, pc}
 8000b02:	bf00      	nop

08000b04 <__aeabi_ui2d>:
 8000b04:	f090 0f00 	teq	r0, #0
 8000b08:	bf04      	itt	eq
 8000b0a:	2100      	moveq	r1, #0
 8000b0c:	4770      	bxeq	lr
 8000b0e:	b530      	push	{r4, r5, lr}
 8000b10:	f44f 6480 	mov.w	r4, #1024	; 0x400
 8000b14:	f104 0432 	add.w	r4, r4, #50	; 0x32
 8000b18:	f04f 0500 	mov.w	r5, #0
 8000b1c:	f04f 0100 	mov.w	r1, #0
 8000b20:	e750      	b.n	80009c4 <__adddf3+0x138>
 8000b22:	bf00      	nop

08000b24 <__aeabi_i2d>:
 8000b24:	f090 0f00 	teq	r0, #0
 8000b28:	bf04      	itt	eq
 8000b2a:	2100      	moveq	r1, #0
 8000b2c:	4770      	bxeq	lr
 8000b2e:	b530      	push	{r4, r5, lr}
 8000b30:	f44f 6480 	mov.w	r4, #1024	; 0x400
 8000b34:	f104 0432 	add.w	r4, r4, #50	; 0x32
 8000b38:	f010 4500 	ands.w	r5, r0, #2147483648	; 0x80000000
 8000b3c:	bf48      	it	mi
 8000b3e:	4240      	negmi	r0, r0
 8000b40:	f04f 0100 	mov.w	r1, #0
 8000b44:	e73e      	b.n	80009c4 <__adddf3+0x138>
 8000b46:	bf00      	nop

08000b48 <__aeabi_f2d>:
 8000b48:	0042      	lsls	r2, r0, #1
 8000b4a:	ea4f 01e2 	mov.w	r1, r2, asr #3
 8000b4e:	ea4f 0131 	mov.w	r1, r1, rrx
 8000b52:	ea4f 7002 	mov.w	r0, r2, lsl #28
 8000b56:	bf1f      	itttt	ne
 8000b58:	f012 437f 	andsne.w	r3, r2, #4278190080	; 0xff000000
 8000b5c:	f093 4f7f 	teqne	r3, #4278190080	; 0xff000000
 8000b60:	f081 5160 	eorne.w	r1, r1, #939524096	; 0x38000000
 8000b64:	4770      	bxne	lr
 8000b66:	f032 427f 	bics.w	r2, r2, #4278190080	; 0xff000000
 8000b6a:	bf08      	it	eq
 8000b6c:	4770      	bxeq	lr
 8000b6e:	f093 4f7f 	teq	r3, #4278190080	; 0xff000000
 8000b72:	bf04      	itt	eq
 8000b74:	f441 2100 	orreq.w	r1, r1, #524288	; 0x80000
 8000b78:	4770      	bxeq	lr
 8000b7a:	b530      	push	{r4, r5, lr}
 8000b7c:	f44f 7460 	mov.w	r4, #896	; 0x380
 8000b80:	f001 4500 	and.w	r5, r1, #2147483648	; 0x80000000
 8000b84:	f021 4100 	bic.w	r1, r1, #2147483648	; 0x80000000
 8000b88:	e71c      	b.n	80009c4 <__adddf3+0x138>
 8000b8a:	bf00      	nop

08000b8c <__aeabi_ul2d>:
 8000b8c:	ea50 0201 	orrs.w	r2, r0, r1
 8000b90:	bf08      	it	eq
 8000b92:	4770      	bxeq	lr
 8000b94:	b530      	push	{r4, r5, lr}
 8000b96:	f04f 0500 	mov.w	r5, #0
 8000b9a:	e00a      	b.n	8000bb2 <__aeabi_l2d+0x16>

08000b9c <__aeabi_l2d>:
 8000b9c:	ea50 0201 	orrs.w	r2, r0, r1
 8000ba0:	bf08      	it	eq
 8000ba2:	4770      	bxeq	lr
 8000ba4:	b530      	push	{r4, r5, lr}
 8000ba6:	f011 4500 	ands.w	r5, r1, #2147483648	; 0x80000000
 8000baa:	d502      	bpl.n	8000bb2 <__aeabi_l2d+0x16>
 8000bac:	4240      	negs	r0, r0
 8000bae:	eb61 0141 	sbc.w	r1, r1, r1, lsl #1
 8000bb2:	f44f 6480 	mov.w	r4, #1024	; 0x400
 8000bb6:	f104 0432 	add.w	r4, r4, #50	; 0x32
 8000bba:	ea5f 5c91 	movs.w	ip, r1, lsr #22
 8000bbe:	f43f aed8 	beq.w	8000972 <__adddf3+0xe6>
 8000bc2:	f04f 0203 	mov.w	r2, #3
 8000bc6:	ea5f 0cdc 	movs.w	ip, ip, lsr #3
 8000bca:	bf18      	it	ne
 8000bcc:	3203      	addne	r2, #3
 8000bce:	ea5f 0cdc 	movs.w	ip, ip, lsr #3
 8000bd2:	bf18      	it	ne
 8000bd4:	3203      	addne	r2, #3
 8000bd6:	eb02 02dc 	add.w	r2, r2, ip, lsr #3
 8000bda:	f1c2 0320 	rsb	r3, r2, #32
 8000bde:	fa00 fc03 	lsl.w	ip, r0, r3
 8000be2:	fa20 f002 	lsr.w	r0, r0, r2
 8000be6:	fa01 fe03 	lsl.w	lr, r1, r3
 8000bea:	ea40 000e 	orr.w	r0, r0, lr
 8000bee:	fa21 f102 	lsr.w	r1, r1, r2
 8000bf2:	4414      	add	r4, r2
 8000bf4:	e6bd      	b.n	8000972 <__adddf3+0xe6>
 8000bf6:	bf00      	nop

08000bf8 <__aeabi_dmul>:
 8000bf8:	b570      	push	{r4, r5, r6, lr}
 8000bfa:	f04f 0cff 	mov.w	ip, #255	; 0xff
 8000bfe:	f44c 6ce0 	orr.w	ip, ip, #1792	; 0x700
 8000c02:	ea1c 5411 	ands.w	r4, ip, r1, lsr #20
 8000c06:	bf1d      	ittte	ne
 8000c08:	ea1c 5513 	andsne.w	r5, ip, r3, lsr #20
 8000c0c:	ea94 0f0c 	teqne	r4, ip
 8000c10:	ea95 0f0c 	teqne	r5, ip
 8000c14:	f000 f8de 	bleq	8000dd4 <__aeabi_dmul+0x1dc>
 8000c18:	442c      	add	r4, r5
 8000c1a:	ea81 0603 	eor.w	r6, r1, r3
 8000c1e:	ea21 514c 	bic.w	r1, r1, ip, lsl #21
 8000c22:	ea23 534c 	bic.w	r3, r3, ip, lsl #21
 8000c26:	ea50 3501 	orrs.w	r5, r0, r1, lsl #12
 8000c2a:	bf18      	it	ne
 8000c2c:	ea52 3503 	orrsne.w	r5, r2, r3, lsl #12
 8000c30:	f441 1180 	orr.w	r1, r1, #1048576	; 0x100000
 8000c34:	f443 1380 	orr.w	r3, r3, #1048576	; 0x100000
 8000c38:	d038      	beq.n	8000cac <__aeabi_dmul+0xb4>
 8000c3a:	fba0 ce02 	umull	ip, lr, r0, r2
 8000c3e:	f04f 0500 	mov.w	r5, #0
 8000c42:	fbe1 e502 	umlal	lr, r5, r1, r2
 8000c46:	f006 4200 	and.w	r2, r6, #2147483648	; 0x80000000
 8000c4a:	fbe0 e503 	umlal	lr, r5, r0, r3
 8000c4e:	f04f 0600 	mov.w	r6, #0
 8000c52:	fbe1 5603 	umlal	r5, r6, r1, r3
 8000c56:	f09c 0f00 	teq	ip, #0
 8000c5a:	bf18      	it	ne
 8000c5c:	f04e 0e01 	orrne.w	lr, lr, #1
 8000c60:	f1a4 04ff 	sub.w	r4, r4, #255	; 0xff
 8000c64:	f5b6 7f00 	cmp.w	r6, #512	; 0x200
 8000c68:	f564 7440 	sbc.w	r4, r4, #768	; 0x300
 8000c6c:	d204      	bcs.n	8000c78 <__aeabi_dmul+0x80>
 8000c6e:	ea5f 0e4e 	movs.w	lr, lr, lsl #1
 8000c72:	416d      	adcs	r5, r5
 8000c74:	eb46 0606 	adc.w	r6, r6, r6
 8000c78:	ea42 21c6 	orr.w	r1, r2, r6, lsl #11
 8000c7c:	ea41 5155 	orr.w	r1, r1, r5, lsr #21
 8000c80:	ea4f 20c5 	mov.w	r0, r5, lsl #11
 8000c84:	ea40 505e 	orr.w	r0, r0, lr, lsr #21
 8000c88:	ea4f 2ece 	mov.w	lr, lr, lsl #11
 8000c8c:	f1b4 0cfd 	subs.w	ip, r4, #253	; 0xfd
 8000c90:	bf88      	it	hi
 8000c92:	f5bc 6fe0 	cmphi.w	ip, #1792	; 0x700
 8000c96:	d81e      	bhi.n	8000cd6 <__aeabi_dmul+0xde>
 8000c98:	f1be 4f00 	cmp.w	lr, #2147483648	; 0x80000000
 8000c9c:	bf08      	it	eq
 8000c9e:	ea5f 0e50 	movseq.w	lr, r0, lsr #1
 8000ca2:	f150 0000 	adcs.w	r0, r0, #0
 8000ca6:	eb41 5104 	adc.w	r1, r1, r4, lsl #20
 8000caa:	bd70      	pop	{r4, r5, r6, pc}
 8000cac:	f006 4600 	and.w	r6, r6, #2147483648	; 0x80000000
 8000cb0:	ea46 0101 	orr.w	r1, r6, r1
 8000cb4:	ea40 0002 	orr.w	r0, r0, r2
 8000cb8:	ea81 0103 	eor.w	r1, r1, r3
 8000cbc:	ebb4 045c 	subs.w	r4, r4, ip, lsr #1
 8000cc0:	bfc2      	ittt	gt
 8000cc2:	ebd4 050c 	rsbsgt	r5, r4, ip
 8000cc6:	ea41 5104 	orrgt.w	r1, r1, r4, lsl #20
 8000cca:	bd70      	popgt	{r4, r5, r6, pc}
 8000ccc:	f441 1180 	orr.w	r1, r1, #1048576	; 0x100000
 8000cd0:	f04f 0e00 	mov.w	lr, #0
 8000cd4:	3c01      	subs	r4, #1
 8000cd6:	f300 80ab 	bgt.w	8000e30 <__aeabi_dmul+0x238>
 8000cda:	f114 0f36 	cmn.w	r4, #54	; 0x36
 8000cde:	bfde      	ittt	le
 8000ce0:	2000      	movle	r0, #0
 8000ce2:	f001 4100 	andle.w	r1, r1, #2147483648	; 0x80000000
 8000ce6:	bd70      	pople	{r4, r5, r6, pc}
 8000ce8:	f1c4 0400 	rsb	r4, r4, #0
 8000cec:	3c20      	subs	r4, #32
 8000cee:	da35      	bge.n	8000d5c <__aeabi_dmul+0x164>
 8000cf0:	340c      	adds	r4, #12
 8000cf2:	dc1b      	bgt.n	8000d2c <__aeabi_dmul+0x134>
 8000cf4:	f104 0414 	add.w	r4, r4, #20
 8000cf8:	f1c4 0520 	rsb	r5, r4, #32
 8000cfc:	fa00 f305 	lsl.w	r3, r0, r5
 8000d00:	fa20 f004 	lsr.w	r0, r0, r4
 8000d04:	fa01 f205 	lsl.w	r2, r1, r5
 8000d08:	ea40 0002 	orr.w	r0, r0, r2
 8000d0c:	f001 4200 	and.w	r2, r1, #2147483648	; 0x80000000
 8000d10:	f021 4100 	bic.w	r1, r1, #2147483648	; 0x80000000
 8000d14:	eb10 70d3 	adds.w	r0, r0, r3, lsr #31
 8000d18:	fa21 f604 	lsr.w	r6, r1, r4
 8000d1c:	eb42 0106 	adc.w	r1, r2, r6
 8000d20:	ea5e 0e43 	orrs.w	lr, lr, r3, lsl #1
 8000d24:	bf08      	it	eq
 8000d26:	ea20 70d3 	biceq.w	r0, r0, r3, lsr #31
 8000d2a:	bd70      	pop	{r4, r5, r6, pc}
 8000d2c:	f1c4 040c 	rsb	r4, r4, #12
 8000d30:	f1c4 0520 	rsb	r5, r4, #32
 8000d34:	fa00 f304 	lsl.w	r3, r0, r4
 8000d38:	fa20 f005 	lsr.w	r0, r0, r5
 8000d3c:	fa01 f204 	lsl.w	r2, r1, r4
 8000d40:	ea40 0002 	orr.w	r0, r0, r2
 8000d44:	f001 4100 	and.w	r1, r1, #2147483648	; 0x80000000
 8000d48:	eb10 70d3 	adds.w	r0, r0, r3, lsr #31
 8000d4c:	f141 0100 	adc.w	r1, r1, #0
 8000d50:	ea5e 0e43 	orrs.w	lr, lr, r3, lsl #1
 8000d54:	bf08      	it	eq
 8000d56:	ea20 70d3 	biceq.w	r0, r0, r3, lsr #31
 8000d5a:	bd70      	pop	{r4, r5, r6, pc}
 8000d5c:	f1c4 0520 	rsb	r5, r4, #32
 8000d60:	fa00 f205 	lsl.w	r2, r0, r5
 8000d64:	ea4e 0e02 	orr.w	lr, lr, r2
 8000d68:	fa20 f304 	lsr.w	r3, r0, r4
 8000d6c:	fa01 f205 	lsl.w	r2, r1, r5
 8000d70:	ea43 0302 	orr.w	r3, r3, r2
 8000d74:	fa21 f004 	lsr.w	r0, r1, r4
 8000d78:	f001 4100 	and.w	r1, r1, #2147483648	; 0x80000000
 8000d7c:	fa21 f204 	lsr.w	r2, r1, r4
 8000d80:	ea20 0002 	bic.w	r0, r0, r2
 8000d84:	eb00 70d3 	add.w	r0, r0, r3, lsr #31
 8000d88:	ea5e 0e43 	orrs.w	lr, lr, r3, lsl #1
 8000d8c:	bf08      	it	eq
 8000d8e:	ea20 70d3 	biceq.w	r0, r0, r3, lsr #31
 8000d92:	bd70      	pop	{r4, r5, r6, pc}
 8000d94:	f094 0f00 	teq	r4, #0
 8000d98:	d10f      	bne.n	8000dba <__aeabi_dmul+0x1c2>
 8000d9a:	f001 4600 	and.w	r6, r1, #2147483648	; 0x80000000
 8000d9e:	0040      	lsls	r0, r0, #1
 8000da0:	eb41 0101 	adc.w	r1, r1, r1
 8000da4:	f411 1f80 	tst.w	r1, #1048576	; 0x100000
 8000da8:	bf08      	it	eq
 8000daa:	3c01      	subeq	r4, #1
 8000dac:	d0f7      	beq.n	8000d9e <__aeabi_dmul+0x1a6>
 8000dae:	ea41 0106 	orr.w	r1, r1, r6
 8000db2:	f095 0f00 	teq	r5, #0
 8000db6:	bf18      	it	ne
 8000db8:	4770      	bxne	lr
 8000dba:	f003 4600 	and.w	r6, r3, #2147483648	; 0x80000000
 8000dbe:	0052      	lsls	r2, r2, #1
 8000dc0:	eb43 0303 	adc.w	r3, r3, r3
 8000dc4:	f413 1f80 	tst.w	r3, #1048576	; 0x100000
 8000dc8:	bf08      	it	eq
 8000dca:	3d01      	subeq	r5, #1
 8000dcc:	d0f7      	beq.n	8000dbe <__aeabi_dmul+0x1c6>
 8000dce:	ea43 0306 	orr.w	r3, r3, r6
 8000dd2:	4770      	bx	lr
 8000dd4:	ea94 0f0c 	teq	r4, ip
 8000dd8:	ea0c 5513 	and.w	r5, ip, r3, lsr #20
 8000ddc:	bf18      	it	ne
 8000dde:	ea95 0f0c 	teqne	r5, ip
 8000de2:	d00c      	beq.n	8000dfe <__aeabi_dmul+0x206>
 8000de4:	ea50 0641 	orrs.w	r6, r0, r1, lsl #1
 8000de8:	bf18      	it	ne
 8000dea:	ea52 0643 	orrsne.w	r6, r2, r3, lsl #1
 8000dee:	d1d1      	bne.n	8000d94 <__aeabi_dmul+0x19c>
 8000df0:	ea81 0103 	eor.w	r1, r1, r3
 8000df4:	f001 4100 	and.w	r1, r1, #2147483648	; 0x80000000
 8000df8:	f04f 0000 	mov.w	r0, #0
 8000dfc:	bd70      	pop	{r4, r5, r6, pc}
 8000dfe:	ea50 0641 	orrs.w	r6, r0, r1, lsl #1
 8000e02:	bf06      	itte	eq
 8000e04:	4610      	moveq	r0, r2
 8000e06:	4619      	moveq	r1, r3
 8000e08:	ea52 0643 	orrsne.w	r6, r2, r3, lsl #1
 8000e0c:	d019      	beq.n	8000e42 <__aeabi_dmul+0x24a>
 8000e0e:	ea94 0f0c 	teq	r4, ip
 8000e12:	d102      	bne.n	8000e1a <__aeabi_dmul+0x222>
 8000e14:	ea50 3601 	orrs.w	r6, r0, r1, lsl #12
 8000e18:	d113      	bne.n	8000e42 <__aeabi_dmul+0x24a>
 8000e1a:	ea95 0f0c 	teq	r5, ip
 8000e1e:	d105      	bne.n	8000e2c <__aeabi_dmul+0x234>
 8000e20:	ea52 3603 	orrs.w	r6, r2, r3, lsl #12
 8000e24:	bf1c      	itt	ne
 8000e26:	4610      	movne	r0, r2
 8000e28:	4619      	movne	r1, r3
 8000e2a:	d10a      	bne.n	8000e42 <__aeabi_dmul+0x24a>
 8000e2c:	ea81 0103 	eor.w	r1, r1, r3
 8000e30:	f001 4100 	and.w	r1, r1, #2147483648	; 0x80000000
 8000e34:	f041 41fe 	orr.w	r1, r1, #2130706432	; 0x7f000000
 8000e38:	f441 0170 	orr.w	r1, r1, #15728640	; 0xf00000
 8000e3c:	f04f 0000 	mov.w	r0, #0
 8000e40:	bd70      	pop	{r4, r5, r6, pc}
 8000e42:	f041 41fe 	orr.w	r1, r1, #2130706432	; 0x7f000000
 8000e46:	f441 0178 	orr.w	r1, r1, #16252928	; 0xf80000
 8000e4a:	bd70      	pop	{r4, r5, r6, pc}

08000e4c <__aeabi_ddiv>:
 8000e4c:	b570      	push	{r4, r5, r6, lr}
 8000e4e:	f04f 0cff 	mov.w	ip, #255	; 0xff
 8000e52:	f44c 6ce0 	orr.w	ip, ip, #1792	; 0x700
 8000e56:	ea1c 5411 	ands.w	r4, ip, r1, lsr #20
 8000e5a:	bf1d      	ittte	ne
 8000e5c:	ea1c 5513 	andsne.w	r5, ip, r3, lsr #20
 8000e60:	ea94 0f0c 	teqne	r4, ip
 8000e64:	ea95 0f0c 	teqne	r5, ip
 8000e68:	f000 f8a7 	bleq	8000fba <__aeabi_ddiv+0x16e>
 8000e6c:	eba4 0405 	sub.w	r4, r4, r5
 8000e70:	ea81 0e03 	eor.w	lr, r1, r3
 8000e74:	ea52 3503 	orrs.w	r5, r2, r3, lsl #12
 8000e78:	ea4f 3101 	mov.w	r1, r1, lsl #12
 8000e7c:	f000 8088 	beq.w	8000f90 <__aeabi_ddiv+0x144>
 8000e80:	ea4f 3303 	mov.w	r3, r3, lsl #12
 8000e84:	f04f 5580 	mov.w	r5, #268435456	; 0x10000000
 8000e88:	ea45 1313 	orr.w	r3, r5, r3, lsr #4
 8000e8c:	ea43 6312 	orr.w	r3, r3, r2, lsr #24
 8000e90:	ea4f 2202 	mov.w	r2, r2, lsl #8
 8000e94:	ea45 1511 	orr.w	r5, r5, r1, lsr #4
 8000e98:	ea45 6510 	orr.w	r5, r5, r0, lsr #24
 8000e9c:	ea4f 2600 	mov.w	r6, r0, lsl #8
 8000ea0:	f00e 4100 	and.w	r1, lr, #2147483648	; 0x80000000
 8000ea4:	429d      	cmp	r5, r3
 8000ea6:	bf08      	it	eq
 8000ea8:	4296      	cmpeq	r6, r2
 8000eaa:	f144 04fd 	adc.w	r4, r4, #253	; 0xfd
 8000eae:	f504 7440 	add.w	r4, r4, #768	; 0x300
 8000eb2:	d202      	bcs.n	8000eba <__aeabi_ddiv+0x6e>
 8000eb4:	085b      	lsrs	r3, r3, #1
 8000eb6:	ea4f 0232 	mov.w	r2, r2, rrx
 8000eba:	1ab6      	subs	r6, r6, r2
 8000ebc:	eb65 0503 	sbc.w	r5, r5, r3
 8000ec0:	085b      	lsrs	r3, r3, #1
 8000ec2:	ea4f 0232 	mov.w	r2, r2, rrx
 8000ec6:	f44f 1080 	mov.w	r0, #1048576	; 0x100000
 8000eca:	f44f 2c00 	mov.w	ip, #524288	; 0x80000
 8000ece:	ebb6 0e02 	subs.w	lr, r6, r2
 8000ed2:	eb75 0e03 	sbcs.w	lr, r5, r3
 8000ed6:	bf22      	ittt	cs
 8000ed8:	1ab6      	subcs	r6, r6, r2
 8000eda:	4675      	movcs	r5, lr
 8000edc:	ea40 000c 	orrcs.w	r0, r0, ip
 8000ee0:	085b      	lsrs	r3, r3, #1
 8000ee2:	ea4f 0232 	mov.w	r2, r2, rrx
 8000ee6:	ebb6 0e02 	subs.w	lr, r6, r2
 8000eea:	eb75 0e03 	sbcs.w	lr, r5, r3
 8000eee:	bf22      	ittt	cs
 8000ef0:	1ab6      	subcs	r6, r6, r2
 8000ef2:	4675      	movcs	r5, lr
 8000ef4:	ea40 005c 	orrcs.w	r0, r0, ip, lsr #1
 8000ef8:	085b      	lsrs	r3, r3, #1
 8000efa:	ea4f 0232 	mov.w	r2, r2, rrx
 8000efe:	ebb6 0e02 	subs.w	lr, r6, r2
 8000f02:	eb75 0e03 	sbcs.w	lr, r5, r3
 8000f06:	bf22      	ittt	cs
 8000f08:	1ab6      	subcs	r6, r6, r2
 8000f0a:	4675      	movcs	r5, lr
 8000f0c:	ea40 009c 	orrcs.w	r0, r0, ip, lsr #2
 8000f10:	085b      	lsrs	r3, r3, #1
 8000f12:	ea4f 0232 	mov.w	r2, r2, rrx
 8000f16:	ebb6 0e02 	subs.w	lr, r6, r2
 8000f1a:	eb75 0e03 	sbcs.w	lr, r5, r3
 8000f1e:	bf22      	ittt	cs
 8000f20:	1ab6      	subcs	r6, r6, r2
 8000f22:	4675      	movcs	r5, lr
 8000f24:	ea40 00dc 	orrcs.w	r0, r0, ip, lsr #3
 8000f28:	ea55 0e06 	orrs.w	lr, r5, r6
 8000f2c:	d018      	beq.n	8000f60 <__aeabi_ddiv+0x114>
 8000f2e:	ea4f 1505 	mov.w	r5, r5, lsl #4
 8000f32:	ea45 7516 	orr.w	r5, r5, r6, lsr #28
 8000f36:	ea4f 1606 	mov.w	r6, r6, lsl #4
 8000f3a:	ea4f 03c3 	mov.w	r3, r3, lsl #3
 8000f3e:	ea43 7352 	orr.w	r3, r3, r2, lsr #29
 8000f42:	ea4f 02c2 	mov.w	r2, r2, lsl #3
 8000f46:	ea5f 1c1c 	movs.w	ip, ip, lsr #4
 8000f4a:	d1c0      	bne.n	8000ece <__aeabi_ddiv+0x82>
 8000f4c:	f411 1f80 	tst.w	r1, #1048576	; 0x100000
 8000f50:	d10b      	bne.n	8000f6a <__aeabi_ddiv+0x11e>
 8000f52:	ea41 0100 	orr.w	r1, r1, r0
 8000f56:	f04f 0000 	mov.w	r0, #0
 8000f5a:	f04f 4c00 	mov.w	ip, #2147483648	; 0x80000000
 8000f5e:	e7b6      	b.n	8000ece <__aeabi_ddiv+0x82>
 8000f60:	f411 1f80 	tst.w	r1, #1048576	; 0x100000
 8000f64:	bf04      	itt	eq
 8000f66:	4301      	orreq	r1, r0
 8000f68:	2000      	moveq	r0, #0
 8000f6a:	f1b4 0cfd 	subs.w	ip, r4, #253	; 0xfd
 8000f6e:	bf88      	it	hi
 8000f70:	f5bc 6fe0 	cmphi.w	ip, #1792	; 0x700
 8000f74:	f63f aeaf 	bhi.w	8000cd6 <__aeabi_dmul+0xde>
 8000f78:	ebb5 0c03 	subs.w	ip, r5, r3
 8000f7c:	bf04      	itt	eq
 8000f7e:	ebb6 0c02 	subseq.w	ip, r6, r2
 8000f82:	ea5f 0c50 	movseq.w	ip, r0, lsr #1
 8000f86:	f150 0000 	adcs.w	r0, r0, #0
 8000f8a:	eb41 5104 	adc.w	r1, r1, r4, lsl #20
 8000f8e:	bd70      	pop	{r4, r5, r6, pc}
 8000f90:	f00e 4e00 	and.w	lr, lr, #2147483648	; 0x80000000
 8000f94:	ea4e 3111 	orr.w	r1, lr, r1, lsr #12
 8000f98:	eb14 045c 	adds.w	r4, r4, ip, lsr #1
 8000f9c:	bfc2      	ittt	gt
 8000f9e:	ebd4 050c 	rsbsgt	r5, r4, ip
 8000fa2:	ea41 5104 	orrgt.w	r1, r1, r4, lsl #20
 8000fa6:	bd70      	popgt	{r4, r5, r6, pc}
 8000fa8:	f441 1180 	orr.w	r1, r1, #1048576	; 0x100000
 8000fac:	f04f 0e00 	mov.w	lr, #0
 8000fb0:	3c01      	subs	r4, #1
 8000fb2:	e690      	b.n	8000cd6 <__aeabi_dmul+0xde>
 8000fb4:	ea45 0e06 	orr.w	lr, r5, r6
 8000fb8:	e68d      	b.n	8000cd6 <__aeabi_dmul+0xde>
 8000fba:	ea0c 5513 	and.w	r5, ip, r3, lsr #20
 8000fbe:	ea94 0f0c 	teq	r4, ip
 8000fc2:	bf08      	it	eq
 8000fc4:	ea95 0f0c 	teqeq	r5, ip
 8000fc8:	f43f af3b 	beq.w	8000e42 <__aeabi_dmul+0x24a>
 8000fcc:	ea94 0f0c 	teq	r4, ip
 8000fd0:	d10a      	bne.n	8000fe8 <__aeabi_ddiv+0x19c>
 8000fd2:	ea50 3401 	orrs.w	r4, r0, r1, lsl #12
 8000fd6:	f47f af34 	bne.w	8000e42 <__aeabi_dmul+0x24a>
 8000fda:	ea95 0f0c 	teq	r5, ip
 8000fde:	f47f af25 	bne.w	8000e2c <__aeabi_dmul+0x234>
 8000fe2:	4610      	mov	r0, r2
 8000fe4:	4619      	mov	r1, r3
 8000fe6:	e72c      	b.n	8000e42 <__aeabi_dmul+0x24a>
 8000fe8:	ea95 0f0c 	teq	r5, ip
 8000fec:	d106      	bne.n	8000ffc <__aeabi_ddiv+0x1b0>
 8000fee:	ea52 3503 	orrs.w	r5, r2, r3, lsl #12
 8000ff2:	f43f aefd 	beq.w	8000df0 <__aeabi_dmul+0x1f8>
 8000ff6:	4610      	mov	r0, r2
 8000ff8:	4619      	mov	r1, r3
 8000ffa:	e722      	b.n	8000e42 <__aeabi_dmul+0x24a>
 8000ffc:	ea50 0641 	orrs.w	r6, r0, r1, lsl #1
 8001000:	bf18      	it	ne
 8001002:	ea52 0643 	orrsne.w	r6, r2, r3, lsl #1
 8001006:	f47f aec5 	bne.w	8000d94 <__aeabi_dmul+0x19c>
 800100a:	ea50 0441 	orrs.w	r4, r0, r1, lsl #1
 800100e:	f47f af0d 	bne.w	8000e2c <__aeabi_dmul+0x234>
 8001012:	ea52 0543 	orrs.w	r5, r2, r3, lsl #1
 8001016:	f47f aeeb 	bne.w	8000df0 <__aeabi_dmul+0x1f8>
 800101a:	e712      	b.n	8000e42 <__aeabi_dmul+0x24a>

0800101c <__gedf2>:
 800101c:	f04f 3cff 	mov.w	ip, #4294967295	; 0xffffffff
 8001020:	e006      	b.n	8001030 <__cmpdf2+0x4>
 8001022:	bf00      	nop

08001024 <__ledf2>:
 8001024:	f04f 0c01 	mov.w	ip, #1
 8001028:	e002      	b.n	8001030 <__cmpdf2+0x4>
 800102a:	bf00      	nop

0800102c <__cmpdf2>:
 800102c:	f04f 0c01 	mov.w	ip, #1
 8001030:	f84d cd04 	str.w	ip, [sp, #-4]!
 8001034:	ea4f 0c41 	mov.w	ip, r1, lsl #1
 8001038:	ea7f 5c6c 	mvns.w	ip, ip, asr #21
 800103c:	ea4f 0c43 	mov.w	ip, r3, lsl #1
 8001040:	bf18      	it	ne
 8001042:	ea7f 5c6c 	mvnsne.w	ip, ip, asr #21
 8001046:	d01b      	beq.n	8001080 <__cmpdf2+0x54>
 8001048:	b001      	add	sp, #4
 800104a:	ea50 0c41 	orrs.w	ip, r0, r1, lsl #1
 800104e:	bf0c      	ite	eq
 8001050:	ea52 0c43 	orrseq.w	ip, r2, r3, lsl #1
 8001054:	ea91 0f03 	teqne	r1, r3
 8001058:	bf02      	ittt	eq
 800105a:	ea90 0f02 	teqeq	r0, r2
 800105e:	2000      	moveq	r0, #0
 8001060:	4770      	bxeq	lr
 8001062:	f110 0f00 	cmn.w	r0, #0
 8001066:	ea91 0f03 	teq	r1, r3
 800106a:	bf58      	it	pl
 800106c:	4299      	cmppl	r1, r3
 800106e:	bf08      	it	eq
 8001070:	4290      	cmpeq	r0, r2
 8001072:	bf2c      	ite	cs
 8001074:	17d8      	asrcs	r0, r3, #31
 8001076:	ea6f 70e3 	mvncc.w	r0, r3, asr #31
 800107a:	f040 0001 	orr.w	r0, r0, #1
 800107e:	4770      	bx	lr
 8001080:	ea4f 0c41 	mov.w	ip, r1, lsl #1
 8001084:	ea7f 5c6c 	mvns.w	ip, ip, asr #21
 8001088:	d102      	bne.n	8001090 <__cmpdf2+0x64>
 800108a:	ea50 3c01 	orrs.w	ip, r0, r1, lsl #12
 800108e:	d107      	bne.n	80010a0 <__cmpdf2+0x74>
 8001090:	ea4f 0c43 	mov.w	ip, r3, lsl #1
 8001094:	ea7f 5c6c 	mvns.w	ip, ip, asr #21
 8001098:	d1d6      	bne.n	8001048 <__cmpdf2+0x1c>
 800109a:	ea52 3c03 	orrs.w	ip, r2, r3, lsl #12
 800109e:	d0d3      	beq.n	8001048 <__cmpdf2+0x1c>
 80010a0:	f85d 0b04 	ldr.w	r0, [sp], #4
 80010a4:	4770      	bx	lr
 80010a6:	bf00      	nop

080010a8 <__aeabi_cdrcmple>:
 80010a8:	4684      	mov	ip, r0
 80010aa:	4610      	mov	r0, r2
 80010ac:	4662      	mov	r2, ip
 80010ae:	468c      	mov	ip, r1
 80010b0:	4619      	mov	r1, r3
 80010b2:	4663      	mov	r3, ip
 80010b4:	e000      	b.n	80010b8 <__aeabi_cdcmpeq>
 80010b6:	bf00      	nop

080010b8 <__aeabi_cdcmpeq>:
 80010b8:	b501      	push	{r0, lr}
 80010ba:	f7ff ffb7 	bl	800102c <__cmpdf2>
 80010be:	2800      	cmp	r0, #0
 80010c0:	bf48      	it	mi
 80010c2:	f110 0f00 	cmnmi.w	r0, #0
 80010c6:	bd01      	pop	{r0, pc}

080010c8 <__aeabi_dcmpeq>:
 80010c8:	f84d ed08 	str.w	lr, [sp, #-8]!
 80010cc:	f7ff fff4 	bl	80010b8 <__aeabi_cdcmpeq>
 80010d0:	bf0c      	ite	eq
 80010d2:	2001      	moveq	r0, #1
 80010d4:	2000      	movne	r0, #0
 80010d6:	f85d fb08 	ldr.w	pc, [sp], #8
 80010da:	bf00      	nop

080010dc <__aeabi_dcmplt>:
 80010dc:	f84d ed08 	str.w	lr, [sp, #-8]!
 80010e0:	f7ff ffea 	bl	80010b8 <__aeabi_cdcmpeq>
 80010e4:	bf34      	ite	cc
 80010e6:	2001      	movcc	r0, #1
 80010e8:	2000      	movcs	r0, #0
 80010ea:	f85d fb08 	ldr.w	pc, [sp], #8
 80010ee:	bf00      	nop

080010f0 <__aeabi_dcmple>:
 80010f0:	f84d ed08 	str.w	lr, [sp, #-8]!
 80010f4:	f7ff ffe0 	bl	80010b8 <__aeabi_cdcmpeq>
 80010f8:	bf94      	ite	ls
 80010fa:	2001      	movls	r0, #1
 80010fc:	2000      	movhi	r0, #0
 80010fe:	f85d fb08 	ldr.w	pc, [sp], #8
 8001102:	bf00      	nop

08001104 <__aeabi_dcmpge>:
 8001104:	f84d ed08 	str.w	lr, [sp, #-8]!
 8001108:	f7ff ffce 	bl	80010a8 <__aeabi_cdrcmple>
 800110c:	bf94      	ite	ls
 800110e:	2001      	movls	r0, #1
 8001110:	2000      	movhi	r0, #0
 8001112:	f85d fb08 	ldr.w	pc, [sp], #8
 8001116:	bf00      	nop

08001118 <__aeabi_dcmpgt>:
 8001118:	f84d ed08 	str.w	lr, [sp, #-8]!
 800111c:	f7ff ffc4 	bl	80010a8 <__aeabi_cdrcmple>
 8001120:	bf34      	ite	cc
 8001122:	2001      	movcc	r0, #1
 8001124:	2000      	movcs	r0, #0
 8001126:	f85d fb08 	ldr.w	pc, [sp], #8
 800112a:	bf00      	nop

0800112c <__aeabi_dcmpun>:
 800112c:	ea4f 0c41 	mov.w	ip, r1, lsl #1
 8001130:	ea7f 5c6c 	mvns.w	ip, ip, asr #21
 8001134:	d102      	bne.n	800113c <__aeabi_dcmpun+0x10>
 8001136:	ea50 3c01 	orrs.w	ip, r0, r1, lsl #12
 800113a:	d10a      	bne.n	8001152 <__aeabi_dcmpun+0x26>
 800113c:	ea4f 0c43 	mov.w	ip, r3, lsl #1
 8001140:	ea7f 5c6c 	mvns.w	ip, ip, asr #21
 8001144:	d102      	bne.n	800114c <__aeabi_dcmpun+0x20>
 8001146:	ea52 3c03 	orrs.w	ip, r2, r3, lsl #12
 800114a:	d102      	bne.n	8001152 <__aeabi_dcmpun+0x26>
 800114c:	f04f 0000 	mov.w	r0, #0
 8001150:	4770      	bx	lr
 8001152:	f04f 0001 	mov.w	r0, #1
 8001156:	4770      	bx	lr

08001158 <__aeabi_d2iz>:
 8001158:	ea4f 0241 	mov.w	r2, r1, lsl #1
 800115c:	f512 1200 	adds.w	r2, r2, #2097152	; 0x200000
 8001160:	d215      	bcs.n	800118e <__aeabi_d2iz+0x36>
 8001162:	d511      	bpl.n	8001188 <__aeabi_d2iz+0x30>
 8001164:	f46f 7378 	mvn.w	r3, #992	; 0x3e0
 8001168:	ebb3 5262 	subs.w	r2, r3, r2, asr #21
 800116c:	d912      	bls.n	8001194 <__aeabi_d2iz+0x3c>
 800116e:	ea4f 23c1 	mov.w	r3, r1, lsl #11
 8001172:	f043 4300 	orr.w	r3, r3, #2147483648	; 0x80000000
 8001176:	ea43 5350 	orr.w	r3, r3, r0, lsr #21
 800117a:	f011 4f00 	tst.w	r1, #2147483648	; 0x80000000
 800117e:	fa23 f002 	lsr.w	r0, r3, r2
 8001182:	bf18      	it	ne
 8001184:	4240      	negne	r0, r0
 8001186:	4770      	bx	lr
 8001188:	f04f 0000 	mov.w	r0, #0
 800118c:	4770      	bx	lr
 800118e:	ea50 3001 	orrs.w	r0, r0, r1, lsl #12
 8001192:	d105      	bne.n	80011a0 <__aeabi_d2iz+0x48>
 8001194:	f011 4000 	ands.w	r0, r1, #2147483648	; 0x80000000
 8001198:	bf08      	it	eq
 800119a:	f06f 4000 	mvneq.w	r0, #2147483648	; 0x80000000
 800119e:	4770      	bx	lr
 80011a0:	f04f 0000 	mov.w	r0, #0
 80011a4:	4770      	bx	lr
 80011a6:	bf00      	nop

080011a8 <HAL_IncTick>:
 80011a8:	f244 70ec 	movw	r0, #18412	; 0x47ec
 80011ac:	f2c2 0000 	movt	r0, #8192	; 0x2000
 80011b0:	6801      	ldr	r1, [r0, #0]
 80011b2:	3101      	adds	r1, #1
 80011b4:	6001      	str	r1, [r0, #0]
 80011b6:	4770      	bx	lr

080011b8 <HAL_GetTick>:
 80011b8:	f244 70ec 	movw	r0, #18412	; 0x47ec
 80011bc:	f2c2 0000 	movt	r0, #8192	; 0x2000
 80011c0:	6800      	ldr	r0, [r0, #0]
 80011c2:	4770      	bx	lr

080011c4 <HAL_SYSTICK_IRQHandler>:
 80011c4:	b580      	push	{r7, lr}
 80011c6:	466f      	mov	r7, sp
 80011c8:	f000 f801 	bl	80011ce <HAL_SYSTICK_Callback>
 80011cc:	bd80      	pop	{r7, pc}

080011ce <HAL_SYSTICK_Callback>:
 80011ce:	4770      	bx	lr

080011d0 <HAL_GPIO_Init>:
 80011d0:	b08f      	sub	sp, #60	; 0x3c
 80011d2:	460a      	mov	r2, r1
 80011d4:	4603      	mov	r3, r0
 80011d6:	900e      	str	r0, [sp, #56]	; 0x38
 80011d8:	910d      	str	r1, [sp, #52]	; 0x34
 80011da:	2000      	movs	r0, #0
 80011dc:	900c      	str	r0, [sp, #48]	; 0x30
 80011de:	9208      	str	r2, [sp, #32]
 80011e0:	9307      	str	r3, [sp, #28]
 80011e2:	e7ff      	b.n	80011e4 <HAL_GPIO_Init+0x14>
 80011e4:	980d      	ldr	r0, [sp, #52]	; 0x34
 80011e6:	6800      	ldr	r0, [r0, #0]
 80011e8:	990c      	ldr	r1, [sp, #48]	; 0x30
 80011ea:	40c8      	lsrs	r0, r1
 80011ec:	2800      	cmp	r0, #0
 80011ee:	f000 81dc 	beq.w	80015aa <HAL_GPIO_Init+0x3da>
 80011f2:	e7ff      	b.n	80011f4 <HAL_GPIO_Init+0x24>
 80011f4:	980d      	ldr	r0, [sp, #52]	; 0x34
 80011f6:	6800      	ldr	r0, [r0, #0]
 80011f8:	990c      	ldr	r1, [sp, #48]	; 0x30
 80011fa:	2201      	movs	r2, #1
 80011fc:	fa02 f101 	lsl.w	r1, r2, r1
 8001200:	4008      	ands	r0, r1
 8001202:	900b      	str	r0, [sp, #44]	; 0x2c
 8001204:	980b      	ldr	r0, [sp, #44]	; 0x2c
 8001206:	2800      	cmp	r0, #0
 8001208:	f000 81cb 	beq.w	80015a2 <HAL_GPIO_Init+0x3d2>
 800120c:	e7ff      	b.n	800120e <HAL_GPIO_Init+0x3e>
 800120e:	980d      	ldr	r0, [sp, #52]	; 0x34
 8001210:	6840      	ldr	r0, [r0, #4]
 8001212:	2802      	cmp	r0, #2
 8001214:	d005      	beq.n	8001222 <HAL_GPIO_Init+0x52>
 8001216:	e7ff      	b.n	8001218 <HAL_GPIO_Init+0x48>
 8001218:	980d      	ldr	r0, [sp, #52]	; 0x34
 800121a:	6840      	ldr	r0, [r0, #4]
 800121c:	2812      	cmp	r0, #18
 800121e:	d128      	bne.n	8001272 <HAL_GPIO_Init+0xa2>
 8001220:	e7ff      	b.n	8001222 <HAL_GPIO_Init+0x52>
 8001222:	980e      	ldr	r0, [sp, #56]	; 0x38
 8001224:	990c      	ldr	r1, [sp, #48]	; 0x30
 8001226:	f64f 72fc 	movw	r2, #65532	; 0xfffc
 800122a:	f6c7 72ff 	movt	r2, #32767	; 0x7fff
 800122e:	ea02 0151 	and.w	r1, r2, r1, lsr #1
 8001232:	4408      	add	r0, r1
 8001234:	6a00      	ldr	r0, [r0, #32]
 8001236:	900a      	str	r0, [sp, #40]	; 0x28
 8001238:	980c      	ldr	r0, [sp, #48]	; 0x30
 800123a:	f000 0007 	and.w	r0, r0, #7
 800123e:	0080      	lsls	r0, r0, #2
 8001240:	210f      	movs	r1, #15
 8001242:	fa01 f000 	lsl.w	r0, r1, r0
 8001246:	990a      	ldr	r1, [sp, #40]	; 0x28
 8001248:	ea21 0000 	bic.w	r0, r1, r0
 800124c:	900a      	str	r0, [sp, #40]	; 0x28
 800124e:	980d      	ldr	r0, [sp, #52]	; 0x34
 8001250:	6900      	ldr	r0, [r0, #16]
 8001252:	990c      	ldr	r1, [sp, #48]	; 0x30
 8001254:	f001 0107 	and.w	r1, r1, #7
 8001258:	0089      	lsls	r1, r1, #2
 800125a:	4088      	lsls	r0, r1
 800125c:	990a      	ldr	r1, [sp, #40]	; 0x28
 800125e:	4308      	orrs	r0, r1
 8001260:	900a      	str	r0, [sp, #40]	; 0x28
 8001262:	980a      	ldr	r0, [sp, #40]	; 0x28
 8001264:	990e      	ldr	r1, [sp, #56]	; 0x38
 8001266:	9b0c      	ldr	r3, [sp, #48]	; 0x30
 8001268:	ea02 0253 	and.w	r2, r2, r3, lsr #1
 800126c:	4411      	add	r1, r2
 800126e:	6208      	str	r0, [r1, #32]
 8001270:	e7ff      	b.n	8001272 <HAL_GPIO_Init+0xa2>
 8001272:	980e      	ldr	r0, [sp, #56]	; 0x38
 8001274:	6800      	ldr	r0, [r0, #0]
 8001276:	900a      	str	r0, [sp, #40]	; 0x28
 8001278:	980c      	ldr	r0, [sp, #48]	; 0x30
 800127a:	0040      	lsls	r0, r0, #1
 800127c:	2103      	movs	r1, #3
 800127e:	fa01 f000 	lsl.w	r0, r1, r0
 8001282:	990a      	ldr	r1, [sp, #40]	; 0x28
 8001284:	ea21 0000 	bic.w	r0, r1, r0
 8001288:	900a      	str	r0, [sp, #40]	; 0x28
 800128a:	980d      	ldr	r0, [sp, #52]	; 0x34
 800128c:	6840      	ldr	r0, [r0, #4]
 800128e:	f000 0003 	and.w	r0, r0, #3
 8001292:	990c      	ldr	r1, [sp, #48]	; 0x30
 8001294:	0049      	lsls	r1, r1, #1
 8001296:	4088      	lsls	r0, r1
 8001298:	990a      	ldr	r1, [sp, #40]	; 0x28
 800129a:	4308      	orrs	r0, r1
 800129c:	900a      	str	r0, [sp, #40]	; 0x28
 800129e:	980a      	ldr	r0, [sp, #40]	; 0x28
 80012a0:	990e      	ldr	r1, [sp, #56]	; 0x38
 80012a2:	6008      	str	r0, [r1, #0]
 80012a4:	980d      	ldr	r0, [sp, #52]	; 0x34
 80012a6:	6840      	ldr	r0, [r0, #4]
 80012a8:	2801      	cmp	r0, #1
 80012aa:	d00f      	beq.n	80012cc <HAL_GPIO_Init+0xfc>
 80012ac:	e7ff      	b.n	80012ae <HAL_GPIO_Init+0xde>
 80012ae:	980d      	ldr	r0, [sp, #52]	; 0x34
 80012b0:	6840      	ldr	r0, [r0, #4]
 80012b2:	2802      	cmp	r0, #2
 80012b4:	d00a      	beq.n	80012cc <HAL_GPIO_Init+0xfc>
 80012b6:	e7ff      	b.n	80012b8 <HAL_GPIO_Init+0xe8>
 80012b8:	980d      	ldr	r0, [sp, #52]	; 0x34
 80012ba:	6840      	ldr	r0, [r0, #4]
 80012bc:	2811      	cmp	r0, #17
 80012be:	d005      	beq.n	80012cc <HAL_GPIO_Init+0xfc>
 80012c0:	e7ff      	b.n	80012c2 <HAL_GPIO_Init+0xf2>
 80012c2:	980d      	ldr	r0, [sp, #52]	; 0x34
 80012c4:	6840      	ldr	r0, [r0, #4]
 80012c6:	2812      	cmp	r0, #18
 80012c8:	d12f      	bne.n	800132a <HAL_GPIO_Init+0x15a>
 80012ca:	e7ff      	b.n	80012cc <HAL_GPIO_Init+0xfc>
 80012cc:	980e      	ldr	r0, [sp, #56]	; 0x38
 80012ce:	6880      	ldr	r0, [r0, #8]
 80012d0:	900a      	str	r0, [sp, #40]	; 0x28
 80012d2:	980c      	ldr	r0, [sp, #48]	; 0x30
 80012d4:	0040      	lsls	r0, r0, #1
 80012d6:	2103      	movs	r1, #3
 80012d8:	fa01 f000 	lsl.w	r0, r1, r0
 80012dc:	990a      	ldr	r1, [sp, #40]	; 0x28
 80012de:	ea21 0000 	bic.w	r0, r1, r0
 80012e2:	900a      	str	r0, [sp, #40]	; 0x28
 80012e4:	980d      	ldr	r0, [sp, #52]	; 0x34
 80012e6:	68c0      	ldr	r0, [r0, #12]
 80012e8:	990c      	ldr	r1, [sp, #48]	; 0x30
 80012ea:	0049      	lsls	r1, r1, #1
 80012ec:	4088      	lsls	r0, r1
 80012ee:	990a      	ldr	r1, [sp, #40]	; 0x28
 80012f0:	4308      	orrs	r0, r1
 80012f2:	900a      	str	r0, [sp, #40]	; 0x28
 80012f4:	980a      	ldr	r0, [sp, #40]	; 0x28
 80012f6:	990e      	ldr	r1, [sp, #56]	; 0x38
 80012f8:	6088      	str	r0, [r1, #8]
 80012fa:	980e      	ldr	r0, [sp, #56]	; 0x38
 80012fc:	6840      	ldr	r0, [r0, #4]
 80012fe:	900a      	str	r0, [sp, #40]	; 0x28
 8001300:	980c      	ldr	r0, [sp, #48]	; 0x30
 8001302:	2101      	movs	r1, #1
 8001304:	fa01 f000 	lsl.w	r0, r1, r0
 8001308:	990a      	ldr	r1, [sp, #40]	; 0x28
 800130a:	ea21 0000 	bic.w	r0, r1, r0
 800130e:	900a      	str	r0, [sp, #40]	; 0x28
 8001310:	980d      	ldr	r0, [sp, #52]	; 0x34
 8001312:	6840      	ldr	r0, [r0, #4]
 8001314:	f3c0 1000 	ubfx	r0, r0, #4, #1
 8001318:	990c      	ldr	r1, [sp, #48]	; 0x30
 800131a:	4088      	lsls	r0, r1
 800131c:	990a      	ldr	r1, [sp, #40]	; 0x28
 800131e:	4308      	orrs	r0, r1
 8001320:	900a      	str	r0, [sp, #40]	; 0x28
 8001322:	980a      	ldr	r0, [sp, #40]	; 0x28
 8001324:	990e      	ldr	r1, [sp, #56]	; 0x38
 8001326:	6048      	str	r0, [r1, #4]
 8001328:	e7ff      	b.n	800132a <HAL_GPIO_Init+0x15a>
 800132a:	980d      	ldr	r0, [sp, #52]	; 0x34
 800132c:	6840      	ldr	r0, [r0, #4]
 800132e:	f000 0003 	and.w	r0, r0, #3
 8001332:	2803      	cmp	r0, #3
 8001334:	d118      	bne.n	8001368 <HAL_GPIO_Init+0x198>
 8001336:	e7ff      	b.n	8001338 <HAL_GPIO_Init+0x168>
 8001338:	980e      	ldr	r0, [sp, #56]	; 0x38
 800133a:	6ac0      	ldr	r0, [r0, #44]	; 0x2c
 800133c:	900a      	str	r0, [sp, #40]	; 0x28
 800133e:	980c      	ldr	r0, [sp, #48]	; 0x30
 8001340:	2101      	movs	r1, #1
 8001342:	fa01 f000 	lsl.w	r0, r1, r0
 8001346:	990a      	ldr	r1, [sp, #40]	; 0x28
 8001348:	ea21 0000 	bic.w	r0, r1, r0
 800134c:	900a      	str	r0, [sp, #40]	; 0x28
 800134e:	980d      	ldr	r0, [sp, #52]	; 0x34
 8001350:	6840      	ldr	r0, [r0, #4]
 8001352:	f3c0 00c0 	ubfx	r0, r0, #3, #1
 8001356:	990c      	ldr	r1, [sp, #48]	; 0x30
 8001358:	4088      	lsls	r0, r1
 800135a:	990a      	ldr	r1, [sp, #40]	; 0x28
 800135c:	4308      	orrs	r0, r1
 800135e:	900a      	str	r0, [sp, #40]	; 0x28
 8001360:	980a      	ldr	r0, [sp, #40]	; 0x28
 8001362:	990e      	ldr	r1, [sp, #56]	; 0x38
 8001364:	62c8      	str	r0, [r1, #44]	; 0x2c
 8001366:	e7ff      	b.n	8001368 <HAL_GPIO_Init+0x198>
 8001368:	980e      	ldr	r0, [sp, #56]	; 0x38
 800136a:	68c0      	ldr	r0, [r0, #12]
 800136c:	900a      	str	r0, [sp, #40]	; 0x28
 800136e:	980c      	ldr	r0, [sp, #48]	; 0x30
 8001370:	0040      	lsls	r0, r0, #1
 8001372:	2103      	movs	r1, #3
 8001374:	fa01 f000 	lsl.w	r0, r1, r0
 8001378:	990a      	ldr	r1, [sp, #40]	; 0x28
 800137a:	ea21 0000 	bic.w	r0, r1, r0
 800137e:	900a      	str	r0, [sp, #40]	; 0x28
 8001380:	980d      	ldr	r0, [sp, #52]	; 0x34
 8001382:	6880      	ldr	r0, [r0, #8]
 8001384:	990c      	ldr	r1, [sp, #48]	; 0x30
 8001386:	0049      	lsls	r1, r1, #1
 8001388:	4088      	lsls	r0, r1
 800138a:	990a      	ldr	r1, [sp, #40]	; 0x28
 800138c:	4308      	orrs	r0, r1
 800138e:	900a      	str	r0, [sp, #40]	; 0x28
 8001390:	980a      	ldr	r0, [sp, #40]	; 0x28
 8001392:	990e      	ldr	r1, [sp, #56]	; 0x38
 8001394:	60c8      	str	r0, [r1, #12]
 8001396:	980d      	ldr	r0, [sp, #52]	; 0x34
 8001398:	6840      	ldr	r0, [r0, #4]
 800139a:	00c0      	lsls	r0, r0, #3
 800139c:	2800      	cmp	r0, #0
 800139e:	f140 80ff 	bpl.w	80015a0 <HAL_GPIO_Init+0x3d0>
 80013a2:	e7ff      	b.n	80013a4 <HAL_GPIO_Init+0x1d4>
 80013a4:	e7ff      	b.n	80013a6 <HAL_GPIO_Init+0x1d6>
 80013a6:	f241 0060 	movw	r0, #4192	; 0x1060
 80013aa:	f2c4 0002 	movt	r0, #16386	; 0x4002
 80013ae:	6801      	ldr	r1, [r0, #0]
 80013b0:	f041 0101 	orr.w	r1, r1, #1
 80013b4:	6001      	str	r1, [r0, #0]
 80013b6:	6800      	ldr	r0, [r0, #0]
 80013b8:	f000 0001 	and.w	r0, r0, #1
 80013bc:	9009      	str	r0, [sp, #36]	; 0x24
 80013be:	9809      	ldr	r0, [sp, #36]	; 0x24
 80013c0:	9006      	str	r0, [sp, #24]
 80013c2:	e7ff      	b.n	80013c4 <HAL_GPIO_Init+0x1f4>
 80013c4:	980c      	ldr	r0, [sp, #48]	; 0x30
 80013c6:	f020 0003 	bic.w	r0, r0, #3
 80013ca:	2108      	movs	r1, #8
 80013cc:	f2c4 0101 	movt	r1, #16385	; 0x4001
 80013d0:	5840      	ldr	r0, [r0, r1]
 80013d2:	900a      	str	r0, [sp, #40]	; 0x28
 80013d4:	980c      	ldr	r0, [sp, #48]	; 0x30
 80013d6:	f000 0003 	and.w	r0, r0, #3
 80013da:	0080      	lsls	r0, r0, #2
 80013dc:	210f      	movs	r1, #15
 80013de:	fa01 f000 	lsl.w	r0, r1, r0
 80013e2:	990a      	ldr	r1, [sp, #40]	; 0x28
 80013e4:	ea21 0000 	bic.w	r0, r1, r0
 80013e8:	900a      	str	r0, [sp, #40]	; 0x28
 80013ea:	980e      	ldr	r0, [sp, #56]	; 0x38
 80013ec:	f1b0 4f90 	cmp.w	r0, #1207959552	; 0x48000000
 80013f0:	d103      	bne.n	80013fa <HAL_GPIO_Init+0x22a>
 80013f2:	e7ff      	b.n	80013f4 <HAL_GPIO_Init+0x224>
 80013f4:	2000      	movs	r0, #0
 80013f6:	9005      	str	r0, [sp, #20]
 80013f8:	e050      	b.n	800149c <HAL_GPIO_Init+0x2cc>
 80013fa:	980e      	ldr	r0, [sp, #56]	; 0x38
 80013fc:	f240 4100 	movw	r1, #1024	; 0x400
 8001400:	f6c4 0100 	movt	r1, #18432	; 0x4800
 8001404:	4288      	cmp	r0, r1
 8001406:	d103      	bne.n	8001410 <HAL_GPIO_Init+0x240>
 8001408:	e7ff      	b.n	800140a <HAL_GPIO_Init+0x23a>
 800140a:	2001      	movs	r0, #1
 800140c:	9004      	str	r0, [sp, #16]
 800140e:	e042      	b.n	8001496 <HAL_GPIO_Init+0x2c6>
 8001410:	980e      	ldr	r0, [sp, #56]	; 0x38
 8001412:	f640 0100 	movw	r1, #2048	; 0x800
 8001416:	f6c4 0100 	movt	r1, #18432	; 0x4800
 800141a:	4288      	cmp	r0, r1
 800141c:	d103      	bne.n	8001426 <HAL_GPIO_Init+0x256>
 800141e:	e7ff      	b.n	8001420 <HAL_GPIO_Init+0x250>
 8001420:	2002      	movs	r0, #2
 8001422:	9003      	str	r0, [sp, #12]
 8001424:	e034      	b.n	8001490 <HAL_GPIO_Init+0x2c0>
 8001426:	980e      	ldr	r0, [sp, #56]	; 0x38
 8001428:	f640 4100 	movw	r1, #3072	; 0xc00
 800142c:	f6c4 0100 	movt	r1, #18432	; 0x4800
 8001430:	4288      	cmp	r0, r1
 8001432:	d103      	bne.n	800143c <HAL_GPIO_Init+0x26c>
 8001434:	e7ff      	b.n	8001436 <HAL_GPIO_Init+0x266>
 8001436:	2003      	movs	r0, #3
 8001438:	9002      	str	r0, [sp, #8]
 800143a:	e026      	b.n	800148a <HAL_GPIO_Init+0x2ba>
 800143c:	980e      	ldr	r0, [sp, #56]	; 0x38
 800143e:	f241 0100 	movw	r1, #4096	; 0x1000
 8001442:	f6c4 0100 	movt	r1, #18432	; 0x4800
 8001446:	4288      	cmp	r0, r1
 8001448:	d103      	bne.n	8001452 <HAL_GPIO_Init+0x282>
 800144a:	e7ff      	b.n	800144c <HAL_GPIO_Init+0x27c>
 800144c:	2004      	movs	r0, #4
 800144e:	9001      	str	r0, [sp, #4]
 8001450:	e018      	b.n	8001484 <HAL_GPIO_Init+0x2b4>
 8001452:	980e      	ldr	r0, [sp, #56]	; 0x38
 8001454:	f241 4100 	movw	r1, #5120	; 0x1400
 8001458:	f6c4 0100 	movt	r1, #18432	; 0x4800
 800145c:	4288      	cmp	r0, r1
 800145e:	d103      	bne.n	8001468 <HAL_GPIO_Init+0x298>
 8001460:	e7ff      	b.n	8001462 <HAL_GPIO_Init+0x292>
 8001462:	2005      	movs	r0, #5
 8001464:	9000      	str	r0, [sp, #0]
 8001466:	e00a      	b.n	800147e <HAL_GPIO_Init+0x2ae>
 8001468:	980e      	ldr	r0, [sp, #56]	; 0x38
 800146a:	f641 0100 	movw	r1, #6144	; 0x1800
 800146e:	f6c4 0100 	movt	r1, #18432	; 0x4800
 8001472:	2207      	movs	r2, #7
 8001474:	4288      	cmp	r0, r1
 8001476:	bf08      	it	eq
 8001478:	2206      	moveq	r2, #6
 800147a:	9200      	str	r2, [sp, #0]
 800147c:	e7ff      	b.n	800147e <HAL_GPIO_Init+0x2ae>
 800147e:	9800      	ldr	r0, [sp, #0]
 8001480:	9001      	str	r0, [sp, #4]
 8001482:	e7ff      	b.n	8001484 <HAL_GPIO_Init+0x2b4>
 8001484:	9801      	ldr	r0, [sp, #4]
 8001486:	9002      	str	r0, [sp, #8]
 8001488:	e7ff      	b.n	800148a <HAL_GPIO_Init+0x2ba>
 800148a:	9802      	ldr	r0, [sp, #8]
 800148c:	9003      	str	r0, [sp, #12]
 800148e:	e7ff      	b.n	8001490 <HAL_GPIO_Init+0x2c0>
 8001490:	9803      	ldr	r0, [sp, #12]
 8001492:	9004      	str	r0, [sp, #16]
 8001494:	e7ff      	b.n	8001496 <HAL_GPIO_Init+0x2c6>
 8001496:	9804      	ldr	r0, [sp, #16]
 8001498:	9005      	str	r0, [sp, #20]
 800149a:	e7ff      	b.n	800149c <HAL_GPIO_Init+0x2cc>
 800149c:	9805      	ldr	r0, [sp, #20]
 800149e:	990c      	ldr	r1, [sp, #48]	; 0x30
 80014a0:	f001 0103 	and.w	r1, r1, #3
 80014a4:	0089      	lsls	r1, r1, #2
 80014a6:	4088      	lsls	r0, r1
 80014a8:	990a      	ldr	r1, [sp, #40]	; 0x28
 80014aa:	4308      	orrs	r0, r1
 80014ac:	900a      	str	r0, [sp, #40]	; 0x28
 80014ae:	980a      	ldr	r0, [sp, #40]	; 0x28
 80014b0:	990c      	ldr	r1, [sp, #48]	; 0x30
 80014b2:	f021 0103 	bic.w	r1, r1, #3
 80014b6:	2208      	movs	r2, #8
 80014b8:	f2c4 0201 	movt	r2, #16385	; 0x4001
 80014bc:	5088      	str	r0, [r1, r2]
 80014be:	f240 4000 	movw	r0, #1024	; 0x400
 80014c2:	f2c4 0001 	movt	r0, #16385	; 0x4001
 80014c6:	6800      	ldr	r0, [r0, #0]
 80014c8:	900a      	str	r0, [sp, #40]	; 0x28
 80014ca:	980b      	ldr	r0, [sp, #44]	; 0x2c
 80014cc:	990a      	ldr	r1, [sp, #40]	; 0x28
 80014ce:	ea21 0000 	bic.w	r0, r1, r0
 80014d2:	900a      	str	r0, [sp, #40]	; 0x28
 80014d4:	980d      	ldr	r0, [sp, #52]	; 0x34
 80014d6:	6840      	ldr	r0, [r0, #4]
 80014d8:	03c0      	lsls	r0, r0, #15
 80014da:	2800      	cmp	r0, #0
 80014dc:	d505      	bpl.n	80014ea <HAL_GPIO_Init+0x31a>
 80014de:	e7ff      	b.n	80014e0 <HAL_GPIO_Init+0x310>
 80014e0:	980b      	ldr	r0, [sp, #44]	; 0x2c
 80014e2:	990a      	ldr	r1, [sp, #40]	; 0x28
 80014e4:	4308      	orrs	r0, r1
 80014e6:	900a      	str	r0, [sp, #40]	; 0x28
 80014e8:	e7ff      	b.n	80014ea <HAL_GPIO_Init+0x31a>
 80014ea:	980a      	ldr	r0, [sp, #40]	; 0x28
 80014ec:	f240 4100 	movw	r1, #1024	; 0x400
 80014f0:	f2c4 0101 	movt	r1, #16385	; 0x4001
 80014f4:	6008      	str	r0, [r1, #0]
 80014f6:	f240 4004 	movw	r0, #1028	; 0x404
 80014fa:	f2c4 0001 	movt	r0, #16385	; 0x4001
 80014fe:	6800      	ldr	r0, [r0, #0]
 8001500:	900a      	str	r0, [sp, #40]	; 0x28
 8001502:	980b      	ldr	r0, [sp, #44]	; 0x2c
 8001504:	990a      	ldr	r1, [sp, #40]	; 0x28
 8001506:	ea21 0000 	bic.w	r0, r1, r0
 800150a:	900a      	str	r0, [sp, #40]	; 0x28
 800150c:	980d      	ldr	r0, [sp, #52]	; 0x34
 800150e:	6840      	ldr	r0, [r0, #4]
 8001510:	0380      	lsls	r0, r0, #14
 8001512:	2800      	cmp	r0, #0
 8001514:	d505      	bpl.n	8001522 <HAL_GPIO_Init+0x352>
 8001516:	e7ff      	b.n	8001518 <HAL_GPIO_Init+0x348>
 8001518:	980b      	ldr	r0, [sp, #44]	; 0x2c
 800151a:	990a      	ldr	r1, [sp, #40]	; 0x28
 800151c:	4308      	orrs	r0, r1
 800151e:	900a      	str	r0, [sp, #40]	; 0x28
 8001520:	e7ff      	b.n	8001522 <HAL_GPIO_Init+0x352>
 8001522:	980a      	ldr	r0, [sp, #40]	; 0x28
 8001524:	f240 4104 	movw	r1, #1028	; 0x404
 8001528:	f2c4 0101 	movt	r1, #16385	; 0x4001
 800152c:	6008      	str	r0, [r1, #0]
 800152e:	f240 4008 	movw	r0, #1032	; 0x408
 8001532:	f2c4 0001 	movt	r0, #16385	; 0x4001
 8001536:	6800      	ldr	r0, [r0, #0]
 8001538:	900a      	str	r0, [sp, #40]	; 0x28
 800153a:	980b      	ldr	r0, [sp, #44]	; 0x2c
 800153c:	990a      	ldr	r1, [sp, #40]	; 0x28
 800153e:	ea21 0000 	bic.w	r0, r1, r0
 8001542:	900a      	str	r0, [sp, #40]	; 0x28
 8001544:	980d      	ldr	r0, [sp, #52]	; 0x34
 8001546:	6840      	ldr	r0, [r0, #4]
 8001548:	02c0      	lsls	r0, r0, #11
 800154a:	2800      	cmp	r0, #0
 800154c:	d505      	bpl.n	800155a <HAL_GPIO_Init+0x38a>
 800154e:	e7ff      	b.n	8001550 <HAL_GPIO_Init+0x380>
 8001550:	980b      	ldr	r0, [sp, #44]	; 0x2c
 8001552:	990a      	ldr	r1, [sp, #40]	; 0x28
 8001554:	4308      	orrs	r0, r1
 8001556:	900a      	str	r0, [sp, #40]	; 0x28
 8001558:	e7ff      	b.n	800155a <HAL_GPIO_Init+0x38a>
 800155a:	980a      	ldr	r0, [sp, #40]	; 0x28
 800155c:	f240 4108 	movw	r1, #1032	; 0x408
 8001560:	f2c4 0101 	movt	r1, #16385	; 0x4001
 8001564:	6008      	str	r0, [r1, #0]
 8001566:	f240 400c 	movw	r0, #1036	; 0x40c
 800156a:	f2c4 0001 	movt	r0, #16385	; 0x4001
 800156e:	6800      	ldr	r0, [r0, #0]
 8001570:	900a      	str	r0, [sp, #40]	; 0x28
 8001572:	980b      	ldr	r0, [sp, #44]	; 0x2c
 8001574:	990a      	ldr	r1, [sp, #40]	; 0x28
 8001576:	ea21 0000 	bic.w	r0, r1, r0
 800157a:	900a      	str	r0, [sp, #40]	; 0x28
 800157c:	980d      	ldr	r0, [sp, #52]	; 0x34
 800157e:	6840      	ldr	r0, [r0, #4]
 8001580:	0280      	lsls	r0, r0, #10
 8001582:	2800      	cmp	r0, #0
 8001584:	d505      	bpl.n	8001592 <HAL_GPIO_Init+0x3c2>
 8001586:	e7ff      	b.n	8001588 <HAL_GPIO_Init+0x3b8>
 8001588:	980b      	ldr	r0, [sp, #44]	; 0x2c
 800158a:	990a      	ldr	r1, [sp, #40]	; 0x28
 800158c:	4308      	orrs	r0, r1
 800158e:	900a      	str	r0, [sp, #40]	; 0x28
 8001590:	e7ff      	b.n	8001592 <HAL_GPIO_Init+0x3c2>
 8001592:	980a      	ldr	r0, [sp, #40]	; 0x28
 8001594:	f240 410c 	movw	r1, #1036	; 0x40c
 8001598:	f2c4 0101 	movt	r1, #16385	; 0x4001
 800159c:	6008      	str	r0, [r1, #0]
 800159e:	e7ff      	b.n	80015a0 <HAL_GPIO_Init+0x3d0>
 80015a0:	e7ff      	b.n	80015a2 <HAL_GPIO_Init+0x3d2>
 80015a2:	980c      	ldr	r0, [sp, #48]	; 0x30
 80015a4:	3001      	adds	r0, #1
 80015a6:	900c      	str	r0, [sp, #48]	; 0x30
 80015a8:	e61c      	b.n	80011e4 <HAL_GPIO_Init+0x14>
 80015aa:	b00f      	add	sp, #60	; 0x3c
 80015ac:	4770      	bx	lr

080015ae <HAL_RCC_GetSysClockFreq>:
 80015ae:	b089      	sub	sp, #36	; 0x24
 80015b0:	2000      	movs	r0, #0
 80015b2:	9008      	str	r0, [sp, #32]
 80015b4:	9007      	str	r0, [sp, #28]
 80015b6:	f241 0008 	movw	r0, #4104	; 0x1008
 80015ba:	f2c4 0002 	movt	r0, #16386	; 0x4002
 80015be:	6800      	ldr	r0, [r0, #0]
 80015c0:	f000 000c 	and.w	r0, r0, #12
 80015c4:	9002      	str	r0, [sp, #8]
 80015c6:	f241 000c 	movw	r0, #4108	; 0x100c
 80015ca:	f2c4 0002 	movt	r0, #16386	; 0x4002
 80015ce:	6800      	ldr	r0, [r0, #0]
 80015d0:	f000 0003 	and.w	r0, r0, #3
 80015d4:	9001      	str	r0, [sp, #4]
 80015d6:	9802      	ldr	r0, [sp, #8]
 80015d8:	2800      	cmp	r0, #0
 80015da:	d008      	beq.n	80015ee <HAL_RCC_GetSysClockFreq+0x40>
 80015dc:	e7ff      	b.n	80015de <HAL_RCC_GetSysClockFreq+0x30>
 80015de:	9802      	ldr	r0, [sp, #8]
 80015e0:	280c      	cmp	r0, #12
 80015e2:	d12f      	bne.n	8001644 <HAL_RCC_GetSysClockFreq+0x96>
 80015e4:	e7ff      	b.n	80015e6 <HAL_RCC_GetSysClockFreq+0x38>
 80015e6:	9801      	ldr	r0, [sp, #4]
 80015e8:	2801      	cmp	r0, #1
 80015ea:	d12b      	bne.n	8001644 <HAL_RCC_GetSysClockFreq+0x96>
 80015ec:	e7ff      	b.n	80015ee <HAL_RCC_GetSysClockFreq+0x40>
 80015ee:	f241 0000 	movw	r0, #4096	; 0x1000
 80015f2:	f2c4 0002 	movt	r0, #16386	; 0x4002
 80015f6:	6800      	ldr	r0, [r0, #0]
 80015f8:	f010 0f08 	tst.w	r0, #8
 80015fc:	d109      	bne.n	8001612 <HAL_RCC_GetSysClockFreq+0x64>
 80015fe:	e7ff      	b.n	8001600 <HAL_RCC_GetSysClockFreq+0x52>
 8001600:	f241 0094 	movw	r0, #4244	; 0x1094
 8001604:	f2c4 0002 	movt	r0, #16386	; 0x4002
 8001608:	6800      	ldr	r0, [r0, #0]
 800160a:	f3c0 2003 	ubfx	r0, r0, #8, #4
 800160e:	9008      	str	r0, [sp, #32]
 8001610:	e008      	b.n	8001624 <HAL_RCC_GetSysClockFreq+0x76>
 8001612:	f241 0000 	movw	r0, #4096	; 0x1000
 8001616:	f2c4 0002 	movt	r0, #16386	; 0x4002
 800161a:	6800      	ldr	r0, [r0, #0]
 800161c:	f3c0 1003 	ubfx	r0, r0, #4, #4
 8001620:	9008      	str	r0, [sp, #32]
 8001622:	e7ff      	b.n	8001624 <HAL_RCC_GetSysClockFreq+0x76>
 8001624:	9808      	ldr	r0, [sp, #32]
 8001626:	f648 21a8 	movw	r1, #35496	; 0x8aa8
 800162a:	f6c0 0100 	movt	r1, #2048	; 0x800
 800162e:	f851 0020 	ldr.w	r0, [r1, r0, lsl #2]
 8001632:	9008      	str	r0, [sp, #32]
 8001634:	9802      	ldr	r0, [sp, #8]
 8001636:	2800      	cmp	r0, #0
 8001638:	d103      	bne.n	8001642 <HAL_RCC_GetSysClockFreq+0x94>
 800163a:	e7ff      	b.n	800163c <HAL_RCC_GetSysClockFreq+0x8e>
 800163c:	9808      	ldr	r0, [sp, #32]
 800163e:	9007      	str	r0, [sp, #28]
 8001640:	e7ff      	b.n	8001642 <HAL_RCC_GetSysClockFreq+0x94>
 8001642:	e016      	b.n	8001672 <HAL_RCC_GetSysClockFreq+0xc4>
 8001644:	9802      	ldr	r0, [sp, #8]
 8001646:	2804      	cmp	r0, #4
 8001648:	d106      	bne.n	8001658 <HAL_RCC_GetSysClockFreq+0xaa>
 800164a:	e7ff      	b.n	800164c <HAL_RCC_GetSysClockFreq+0x9e>
 800164c:	f242 4000 	movw	r0, #9216	; 0x2400
 8001650:	f2c0 00f4 	movt	r0, #244	; 0xf4
 8001654:	9007      	str	r0, [sp, #28]
 8001656:	e00b      	b.n	8001670 <HAL_RCC_GetSysClockFreq+0xc2>
 8001658:	9802      	ldr	r0, [sp, #8]
 800165a:	2808      	cmp	r0, #8
 800165c:	d106      	bne.n	800166c <HAL_RCC_GetSysClockFreq+0xbe>
 800165e:	e7ff      	b.n	8001660 <HAL_RCC_GetSysClockFreq+0xb2>
 8001660:	f241 2000 	movw	r0, #4608	; 0x1200
 8001664:	f2c0 007a 	movt	r0, #122	; 0x7a
 8001668:	9007      	str	r0, [sp, #28]
 800166a:	e000      	b.n	800166e <HAL_RCC_GetSysClockFreq+0xc0>
 800166c:	e7ff      	b.n	800166e <HAL_RCC_GetSysClockFreq+0xc0>
 800166e:	e7ff      	b.n	8001670 <HAL_RCC_GetSysClockFreq+0xc2>
 8001670:	e7ff      	b.n	8001672 <HAL_RCC_GetSysClockFreq+0xc4>
 8001672:	9802      	ldr	r0, [sp, #8]
 8001674:	280c      	cmp	r0, #12
 8001676:	d15e      	bne.n	8001736 <HAL_RCC_GetSysClockFreq+0x188>
 8001678:	e7ff      	b.n	800167a <HAL_RCC_GetSysClockFreq+0xcc>
 800167a:	f241 000c 	movw	r0, #4108	; 0x100c
 800167e:	f2c4 0002 	movt	r0, #16386	; 0x4002
 8001682:	6801      	ldr	r1, [r0, #0]
 8001684:	f001 0103 	and.w	r1, r1, #3
 8001688:	9105      	str	r1, [sp, #20]
 800168a:	6800      	ldr	r0, [r0, #0]
 800168c:	f000 0070 	and.w	r0, r0, #112	; 0x70
 8001690:	2101      	movs	r1, #1
 8001692:	eb01 1010 	add.w	r0, r1, r0, lsr #4
 8001696:	9003      	str	r0, [sp, #12]
 8001698:	9805      	ldr	r0, [sp, #20]
 800169a:	2801      	cmp	r0, #1
 800169c:	9000      	str	r0, [sp, #0]
 800169e:	d02a      	beq.n	80016f6 <HAL_RCC_GetSysClockFreq+0x148>
 80016a0:	e7ff      	b.n	80016a2 <HAL_RCC_GetSysClockFreq+0xf4>
 80016a2:	9800      	ldr	r0, [sp, #0]
 80016a4:	2802      	cmp	r0, #2
 80016a6:	d004      	beq.n	80016b2 <HAL_RCC_GetSysClockFreq+0x104>
 80016a8:	e7ff      	b.n	80016aa <HAL_RCC_GetSysClockFreq+0xfc>
 80016aa:	9800      	ldr	r0, [sp, #0]
 80016ac:	2803      	cmp	r0, #3
 80016ae:	d011      	beq.n	80016d4 <HAL_RCC_GetSysClockFreq+0x126>
 80016b0:	e022      	b.n	80016f8 <HAL_RCC_GetSysClockFreq+0x14a>
 80016b2:	9803      	ldr	r0, [sp, #12]
 80016b4:	f242 4100 	movw	r1, #9216	; 0x2400
 80016b8:	f2c0 01f4 	movt	r1, #244	; 0xf4
 80016bc:	fbb1 f0f0 	udiv	r0, r1, r0
 80016c0:	f241 010c 	movw	r1, #4108	; 0x100c
 80016c4:	f2c4 0102 	movt	r1, #16386	; 0x4002
 80016c8:	6809      	ldr	r1, [r1, #0]
 80016ca:	f3c1 2106 	ubfx	r1, r1, #8, #7
 80016ce:	4348      	muls	r0, r1
 80016d0:	9006      	str	r0, [sp, #24]
 80016d2:	e01f      	b.n	8001714 <HAL_RCC_GetSysClockFreq+0x166>
 80016d4:	9803      	ldr	r0, [sp, #12]
 80016d6:	f241 2100 	movw	r1, #4608	; 0x1200
 80016da:	f2c0 017a 	movt	r1, #122	; 0x7a
 80016de:	fbb1 f0f0 	udiv	r0, r1, r0
 80016e2:	f241 010c 	movw	r1, #4108	; 0x100c
 80016e6:	f2c4 0102 	movt	r1, #16386	; 0x4002
 80016ea:	6809      	ldr	r1, [r1, #0]
 80016ec:	f3c1 2106 	ubfx	r1, r1, #8, #7
 80016f0:	4348      	muls	r0, r1
 80016f2:	9006      	str	r0, [sp, #24]
 80016f4:	e00e      	b.n	8001714 <HAL_RCC_GetSysClockFreq+0x166>
 80016f6:	e7ff      	b.n	80016f8 <HAL_RCC_GetSysClockFreq+0x14a>
 80016f8:	9808      	ldr	r0, [sp, #32]
 80016fa:	9903      	ldr	r1, [sp, #12]
 80016fc:	fbb0 f0f1 	udiv	r0, r0, r1
 8001700:	f241 010c 	movw	r1, #4108	; 0x100c
 8001704:	f2c4 0102 	movt	r1, #16386	; 0x4002
 8001708:	6809      	ldr	r1, [r1, #0]
 800170a:	f3c1 2106 	ubfx	r1, r1, #8, #7
 800170e:	4348      	muls	r0, r1
 8001710:	9006      	str	r0, [sp, #24]
 8001712:	e7ff      	b.n	8001714 <HAL_RCC_GetSysClockFreq+0x166>
 8001714:	f241 000c 	movw	r0, #4108	; 0x100c
 8001718:	f2c4 0002 	movt	r0, #16386	; 0x4002
 800171c:	6800      	ldr	r0, [r0, #0]
 800171e:	f000 60c0 	and.w	r0, r0, #100663296	; 0x6000000
 8001722:	2102      	movs	r1, #2
 8001724:	eb01 6010 	add.w	r0, r1, r0, lsr #24
 8001728:	9004      	str	r0, [sp, #16]
 800172a:	9806      	ldr	r0, [sp, #24]
 800172c:	9904      	ldr	r1, [sp, #16]
 800172e:	fbb0 f0f1 	udiv	r0, r0, r1
 8001732:	9007      	str	r0, [sp, #28]
 8001734:	e7ff      	b.n	8001736 <HAL_RCC_GetSysClockFreq+0x188>
 8001736:	9807      	ldr	r0, [sp, #28]
 8001738:	b009      	add	sp, #36	; 0x24
 800173a:	4770      	bx	lr

0800173c <HAL_RCC_GetHCLKFreq>:
 800173c:	f240 0018 	movw	r0, #24
 8001740:	f2c2 0000 	movt	r0, #8192	; 0x2000
 8001744:	6800      	ldr	r0, [r0, #0]
 8001746:	4770      	bx	lr

08001748 <HAL_RCC_GetPCLK1Freq>:
 8001748:	b580      	push	{r7, lr}
 800174a:	466f      	mov	r7, sp
 800174c:	f7ff fff6 	bl	800173c <HAL_RCC_GetHCLKFreq>
 8001750:	f241 0e08 	movw	lr, #4104	; 0x1008
 8001754:	f2c4 0e02 	movt	lr, #16386	; 0x4002
 8001758:	f8de e000 	ldr.w	lr, [lr]
 800175c:	f3ce 2e02 	ubfx	lr, lr, #8, #3
 8001760:	f648 21a0 	movw	r1, #35488	; 0x8aa0
 8001764:	f6c0 0100 	movt	r1, #2048	; 0x800
 8001768:	f811 100e 	ldrb.w	r1, [r1, lr]
 800176c:	f001 011f 	and.w	r1, r1, #31
 8001770:	40c8      	lsrs	r0, r1
 8001772:	bd80      	pop	{r7, pc}

08001774 <HAL_RCC_GetPCLK2Freq>:
 8001774:	b580      	push	{r7, lr}
 8001776:	466f      	mov	r7, sp
 8001778:	f7ff ffe0 	bl	800173c <HAL_RCC_GetHCLKFreq>
 800177c:	f241 0e08 	movw	lr, #4104	; 0x1008
 8001780:	f2c4 0e02 	movt	lr, #16386	; 0x4002
 8001784:	f8de e000 	ldr.w	lr, [lr]
 8001788:	f3ce 2ec2 	ubfx	lr, lr, #11, #3
 800178c:	f648 21a0 	movw	r1, #35488	; 0x8aa0
 8001790:	f6c0 0100 	movt	r1, #2048	; 0x800
 8001794:	f811 100e 	ldrb.w	r1, [r1, lr]
 8001798:	f001 011f 	and.w	r1, r1, #31
 800179c:	40c8      	lsrs	r0, r1
 800179e:	bd80      	pop	{r7, pc}

080017a0 <HAL_TIM_IRQHandler>:
 80017a0:	b580      	push	{r7, lr}
 80017a2:	466f      	mov	r7, sp
 80017a4:	b082      	sub	sp, #8
 80017a6:	4601      	mov	r1, r0
 80017a8:	9001      	str	r0, [sp, #4]
 80017aa:	9801      	ldr	r0, [sp, #4]
 80017ac:	6800      	ldr	r0, [r0, #0]
 80017ae:	6900      	ldr	r0, [r0, #16]
 80017b0:	f000 0002 	and.w	r0, r0, #2
 80017b4:	2200      	movs	r2, #0
 80017b6:	ebb2 0f50 	cmp.w	r2, r0, lsr #1
 80017ba:	9100      	str	r1, [sp, #0]
 80017bc:	d02b      	beq.n	8001816 <HAL_TIM_IRQHandler+0x76>
 80017be:	e7ff      	b.n	80017c0 <HAL_TIM_IRQHandler+0x20>
 80017c0:	9801      	ldr	r0, [sp, #4]
 80017c2:	6800      	ldr	r0, [r0, #0]
 80017c4:	68c0      	ldr	r0, [r0, #12]
 80017c6:	f000 0002 	and.w	r0, r0, #2
 80017ca:	2100      	movs	r1, #0
 80017cc:	2802      	cmp	r0, #2
 80017ce:	bf08      	it	eq
 80017d0:	2101      	moveq	r1, #1
 80017d2:	2900      	cmp	r1, #0
 80017d4:	d01e      	beq.n	8001814 <HAL_TIM_IRQHandler+0x74>
 80017d6:	e7ff      	b.n	80017d8 <HAL_TIM_IRQHandler+0x38>
 80017d8:	9801      	ldr	r0, [sp, #4]
 80017da:	6800      	ldr	r0, [r0, #0]
 80017dc:	f06f 0102 	mvn.w	r1, #2
 80017e0:	6101      	str	r1, [r0, #16]
 80017e2:	9801      	ldr	r0, [sp, #4]
 80017e4:	2101      	movs	r1, #1
 80017e6:	61c1      	str	r1, [r0, #28]
 80017e8:	9801      	ldr	r0, [sp, #4]
 80017ea:	6800      	ldr	r0, [r0, #0]
 80017ec:	6980      	ldr	r0, [r0, #24]
 80017ee:	f010 0f03 	tst.w	r0, #3
 80017f2:	d004      	beq.n	80017fe <HAL_TIM_IRQHandler+0x5e>
 80017f4:	e7ff      	b.n	80017f6 <HAL_TIM_IRQHandler+0x56>
 80017f6:	9801      	ldr	r0, [sp, #4]
 80017f8:	f000 f94a 	bl	8001a90 <HAL_TIM_IC_CaptureCallback>
 80017fc:	e006      	b.n	800180c <HAL_TIM_IRQHandler+0x6c>
 80017fe:	9801      	ldr	r0, [sp, #4]
 8001800:	f000 f94c 	bl	8001a9c <HAL_TIM_OC_DelayElapsedCallback>
 8001804:	9801      	ldr	r0, [sp, #4]
 8001806:	f000 f94f 	bl	8001aa8 <HAL_TIM_PWM_PulseFinishedCallback>
 800180a:	e7ff      	b.n	800180c <HAL_TIM_IRQHandler+0x6c>
 800180c:	9801      	ldr	r0, [sp, #4]
 800180e:	2100      	movs	r1, #0
 8001810:	61c1      	str	r1, [r0, #28]
 8001812:	e7ff      	b.n	8001814 <HAL_TIM_IRQHandler+0x74>
 8001814:	e7ff      	b.n	8001816 <HAL_TIM_IRQHandler+0x76>
 8001816:	9801      	ldr	r0, [sp, #4]
 8001818:	6800      	ldr	r0, [r0, #0]
 800181a:	6900      	ldr	r0, [r0, #16]
 800181c:	f000 0004 	and.w	r0, r0, #4
 8001820:	2100      	movs	r1, #0
 8001822:	ebb1 0f90 	cmp.w	r1, r0, lsr #2
 8001826:	d02b      	beq.n	8001880 <HAL_TIM_IRQHandler+0xe0>
 8001828:	e7ff      	b.n	800182a <HAL_TIM_IRQHandler+0x8a>
 800182a:	9801      	ldr	r0, [sp, #4]
 800182c:	6800      	ldr	r0, [r0, #0]
 800182e:	68c0      	ldr	r0, [r0, #12]
 8001830:	f000 0004 	and.w	r0, r0, #4
 8001834:	2100      	movs	r1, #0
 8001836:	2804      	cmp	r0, #4
 8001838:	bf08      	it	eq
 800183a:	2101      	moveq	r1, #1
 800183c:	2900      	cmp	r1, #0
 800183e:	d01e      	beq.n	800187e <HAL_TIM_IRQHandler+0xde>
 8001840:	e7ff      	b.n	8001842 <HAL_TIM_IRQHandler+0xa2>
 8001842:	9801      	ldr	r0, [sp, #4]
 8001844:	6800      	ldr	r0, [r0, #0]
 8001846:	f06f 0104 	mvn.w	r1, #4
 800184a:	6101      	str	r1, [r0, #16]
 800184c:	9801      	ldr	r0, [sp, #4]
 800184e:	2102      	movs	r1, #2
 8001850:	61c1      	str	r1, [r0, #28]
 8001852:	9801      	ldr	r0, [sp, #4]
 8001854:	6800      	ldr	r0, [r0, #0]
 8001856:	6980      	ldr	r0, [r0, #24]
 8001858:	f410 7f40 	tst.w	r0, #768	; 0x300
 800185c:	d004      	beq.n	8001868 <HAL_TIM_IRQHandler+0xc8>
 800185e:	e7ff      	b.n	8001860 <HAL_TIM_IRQHandler+0xc0>
 8001860:	9801      	ldr	r0, [sp, #4]
 8001862:	f000 f915 	bl	8001a90 <HAL_TIM_IC_CaptureCallback>
 8001866:	e006      	b.n	8001876 <HAL_TIM_IRQHandler+0xd6>
 8001868:	9801      	ldr	r0, [sp, #4]
 800186a:	f000 f917 	bl	8001a9c <HAL_TIM_OC_DelayElapsedCallback>
 800186e:	9801      	ldr	r0, [sp, #4]
 8001870:	f000 f91a 	bl	8001aa8 <HAL_TIM_PWM_PulseFinishedCallback>
 8001874:	e7ff      	b.n	8001876 <HAL_TIM_IRQHandler+0xd6>
 8001876:	9801      	ldr	r0, [sp, #4]
 8001878:	2100      	movs	r1, #0
 800187a:	61c1      	str	r1, [r0, #28]
 800187c:	e7ff      	b.n	800187e <HAL_TIM_IRQHandler+0xde>
 800187e:	e7ff      	b.n	8001880 <HAL_TIM_IRQHandler+0xe0>
 8001880:	9801      	ldr	r0, [sp, #4]
 8001882:	6800      	ldr	r0, [r0, #0]
 8001884:	6900      	ldr	r0, [r0, #16]
 8001886:	f000 0008 	and.w	r0, r0, #8
 800188a:	2100      	movs	r1, #0
 800188c:	ebb1 0fd0 	cmp.w	r1, r0, lsr #3
 8001890:	d02b      	beq.n	80018ea <HAL_TIM_IRQHandler+0x14a>
 8001892:	e7ff      	b.n	8001894 <HAL_TIM_IRQHandler+0xf4>
 8001894:	9801      	ldr	r0, [sp, #4]
 8001896:	6800      	ldr	r0, [r0, #0]
 8001898:	68c0      	ldr	r0, [r0, #12]
 800189a:	f000 0008 	and.w	r0, r0, #8
 800189e:	2100      	movs	r1, #0
 80018a0:	2808      	cmp	r0, #8
 80018a2:	bf08      	it	eq
 80018a4:	2101      	moveq	r1, #1
 80018a6:	2900      	cmp	r1, #0
 80018a8:	d01e      	beq.n	80018e8 <HAL_TIM_IRQHandler+0x148>
 80018aa:	e7ff      	b.n	80018ac <HAL_TIM_IRQHandler+0x10c>
 80018ac:	9801      	ldr	r0, [sp, #4]
 80018ae:	6800      	ldr	r0, [r0, #0]
 80018b0:	f06f 0108 	mvn.w	r1, #8
 80018b4:	6101      	str	r1, [r0, #16]
 80018b6:	9801      	ldr	r0, [sp, #4]
 80018b8:	2104      	movs	r1, #4
 80018ba:	61c1      	str	r1, [r0, #28]
 80018bc:	9801      	ldr	r0, [sp, #4]
 80018be:	6800      	ldr	r0, [r0, #0]
 80018c0:	69c0      	ldr	r0, [r0, #28]
 80018c2:	f010 0f03 	tst.w	r0, #3
 80018c6:	d004      	beq.n	80018d2 <HAL_TIM_IRQHandler+0x132>
 80018c8:	e7ff      	b.n	80018ca <HAL_TIM_IRQHandler+0x12a>
 80018ca:	9801      	ldr	r0, [sp, #4]
 80018cc:	f000 f8e0 	bl	8001a90 <HAL_TIM_IC_CaptureCallback>
 80018d0:	e006      	b.n	80018e0 <HAL_TIM_IRQHandler+0x140>
 80018d2:	9801      	ldr	r0, [sp, #4]
 80018d4:	f000 f8e2 	bl	8001a9c <HAL_TIM_OC_DelayElapsedCallback>
 80018d8:	9801      	ldr	r0, [sp, #4]
 80018da:	f000 f8e5 	bl	8001aa8 <HAL_TIM_PWM_PulseFinishedCallback>
 80018de:	e7ff      	b.n	80018e0 <HAL_TIM_IRQHandler+0x140>
 80018e0:	9801      	ldr	r0, [sp, #4]
 80018e2:	2100      	movs	r1, #0
 80018e4:	61c1      	str	r1, [r0, #28]
 80018e6:	e7ff      	b.n	80018e8 <HAL_TIM_IRQHandler+0x148>
 80018e8:	e7ff      	b.n	80018ea <HAL_TIM_IRQHandler+0x14a>
 80018ea:	9801      	ldr	r0, [sp, #4]
 80018ec:	6800      	ldr	r0, [r0, #0]
 80018ee:	6900      	ldr	r0, [r0, #16]
 80018f0:	f000 0010 	and.w	r0, r0, #16
 80018f4:	2100      	movs	r1, #0
 80018f6:	ebb1 1f10 	cmp.w	r1, r0, lsr #4
 80018fa:	d02b      	beq.n	8001954 <HAL_TIM_IRQHandler+0x1b4>
 80018fc:	e7ff      	b.n	80018fe <HAL_TIM_IRQHandler+0x15e>
 80018fe:	9801      	ldr	r0, [sp, #4]
 8001900:	6800      	ldr	r0, [r0, #0]
 8001902:	68c0      	ldr	r0, [r0, #12]
 8001904:	f000 0010 	and.w	r0, r0, #16
 8001908:	2100      	movs	r1, #0
 800190a:	2810      	cmp	r0, #16
 800190c:	bf08      	it	eq
 800190e:	2101      	moveq	r1, #1
 8001910:	2900      	cmp	r1, #0
 8001912:	d01e      	beq.n	8001952 <HAL_TIM_IRQHandler+0x1b2>
 8001914:	e7ff      	b.n	8001916 <HAL_TIM_IRQHandler+0x176>
 8001916:	9801      	ldr	r0, [sp, #4]
 8001918:	6800      	ldr	r0, [r0, #0]
 800191a:	f06f 0110 	mvn.w	r1, #16
 800191e:	6101      	str	r1, [r0, #16]
 8001920:	9801      	ldr	r0, [sp, #4]
 8001922:	2108      	movs	r1, #8
 8001924:	61c1      	str	r1, [r0, #28]
 8001926:	9801      	ldr	r0, [sp, #4]
 8001928:	6800      	ldr	r0, [r0, #0]
 800192a:	69c0      	ldr	r0, [r0, #28]
 800192c:	f410 7f40 	tst.w	r0, #768	; 0x300
 8001930:	d004      	beq.n	800193c <HAL_TIM_IRQHandler+0x19c>
 8001932:	e7ff      	b.n	8001934 <HAL_TIM_IRQHandler+0x194>
 8001934:	9801      	ldr	r0, [sp, #4]
 8001936:	f000 f8ab 	bl	8001a90 <HAL_TIM_IC_CaptureCallback>
 800193a:	e006      	b.n	800194a <HAL_TIM_IRQHandler+0x1aa>
 800193c:	9801      	ldr	r0, [sp, #4]
 800193e:	f000 f8ad 	bl	8001a9c <HAL_TIM_OC_DelayElapsedCallback>
 8001942:	9801      	ldr	r0, [sp, #4]
 8001944:	f000 f8b0 	bl	8001aa8 <HAL_TIM_PWM_PulseFinishedCallback>
 8001948:	e7ff      	b.n	800194a <HAL_TIM_IRQHandler+0x1aa>
 800194a:	9801      	ldr	r0, [sp, #4]
 800194c:	2100      	movs	r1, #0
 800194e:	61c1      	str	r1, [r0, #28]
 8001950:	e7ff      	b.n	8001952 <HAL_TIM_IRQHandler+0x1b2>
 8001952:	e7ff      	b.n	8001954 <HAL_TIM_IRQHandler+0x1b4>
 8001954:	9801      	ldr	r0, [sp, #4]
 8001956:	6800      	ldr	r0, [r0, #0]
 8001958:	6900      	ldr	r0, [r0, #16]
 800195a:	f010 0f01 	tst.w	r0, #1
 800195e:	d015      	beq.n	800198c <HAL_TIM_IRQHandler+0x1ec>
 8001960:	e7ff      	b.n	8001962 <HAL_TIM_IRQHandler+0x1c2>
 8001962:	9801      	ldr	r0, [sp, #4]
 8001964:	6800      	ldr	r0, [r0, #0]
 8001966:	68c0      	ldr	r0, [r0, #12]
 8001968:	f000 0001 	and.w	r0, r0, #1
 800196c:	2801      	cmp	r0, #1
 800196e:	bf18      	it	ne
 8001970:	2000      	movne	r0, #0
 8001972:	2800      	cmp	r0, #0
 8001974:	d009      	beq.n	800198a <HAL_TIM_IRQHandler+0x1ea>
 8001976:	e7ff      	b.n	8001978 <HAL_TIM_IRQHandler+0x1d8>
 8001978:	9801      	ldr	r0, [sp, #4]
 800197a:	6800      	ldr	r0, [r0, #0]
 800197c:	f06f 0101 	mvn.w	r1, #1
 8001980:	6101      	str	r1, [r0, #16]
 8001982:	9801      	ldr	r0, [sp, #4]
 8001984:	f000 f8ae 	bl	8001ae4 <HAL_TIM_PeriodElapsedCallback>
 8001988:	e7ff      	b.n	800198a <HAL_TIM_IRQHandler+0x1ea>
 800198a:	e7ff      	b.n	800198c <HAL_TIM_IRQHandler+0x1ec>
 800198c:	9801      	ldr	r0, [sp, #4]
 800198e:	6800      	ldr	r0, [r0, #0]
 8001990:	6900      	ldr	r0, [r0, #16]
 8001992:	f000 0080 	and.w	r0, r0, #128	; 0x80
 8001996:	2100      	movs	r1, #0
 8001998:	ebb1 1fd0 	cmp.w	r1, r0, lsr #7
 800199c:	d016      	beq.n	80019cc <HAL_TIM_IRQHandler+0x22c>
 800199e:	e7ff      	b.n	80019a0 <HAL_TIM_IRQHandler+0x200>
 80019a0:	9801      	ldr	r0, [sp, #4]
 80019a2:	6800      	ldr	r0, [r0, #0]
 80019a4:	68c0      	ldr	r0, [r0, #12]
 80019a6:	f000 0080 	and.w	r0, r0, #128	; 0x80
 80019aa:	2100      	movs	r1, #0
 80019ac:	2880      	cmp	r0, #128	; 0x80
 80019ae:	bf08      	it	eq
 80019b0:	2101      	moveq	r1, #1
 80019b2:	2900      	cmp	r1, #0
 80019b4:	d009      	beq.n	80019ca <HAL_TIM_IRQHandler+0x22a>
 80019b6:	e7ff      	b.n	80019b8 <HAL_TIM_IRQHandler+0x218>
 80019b8:	9801      	ldr	r0, [sp, #4]
 80019ba:	6800      	ldr	r0, [r0, #0]
 80019bc:	f06f 0180 	mvn.w	r1, #128	; 0x80
 80019c0:	6101      	str	r1, [r0, #16]
 80019c2:	9801      	ldr	r0, [sp, #4]
 80019c4:	f000 f882 	bl	8001acc <HAL_TIMEx_BreakCallback>
 80019c8:	e7ff      	b.n	80019ca <HAL_TIM_IRQHandler+0x22a>
 80019ca:	e7ff      	b.n	80019cc <HAL_TIM_IRQHandler+0x22c>
 80019cc:	9801      	ldr	r0, [sp, #4]
 80019ce:	6800      	ldr	r0, [r0, #0]
 80019d0:	6900      	ldr	r0, [r0, #16]
 80019d2:	f400 7080 	and.w	r0, r0, #256	; 0x100
 80019d6:	2100      	movs	r1, #0
 80019d8:	ebb1 2f10 	cmp.w	r1, r0, lsr #8
 80019dc:	d016      	beq.n	8001a0c <HAL_TIM_IRQHandler+0x26c>
 80019de:	e7ff      	b.n	80019e0 <HAL_TIM_IRQHandler+0x240>
 80019e0:	9801      	ldr	r0, [sp, #4]
 80019e2:	6800      	ldr	r0, [r0, #0]
 80019e4:	68c0      	ldr	r0, [r0, #12]
 80019e6:	f000 0080 	and.w	r0, r0, #128	; 0x80
 80019ea:	2100      	movs	r1, #0
 80019ec:	2880      	cmp	r0, #128	; 0x80
 80019ee:	bf08      	it	eq
 80019f0:	2101      	moveq	r1, #1
 80019f2:	2900      	cmp	r1, #0
 80019f4:	d009      	beq.n	8001a0a <HAL_TIM_IRQHandler+0x26a>
 80019f6:	e7ff      	b.n	80019f8 <HAL_TIM_IRQHandler+0x258>
 80019f8:	9801      	ldr	r0, [sp, #4]
 80019fa:	6800      	ldr	r0, [r0, #0]
 80019fc:	f46f 7180 	mvn.w	r1, #256	; 0x100
 8001a00:	6101      	str	r1, [r0, #16]
 8001a02:	9801      	ldr	r0, [sp, #4]
 8001a04:	f000 f868 	bl	8001ad8 <HAL_TIMEx_Break2Callback>
 8001a08:	e7ff      	b.n	8001a0a <HAL_TIM_IRQHandler+0x26a>
 8001a0a:	e7ff      	b.n	8001a0c <HAL_TIM_IRQHandler+0x26c>
 8001a0c:	9801      	ldr	r0, [sp, #4]
 8001a0e:	6800      	ldr	r0, [r0, #0]
 8001a10:	6900      	ldr	r0, [r0, #16]
 8001a12:	f000 0040 	and.w	r0, r0, #64	; 0x40
 8001a16:	2100      	movs	r1, #0
 8001a18:	ebb1 1f90 	cmp.w	r1, r0, lsr #6
 8001a1c:	d016      	beq.n	8001a4c <HAL_TIM_IRQHandler+0x2ac>
 8001a1e:	e7ff      	b.n	8001a20 <HAL_TIM_IRQHandler+0x280>
 8001a20:	9801      	ldr	r0, [sp, #4]
 8001a22:	6800      	ldr	r0, [r0, #0]
 8001a24:	68c0      	ldr	r0, [r0, #12]
 8001a26:	f000 0040 	and.w	r0, r0, #64	; 0x40
 8001a2a:	2100      	movs	r1, #0
 8001a2c:	2840      	cmp	r0, #64	; 0x40
 8001a2e:	bf08      	it	eq
 8001a30:	2101      	moveq	r1, #1
 8001a32:	2900      	cmp	r1, #0
 8001a34:	d009      	beq.n	8001a4a <HAL_TIM_IRQHandler+0x2aa>
 8001a36:	e7ff      	b.n	8001a38 <HAL_TIM_IRQHandler+0x298>
 8001a38:	9801      	ldr	r0, [sp, #4]
 8001a3a:	6800      	ldr	r0, [r0, #0]
 8001a3c:	f06f 0140 	mvn.w	r1, #64	; 0x40
 8001a40:	6101      	str	r1, [r0, #16]
 8001a42:	9801      	ldr	r0, [sp, #4]
 8001a44:	f000 f836 	bl	8001ab4 <HAL_TIM_TriggerCallback>
 8001a48:	e7ff      	b.n	8001a4a <HAL_TIM_IRQHandler+0x2aa>
 8001a4a:	e7ff      	b.n	8001a4c <HAL_TIM_IRQHandler+0x2ac>
 8001a4c:	9801      	ldr	r0, [sp, #4]
 8001a4e:	6800      	ldr	r0, [r0, #0]
 8001a50:	6900      	ldr	r0, [r0, #16]
 8001a52:	f000 0020 	and.w	r0, r0, #32
 8001a56:	2100      	movs	r1, #0
 8001a58:	ebb1 1f50 	cmp.w	r1, r0, lsr #5
 8001a5c:	d016      	beq.n	8001a8c <HAL_TIM_IRQHandler+0x2ec>
 8001a5e:	e7ff      	b.n	8001a60 <HAL_TIM_IRQHandler+0x2c0>
 8001a60:	9801      	ldr	r0, [sp, #4]
 8001a62:	6800      	ldr	r0, [r0, #0]
 8001a64:	68c0      	ldr	r0, [r0, #12]
 8001a66:	f000 0020 	and.w	r0, r0, #32
 8001a6a:	2100      	movs	r1, #0
 8001a6c:	2820      	cmp	r0, #32
 8001a6e:	bf08      	it	eq
 8001a70:	2101      	moveq	r1, #1
 8001a72:	2900      	cmp	r1, #0
 8001a74:	d009      	beq.n	8001a8a <HAL_TIM_IRQHandler+0x2ea>
 8001a76:	e7ff      	b.n	8001a78 <HAL_TIM_IRQHandler+0x2d8>
 8001a78:	9801      	ldr	r0, [sp, #4]
 8001a7a:	6800      	ldr	r0, [r0, #0]
 8001a7c:	f06f 0120 	mvn.w	r1, #32
 8001a80:	6101      	str	r1, [r0, #16]
 8001a82:	9801      	ldr	r0, [sp, #4]
 8001a84:	f000 f81c 	bl	8001ac0 <HAL_TIMEx_CommutationCallback>
 8001a88:	e7ff      	b.n	8001a8a <HAL_TIM_IRQHandler+0x2ea>
 8001a8a:	e7ff      	b.n	8001a8c <HAL_TIM_IRQHandler+0x2ec>
 8001a8c:	b002      	add	sp, #8
 8001a8e:	bd80      	pop	{r7, pc}

08001a90 <HAL_TIM_IC_CaptureCallback>:
 8001a90:	b082      	sub	sp, #8
 8001a92:	4601      	mov	r1, r0
 8001a94:	9001      	str	r0, [sp, #4]
 8001a96:	9100      	str	r1, [sp, #0]
 8001a98:	b002      	add	sp, #8
 8001a9a:	4770      	bx	lr

08001a9c <HAL_TIM_OC_DelayElapsedCallback>:
 8001a9c:	b082      	sub	sp, #8
 8001a9e:	4601      	mov	r1, r0
 8001aa0:	9001      	str	r0, [sp, #4]
 8001aa2:	9100      	str	r1, [sp, #0]
 8001aa4:	b002      	add	sp, #8
 8001aa6:	4770      	bx	lr

08001aa8 <HAL_TIM_PWM_PulseFinishedCallback>:
 8001aa8:	b082      	sub	sp, #8
 8001aaa:	4601      	mov	r1, r0
 8001aac:	9001      	str	r0, [sp, #4]
 8001aae:	9100      	str	r1, [sp, #0]
 8001ab0:	b002      	add	sp, #8
 8001ab2:	4770      	bx	lr

08001ab4 <HAL_TIM_TriggerCallback>:
 8001ab4:	b082      	sub	sp, #8
 8001ab6:	4601      	mov	r1, r0
 8001ab8:	9001      	str	r0, [sp, #4]
 8001aba:	9100      	str	r1, [sp, #0]
 8001abc:	b002      	add	sp, #8
 8001abe:	4770      	bx	lr

08001ac0 <HAL_TIMEx_CommutationCallback>:
 8001ac0:	b082      	sub	sp, #8
 8001ac2:	4601      	mov	r1, r0
 8001ac4:	9001      	str	r0, [sp, #4]
 8001ac6:	9100      	str	r1, [sp, #0]
 8001ac8:	b002      	add	sp, #8
 8001aca:	4770      	bx	lr

08001acc <HAL_TIMEx_BreakCallback>:
 8001acc:	b082      	sub	sp, #8
 8001ace:	4601      	mov	r1, r0
 8001ad0:	9001      	str	r0, [sp, #4]
 8001ad2:	9100      	str	r1, [sp, #0]
 8001ad4:	b002      	add	sp, #8
 8001ad6:	4770      	bx	lr

08001ad8 <HAL_TIMEx_Break2Callback>:
 8001ad8:	b082      	sub	sp, #8
 8001ada:	4601      	mov	r1, r0
 8001adc:	9001      	str	r0, [sp, #4]
 8001ade:	9100      	str	r1, [sp, #0]
 8001ae0:	b002      	add	sp, #8
 8001ae2:	4770      	bx	lr

08001ae4 <HAL_TIM_PeriodElapsedCallback>:
 8001ae4:	b580      	push	{r7, lr}
 8001ae6:	466f      	mov	r7, sp
 8001ae8:	b082      	sub	sp, #8
 8001aea:	4601      	mov	r1, r0
 8001aec:	9001      	str	r0, [sp, #4]
 8001aee:	9100      	str	r1, [sp, #0]
 8001af0:	f7ff fb5a 	bl	80011a8 <HAL_IncTick>
 8001af4:	b002      	add	sp, #8
 8001af6:	bd80      	pop	{r7, pc}

08001af8 <TIM6_DAC_IRQHandler>:
 8001af8:	b580      	push	{r7, lr}
 8001afa:	466f      	mov	r7, sp
 8001afc:	f244 70f0 	movw	r0, #18416	; 0x47f0
 8001b00:	f2c2 0000 	movt	r0, #8192	; 0x2000
 8001b04:	f7ff fe4c 	bl	80017a0 <HAL_TIM_IRQHandler>
 8001b08:	bd80      	pop	{r7, pc}

08001b0a <HAL_UART_Init>:
 8001b0a:	b580      	push	{r7, lr}
 8001b0c:	466f      	mov	r7, sp
 8001b0e:	b084      	sub	sp, #16
 8001b10:	4601      	mov	r1, r0
 8001b12:	9002      	str	r0, [sp, #8]
 8001b14:	9802      	ldr	r0, [sp, #8]
 8001b16:	2800      	cmp	r0, #0
 8001b18:	9101      	str	r1, [sp, #4]
 8001b1a:	d103      	bne.n	8001b24 <HAL_UART_Init+0x1a>
 8001b1c:	e7ff      	b.n	8001b1e <HAL_UART_Init+0x14>
 8001b1e:	2001      	movs	r0, #1
 8001b20:	9003      	str	r0, [sp, #12]
 8001b22:	e044      	b.n	8001bae <HAL_UART_Init+0xa4>
 8001b24:	9802      	ldr	r0, [sp, #8]
 8001b26:	6980      	ldr	r0, [r0, #24]
 8001b28:	2800      	cmp	r0, #0
 8001b2a:	d001      	beq.n	8001b30 <HAL_UART_Init+0x26>
 8001b2c:	e7ff      	b.n	8001b2e <HAL_UART_Init+0x24>
 8001b2e:	e000      	b.n	8001b32 <HAL_UART_Init+0x28>
 8001b30:	e7ff      	b.n	8001b32 <HAL_UART_Init+0x28>
 8001b32:	9802      	ldr	r0, [sp, #8]
 8001b34:	6f40      	ldr	r0, [r0, #116]	; 0x74
 8001b36:	2800      	cmp	r0, #0
 8001b38:	d107      	bne.n	8001b4a <HAL_UART_Init+0x40>
 8001b3a:	e7ff      	b.n	8001b3c <HAL_UART_Init+0x32>
 8001b3c:	9802      	ldr	r0, [sp, #8]
 8001b3e:	2100      	movs	r1, #0
 8001b40:	6701      	str	r1, [r0, #112]	; 0x70
 8001b42:	9802      	ldr	r0, [sp, #8]
 8001b44:	f000 f836 	bl	8001bb4 <HAL_UART_MspInit>
 8001b48:	e7ff      	b.n	8001b4a <HAL_UART_Init+0x40>
 8001b4a:	9802      	ldr	r0, [sp, #8]
 8001b4c:	2124      	movs	r1, #36	; 0x24
 8001b4e:	6741      	str	r1, [r0, #116]	; 0x74
 8001b50:	9802      	ldr	r0, [sp, #8]
 8001b52:	6800      	ldr	r0, [r0, #0]
 8001b54:	6801      	ldr	r1, [r0, #0]
 8001b56:	f021 0101 	bic.w	r1, r1, #1
 8001b5a:	6001      	str	r1, [r0, #0]
 8001b5c:	9802      	ldr	r0, [sp, #8]
 8001b5e:	f000 f82f 	bl	8001bc0 <UART_SetConfig>
 8001b62:	2801      	cmp	r0, #1
 8001b64:	d103      	bne.n	8001b6e <HAL_UART_Init+0x64>
 8001b66:	e7ff      	b.n	8001b68 <HAL_UART_Init+0x5e>
 8001b68:	2001      	movs	r0, #1
 8001b6a:	9003      	str	r0, [sp, #12]
 8001b6c:	e01f      	b.n	8001bae <HAL_UART_Init+0xa4>
 8001b6e:	9802      	ldr	r0, [sp, #8]
 8001b70:	6a40      	ldr	r0, [r0, #36]	; 0x24
 8001b72:	2800      	cmp	r0, #0
 8001b74:	d004      	beq.n	8001b80 <HAL_UART_Init+0x76>
 8001b76:	e7ff      	b.n	8001b78 <HAL_UART_Init+0x6e>
 8001b78:	9802      	ldr	r0, [sp, #8]
 8001b7a:	f000 fb50 	bl	800221e <UART_AdvFeatureConfig>
 8001b7e:	e7ff      	b.n	8001b80 <HAL_UART_Init+0x76>
 8001b80:	9802      	ldr	r0, [sp, #8]
 8001b82:	6800      	ldr	r0, [r0, #0]
 8001b84:	6841      	ldr	r1, [r0, #4]
 8001b86:	f421 4190 	bic.w	r1, r1, #18432	; 0x4800
 8001b8a:	6041      	str	r1, [r0, #4]
 8001b8c:	9802      	ldr	r0, [sp, #8]
 8001b8e:	6800      	ldr	r0, [r0, #0]
 8001b90:	6881      	ldr	r1, [r0, #8]
 8001b92:	f021 012a 	bic.w	r1, r1, #42	; 0x2a
 8001b96:	6081      	str	r1, [r0, #8]
 8001b98:	9802      	ldr	r0, [sp, #8]
 8001b9a:	6800      	ldr	r0, [r0, #0]
 8001b9c:	6801      	ldr	r1, [r0, #0]
 8001b9e:	f041 0101 	orr.w	r1, r1, #1
 8001ba2:	6001      	str	r1, [r0, #0]
 8001ba4:	9802      	ldr	r0, [sp, #8]
 8001ba6:	f000 fbd9 	bl	800235c <UART_CheckIdleState>
 8001baa:	9003      	str	r0, [sp, #12]
 8001bac:	e7ff      	b.n	8001bae <HAL_UART_Init+0xa4>
 8001bae:	9803      	ldr	r0, [sp, #12]
 8001bb0:	b004      	add	sp, #16
 8001bb2:	bd80      	pop	{r7, pc}

08001bb4 <HAL_UART_MspInit>:
 8001bb4:	b082      	sub	sp, #8
 8001bb6:	4601      	mov	r1, r0
 8001bb8:	9001      	str	r0, [sp, #4]
 8001bba:	9100      	str	r1, [sp, #0]
 8001bbc:	b002      	add	sp, #8
 8001bbe:	4770      	bx	lr

08001bc0 <UART_SetConfig>:
 8001bc0:	b580      	push	{r7, lr}
 8001bc2:	466f      	mov	r7, sp
 8001bc4:	b098      	sub	sp, #96	; 0x60
 8001bc6:	4601      	mov	r1, r0
 8001bc8:	9017      	str	r0, [sp, #92]	; 0x5c
 8001bca:	2000      	movs	r0, #0
 8001bcc:	9016      	str	r0, [sp, #88]	; 0x58
 8001bce:	2210      	movs	r2, #16
 8001bd0:	9215      	str	r2, [sp, #84]	; 0x54
 8001bd2:	f827 0c0e 	strh.w	r0, [r7, #-14]
 8001bd6:	9013      	str	r0, [sp, #76]	; 0x4c
 8001bd8:	9012      	str	r0, [sp, #72]	; 0x48
 8001bda:	9011      	str	r0, [sp, #68]	; 0x44
 8001bdc:	9817      	ldr	r0, [sp, #92]	; 0x5c
 8001bde:	6800      	ldr	r0, [r0, #0]
 8001be0:	f248 0200 	movw	r2, #32768	; 0x8000
 8001be4:	f2c4 0200 	movt	r2, #16384	; 0x4000
 8001be8:	4290      	cmp	r0, r2
 8001bea:	9110      	str	r1, [sp, #64]	; 0x40
 8001bec:	d101      	bne.n	8001bf2 <UART_SetConfig+0x32>
 8001bee:	e7ff      	b.n	8001bf0 <UART_SetConfig+0x30>
 8001bf0:	e000      	b.n	8001bf4 <UART_SetConfig+0x34>
 8001bf2:	e7ff      	b.n	8001bf4 <UART_SetConfig+0x34>
 8001bf4:	9817      	ldr	r0, [sp, #92]	; 0x5c
 8001bf6:	6881      	ldr	r1, [r0, #8]
 8001bf8:	6902      	ldr	r2, [r0, #16]
 8001bfa:	6943      	ldr	r3, [r0, #20]
 8001bfc:	69c0      	ldr	r0, [r0, #28]
 8001bfe:	4311      	orrs	r1, r2
 8001c00:	4319      	orrs	r1, r3
 8001c02:	4308      	orrs	r0, r1
 8001c04:	9016      	str	r0, [sp, #88]	; 0x58
 8001c06:	9817      	ldr	r0, [sp, #92]	; 0x5c
 8001c08:	6800      	ldr	r0, [r0, #0]
 8001c0a:	6800      	ldr	r0, [r0, #0]
 8001c0c:	f646 11f3 	movw	r1, #27123	; 0x69f3
 8001c10:	f6ce 71ff 	movt	r1, #61439	; 0xefff
 8001c14:	4008      	ands	r0, r1
 8001c16:	9916      	ldr	r1, [sp, #88]	; 0x58
 8001c18:	4308      	orrs	r0, r1
 8001c1a:	9917      	ldr	r1, [sp, #92]	; 0x5c
 8001c1c:	6809      	ldr	r1, [r1, #0]
 8001c1e:	6008      	str	r0, [r1, #0]
 8001c20:	9817      	ldr	r0, [sp, #92]	; 0x5c
 8001c22:	6800      	ldr	r0, [r0, #0]
 8001c24:	6840      	ldr	r0, [r0, #4]
 8001c26:	f420 5040 	bic.w	r0, r0, #12288	; 0x3000
 8001c2a:	9917      	ldr	r1, [sp, #92]	; 0x5c
 8001c2c:	680a      	ldr	r2, [r1, #0]
 8001c2e:	68c9      	ldr	r1, [r1, #12]
 8001c30:	4308      	orrs	r0, r1
 8001c32:	6050      	str	r0, [r2, #4]
 8001c34:	9817      	ldr	r0, [sp, #92]	; 0x5c
 8001c36:	6980      	ldr	r0, [r0, #24]
 8001c38:	9016      	str	r0, [sp, #88]	; 0x58
 8001c3a:	9817      	ldr	r0, [sp, #92]	; 0x5c
 8001c3c:	6800      	ldr	r0, [r0, #0]
 8001c3e:	f248 0100 	movw	r1, #32768	; 0x8000
 8001c42:	f2c4 0100 	movt	r1, #16384	; 0x4000
 8001c46:	4288      	cmp	r0, r1
 8001c48:	d006      	beq.n	8001c58 <UART_SetConfig+0x98>
 8001c4a:	e7ff      	b.n	8001c4c <UART_SetConfig+0x8c>
 8001c4c:	9817      	ldr	r0, [sp, #92]	; 0x5c
 8001c4e:	6a00      	ldr	r0, [r0, #32]
 8001c50:	9916      	ldr	r1, [sp, #88]	; 0x58
 8001c52:	4308      	orrs	r0, r1
 8001c54:	9016      	str	r0, [sp, #88]	; 0x58
 8001c56:	e7ff      	b.n	8001c58 <UART_SetConfig+0x98>
 8001c58:	9817      	ldr	r0, [sp, #92]	; 0x5c
 8001c5a:	6800      	ldr	r0, [r0, #0]
 8001c5c:	6880      	ldr	r0, [r0, #8]
 8001c5e:	f420 6030 	bic.w	r0, r0, #2816	; 0xb00
 8001c62:	9916      	ldr	r1, [sp, #88]	; 0x58
 8001c64:	4308      	orrs	r0, r1
 8001c66:	9917      	ldr	r1, [sp, #92]	; 0x5c
 8001c68:	6809      	ldr	r1, [r1, #0]
 8001c6a:	6088      	str	r0, [r1, #8]
 8001c6c:	e7ff      	b.n	8001c6e <UART_SetConfig+0xae>
 8001c6e:	9817      	ldr	r0, [sp, #92]	; 0x5c
 8001c70:	6800      	ldr	r0, [r0, #0]
 8001c72:	f643 0100 	movw	r1, #14336	; 0x3800
 8001c76:	f2c4 0101 	movt	r1, #16385	; 0x4001
 8001c7a:	4288      	cmp	r0, r1
 8001c7c:	d120      	bne.n	8001cc0 <UART_SetConfig+0x100>
 8001c7e:	e7ff      	b.n	8001c80 <UART_SetConfig+0xc0>
 8001c80:	f241 0088 	movw	r0, #4232	; 0x1088
 8001c84:	f2c4 0002 	movt	r0, #16386	; 0x4002
 8001c88:	6800      	ldr	r0, [r0, #0]
 8001c8a:	f000 0003 	and.w	r0, r0, #3
 8001c8e:	4601      	mov	r1, r0
 8001c90:	2803      	cmp	r0, #3
 8001c92:	910f      	str	r1, [sp, #60]	; 0x3c
 8001c94:	d810      	bhi.n	8001cb8 <UART_SetConfig+0xf8>
 8001c96:	990f      	ldr	r1, [sp, #60]	; 0x3c
 8001c98:	e8df f001 	tbb	[pc, r1]
 8001c9c:	0b050802 	.word	0x0b050802
 8001ca0:	2001      	movs	r0, #1
 8001ca2:	9015      	str	r0, [sp, #84]	; 0x54
 8001ca4:	e00b      	b.n	8001cbe <UART_SetConfig+0xfe>
 8001ca6:	2002      	movs	r0, #2
 8001ca8:	9015      	str	r0, [sp, #84]	; 0x54
 8001caa:	e008      	b.n	8001cbe <UART_SetConfig+0xfe>
 8001cac:	2004      	movs	r0, #4
 8001cae:	9015      	str	r0, [sp, #84]	; 0x54
 8001cb0:	e005      	b.n	8001cbe <UART_SetConfig+0xfe>
 8001cb2:	2008      	movs	r0, #8
 8001cb4:	9015      	str	r0, [sp, #84]	; 0x54
 8001cb6:	e002      	b.n	8001cbe <UART_SetConfig+0xfe>
 8001cb8:	2010      	movs	r0, #16
 8001cba:	9015      	str	r0, [sp, #84]	; 0x54
 8001cbc:	e7ff      	b.n	8001cbe <UART_SetConfig+0xfe>
 8001cbe:	e0fc      	b.n	8001eba <UART_SetConfig+0x2fa>
 8001cc0:	9817      	ldr	r0, [sp, #92]	; 0x5c
 8001cc2:	6800      	ldr	r0, [r0, #0]
 8001cc4:	f244 4100 	movw	r1, #17408	; 0x4400
 8001cc8:	f2c4 0100 	movt	r1, #16384	; 0x4000
 8001ccc:	4288      	cmp	r0, r1
 8001cce:	d125      	bne.n	8001d1c <UART_SetConfig+0x15c>
 8001cd0:	e7ff      	b.n	8001cd2 <UART_SetConfig+0x112>
 8001cd2:	f241 0088 	movw	r0, #4232	; 0x1088
 8001cd6:	f2c4 0002 	movt	r0, #16386	; 0x4002
 8001cda:	6800      	ldr	r0, [r0, #0]
 8001cdc:	f000 000c 	and.w	r0, r0, #12
 8001ce0:	4601      	mov	r1, r0
 8001ce2:	280c      	cmp	r0, #12
 8001ce4:	910e      	str	r1, [sp, #56]	; 0x38
 8001ce6:	d815      	bhi.n	8001d14 <UART_SetConfig+0x154>
 8001ce8:	990e      	ldr	r1, [sp, #56]	; 0x38
 8001cea:	e8df f001 	tbb	[pc, r1]
 8001cee:	1307      	.short	0x1307
 8001cf0:	130d1313 	.word	0x130d1313
 8001cf4:	130a1313 	.word	0x130a1313
 8001cf8:	00101313 	.word	0x00101313
 8001cfc:	2000      	movs	r0, #0
 8001cfe:	9015      	str	r0, [sp, #84]	; 0x54
 8001d00:	e00b      	b.n	8001d1a <UART_SetConfig+0x15a>
 8001d02:	2002      	movs	r0, #2
 8001d04:	9015      	str	r0, [sp, #84]	; 0x54
 8001d06:	e008      	b.n	8001d1a <UART_SetConfig+0x15a>
 8001d08:	2004      	movs	r0, #4
 8001d0a:	9015      	str	r0, [sp, #84]	; 0x54
 8001d0c:	e005      	b.n	8001d1a <UART_SetConfig+0x15a>
 8001d0e:	2008      	movs	r0, #8
 8001d10:	9015      	str	r0, [sp, #84]	; 0x54
 8001d12:	e002      	b.n	8001d1a <UART_SetConfig+0x15a>
 8001d14:	2010      	movs	r0, #16
 8001d16:	9015      	str	r0, [sp, #84]	; 0x54
 8001d18:	e7ff      	b.n	8001d1a <UART_SetConfig+0x15a>
 8001d1a:	e0cd      	b.n	8001eb8 <UART_SetConfig+0x2f8>
 8001d1c:	9817      	ldr	r0, [sp, #92]	; 0x5c
 8001d1e:	6800      	ldr	r0, [r0, #0]
 8001d20:	f644 0100 	movw	r1, #18432	; 0x4800
 8001d24:	f2c4 0100 	movt	r1, #16384	; 0x4000
 8001d28:	4288      	cmp	r0, r1
 8001d2a:	d128      	bne.n	8001d7e <UART_SetConfig+0x1be>
 8001d2c:	e7ff      	b.n	8001d2e <UART_SetConfig+0x16e>
 8001d2e:	f241 0088 	movw	r0, #4232	; 0x1088
 8001d32:	f2c4 0002 	movt	r0, #16386	; 0x4002
 8001d36:	6800      	ldr	r0, [r0, #0]
 8001d38:	f000 0030 	and.w	r0, r0, #48	; 0x30
 8001d3c:	4601      	mov	r1, r0
 8001d3e:	2800      	cmp	r0, #0
 8001d40:	910d      	str	r1, [sp, #52]	; 0x34
 8001d42:	d00c      	beq.n	8001d5e <UART_SetConfig+0x19e>
 8001d44:	e7ff      	b.n	8001d46 <UART_SetConfig+0x186>
 8001d46:	980d      	ldr	r0, [sp, #52]	; 0x34
 8001d48:	2810      	cmp	r0, #16
 8001d4a:	d00e      	beq.n	8001d6a <UART_SetConfig+0x1aa>
 8001d4c:	e7ff      	b.n	8001d4e <UART_SetConfig+0x18e>
 8001d4e:	980d      	ldr	r0, [sp, #52]	; 0x34
 8001d50:	2820      	cmp	r0, #32
 8001d52:	d007      	beq.n	8001d64 <UART_SetConfig+0x1a4>
 8001d54:	e7ff      	b.n	8001d56 <UART_SetConfig+0x196>
 8001d56:	980d      	ldr	r0, [sp, #52]	; 0x34
 8001d58:	2830      	cmp	r0, #48	; 0x30
 8001d5a:	d009      	beq.n	8001d70 <UART_SetConfig+0x1b0>
 8001d5c:	e00b      	b.n	8001d76 <UART_SetConfig+0x1b6>
 8001d5e:	2000      	movs	r0, #0
 8001d60:	9015      	str	r0, [sp, #84]	; 0x54
 8001d62:	e00b      	b.n	8001d7c <UART_SetConfig+0x1bc>
 8001d64:	2002      	movs	r0, #2
 8001d66:	9015      	str	r0, [sp, #84]	; 0x54
 8001d68:	e008      	b.n	8001d7c <UART_SetConfig+0x1bc>
 8001d6a:	2004      	movs	r0, #4
 8001d6c:	9015      	str	r0, [sp, #84]	; 0x54
 8001d6e:	e005      	b.n	8001d7c <UART_SetConfig+0x1bc>
 8001d70:	2008      	movs	r0, #8
 8001d72:	9015      	str	r0, [sp, #84]	; 0x54
 8001d74:	e002      	b.n	8001d7c <UART_SetConfig+0x1bc>
 8001d76:	2010      	movs	r0, #16
 8001d78:	9015      	str	r0, [sp, #84]	; 0x54
 8001d7a:	e7ff      	b.n	8001d7c <UART_SetConfig+0x1bc>
 8001d7c:	e09b      	b.n	8001eb6 <UART_SetConfig+0x2f6>
 8001d7e:	9817      	ldr	r0, [sp, #92]	; 0x5c
 8001d80:	6800      	ldr	r0, [r0, #0]
 8001d82:	f644 4100 	movw	r1, #19456	; 0x4c00
 8001d86:	f2c4 0100 	movt	r1, #16384	; 0x4000
 8001d8a:	4288      	cmp	r0, r1
 8001d8c:	d128      	bne.n	8001de0 <UART_SetConfig+0x220>
 8001d8e:	e7ff      	b.n	8001d90 <UART_SetConfig+0x1d0>
 8001d90:	f241 0088 	movw	r0, #4232	; 0x1088
 8001d94:	f2c4 0002 	movt	r0, #16386	; 0x4002
 8001d98:	6800      	ldr	r0, [r0, #0]
 8001d9a:	f000 00c0 	and.w	r0, r0, #192	; 0xc0
 8001d9e:	4601      	mov	r1, r0
 8001da0:	2800      	cmp	r0, #0
 8001da2:	910c      	str	r1, [sp, #48]	; 0x30
 8001da4:	d00c      	beq.n	8001dc0 <UART_SetConfig+0x200>
 8001da6:	e7ff      	b.n	8001da8 <UART_SetConfig+0x1e8>
 8001da8:	980c      	ldr	r0, [sp, #48]	; 0x30
 8001daa:	2840      	cmp	r0, #64	; 0x40
 8001dac:	d00e      	beq.n	8001dcc <UART_SetConfig+0x20c>
 8001dae:	e7ff      	b.n	8001db0 <UART_SetConfig+0x1f0>
 8001db0:	980c      	ldr	r0, [sp, #48]	; 0x30
 8001db2:	2880      	cmp	r0, #128	; 0x80
 8001db4:	d007      	beq.n	8001dc6 <UART_SetConfig+0x206>
 8001db6:	e7ff      	b.n	8001db8 <UART_SetConfig+0x1f8>
 8001db8:	980c      	ldr	r0, [sp, #48]	; 0x30
 8001dba:	28c0      	cmp	r0, #192	; 0xc0
 8001dbc:	d009      	beq.n	8001dd2 <UART_SetConfig+0x212>
 8001dbe:	e00b      	b.n	8001dd8 <UART_SetConfig+0x218>
 8001dc0:	2000      	movs	r0, #0
 8001dc2:	9015      	str	r0, [sp, #84]	; 0x54
 8001dc4:	e00b      	b.n	8001dde <UART_SetConfig+0x21e>
 8001dc6:	2002      	movs	r0, #2
 8001dc8:	9015      	str	r0, [sp, #84]	; 0x54
 8001dca:	e008      	b.n	8001dde <UART_SetConfig+0x21e>
 8001dcc:	2004      	movs	r0, #4
 8001dce:	9015      	str	r0, [sp, #84]	; 0x54
 8001dd0:	e005      	b.n	8001dde <UART_SetConfig+0x21e>
 8001dd2:	2008      	movs	r0, #8
 8001dd4:	9015      	str	r0, [sp, #84]	; 0x54
 8001dd6:	e002      	b.n	8001dde <UART_SetConfig+0x21e>
 8001dd8:	2010      	movs	r0, #16
 8001dda:	9015      	str	r0, [sp, #84]	; 0x54
 8001ddc:	e7ff      	b.n	8001dde <UART_SetConfig+0x21e>
 8001dde:	e069      	b.n	8001eb4 <UART_SetConfig+0x2f4>
 8001de0:	9817      	ldr	r0, [sp, #92]	; 0x5c
 8001de2:	6800      	ldr	r0, [r0, #0]
 8001de4:	f245 0100 	movw	r1, #20480	; 0x5000
 8001de8:	f2c4 0100 	movt	r1, #16384	; 0x4000
 8001dec:	4288      	cmp	r0, r1
 8001dee:	d12b      	bne.n	8001e48 <UART_SetConfig+0x288>
 8001df0:	e7ff      	b.n	8001df2 <UART_SetConfig+0x232>
 8001df2:	f241 0088 	movw	r0, #4232	; 0x1088
 8001df6:	f2c4 0002 	movt	r0, #16386	; 0x4002
 8001dfa:	6800      	ldr	r0, [r0, #0]
 8001dfc:	f400 7040 	and.w	r0, r0, #768	; 0x300
 8001e00:	4601      	mov	r1, r0
 8001e02:	2800      	cmp	r0, #0
 8001e04:	910b      	str	r1, [sp, #44]	; 0x2c
 8001e06:	d00f      	beq.n	8001e28 <UART_SetConfig+0x268>
 8001e08:	e7ff      	b.n	8001e0a <UART_SetConfig+0x24a>
 8001e0a:	980b      	ldr	r0, [sp, #44]	; 0x2c
 8001e0c:	f5b0 7f80 	cmp.w	r0, #256	; 0x100
 8001e10:	d010      	beq.n	8001e34 <UART_SetConfig+0x274>
 8001e12:	e7ff      	b.n	8001e14 <UART_SetConfig+0x254>
 8001e14:	980b      	ldr	r0, [sp, #44]	; 0x2c
 8001e16:	f5b0 7f00 	cmp.w	r0, #512	; 0x200
 8001e1a:	d008      	beq.n	8001e2e <UART_SetConfig+0x26e>
 8001e1c:	e7ff      	b.n	8001e1e <UART_SetConfig+0x25e>
 8001e1e:	980b      	ldr	r0, [sp, #44]	; 0x2c
 8001e20:	f5b0 7f40 	cmp.w	r0, #768	; 0x300
 8001e24:	d009      	beq.n	8001e3a <UART_SetConfig+0x27a>
 8001e26:	e00b      	b.n	8001e40 <UART_SetConfig+0x280>
 8001e28:	2000      	movs	r0, #0
 8001e2a:	9015      	str	r0, [sp, #84]	; 0x54
 8001e2c:	e00b      	b.n	8001e46 <UART_SetConfig+0x286>
 8001e2e:	2002      	movs	r0, #2
 8001e30:	9015      	str	r0, [sp, #84]	; 0x54
 8001e32:	e008      	b.n	8001e46 <UART_SetConfig+0x286>
 8001e34:	2004      	movs	r0, #4
 8001e36:	9015      	str	r0, [sp, #84]	; 0x54
 8001e38:	e005      	b.n	8001e46 <UART_SetConfig+0x286>
 8001e3a:	2008      	movs	r0, #8
 8001e3c:	9015      	str	r0, [sp, #84]	; 0x54
 8001e3e:	e002      	b.n	8001e46 <UART_SetConfig+0x286>
 8001e40:	2010      	movs	r0, #16
 8001e42:	9015      	str	r0, [sp, #84]	; 0x54
 8001e44:	e7ff      	b.n	8001e46 <UART_SetConfig+0x286>
 8001e46:	e034      	b.n	8001eb2 <UART_SetConfig+0x2f2>
 8001e48:	9817      	ldr	r0, [sp, #92]	; 0x5c
 8001e4a:	6800      	ldr	r0, [r0, #0]
 8001e4c:	f248 0100 	movw	r1, #32768	; 0x8000
 8001e50:	f2c4 0100 	movt	r1, #16384	; 0x4000
 8001e54:	4288      	cmp	r0, r1
 8001e56:	d12b      	bne.n	8001eb0 <UART_SetConfig+0x2f0>
 8001e58:	e7ff      	b.n	8001e5a <UART_SetConfig+0x29a>
 8001e5a:	f241 0088 	movw	r0, #4232	; 0x1088
 8001e5e:	f2c4 0002 	movt	r0, #16386	; 0x4002
 8001e62:	6800      	ldr	r0, [r0, #0]
 8001e64:	f400 6040 	and.w	r0, r0, #3072	; 0xc00
 8001e68:	4601      	mov	r1, r0
 8001e6a:	2800      	cmp	r0, #0
 8001e6c:	910a      	str	r1, [sp, #40]	; 0x28
 8001e6e:	d00f      	beq.n	8001e90 <UART_SetConfig+0x2d0>
 8001e70:	e7ff      	b.n	8001e72 <UART_SetConfig+0x2b2>
 8001e72:	980a      	ldr	r0, [sp, #40]	; 0x28
 8001e74:	f5b0 6f80 	cmp.w	r0, #1024	; 0x400
 8001e78:	d010      	beq.n	8001e9c <UART_SetConfig+0x2dc>
 8001e7a:	e7ff      	b.n	8001e7c <UART_SetConfig+0x2bc>
 8001e7c:	980a      	ldr	r0, [sp, #40]	; 0x28
 8001e7e:	f5b0 6f00 	cmp.w	r0, #2048	; 0x800
 8001e82:	d008      	beq.n	8001e96 <UART_SetConfig+0x2d6>
 8001e84:	e7ff      	b.n	8001e86 <UART_SetConfig+0x2c6>
 8001e86:	980a      	ldr	r0, [sp, #40]	; 0x28
 8001e88:	f5b0 6f40 	cmp.w	r0, #3072	; 0xc00
 8001e8c:	d009      	beq.n	8001ea2 <UART_SetConfig+0x2e2>
 8001e8e:	e00b      	b.n	8001ea8 <UART_SetConfig+0x2e8>
 8001e90:	2000      	movs	r0, #0
 8001e92:	9015      	str	r0, [sp, #84]	; 0x54
 8001e94:	e00b      	b.n	8001eae <UART_SetConfig+0x2ee>
 8001e96:	2002      	movs	r0, #2
 8001e98:	9015      	str	r0, [sp, #84]	; 0x54
 8001e9a:	e008      	b.n	8001eae <UART_SetConfig+0x2ee>
 8001e9c:	2004      	movs	r0, #4
 8001e9e:	9015      	str	r0, [sp, #84]	; 0x54
 8001ea0:	e005      	b.n	8001eae <UART_SetConfig+0x2ee>
 8001ea2:	2008      	movs	r0, #8
 8001ea4:	9015      	str	r0, [sp, #84]	; 0x54
 8001ea6:	e002      	b.n	8001eae <UART_SetConfig+0x2ee>
 8001ea8:	2010      	movs	r0, #16
 8001eaa:	9015      	str	r0, [sp, #84]	; 0x54
 8001eac:	e7ff      	b.n	8001eae <UART_SetConfig+0x2ee>
 8001eae:	e7ff      	b.n	8001eb0 <UART_SetConfig+0x2f0>
 8001eb0:	e7ff      	b.n	8001eb2 <UART_SetConfig+0x2f2>
 8001eb2:	e7ff      	b.n	8001eb4 <UART_SetConfig+0x2f4>
 8001eb4:	e7ff      	b.n	8001eb6 <UART_SetConfig+0x2f6>
 8001eb6:	e7ff      	b.n	8001eb8 <UART_SetConfig+0x2f8>
 8001eb8:	e7ff      	b.n	8001eba <UART_SetConfig+0x2fa>
 8001eba:	e7ff      	b.n	8001ebc <UART_SetConfig+0x2fc>
 8001ebc:	9817      	ldr	r0, [sp, #92]	; 0x5c
 8001ebe:	6800      	ldr	r0, [r0, #0]
 8001ec0:	f248 0100 	movw	r1, #32768	; 0x8000
 8001ec4:	f2c4 0100 	movt	r1, #16384	; 0x4000
 8001ec8:	4288      	cmp	r0, r1
 8001eca:	f040 80bb 	bne.w	8002044 <UART_SetConfig+0x484>
 8001ece:	e7ff      	b.n	8001ed0 <UART_SetConfig+0x310>
 8001ed0:	9815      	ldr	r0, [sp, #84]	; 0x54
 8001ed2:	2810      	cmp	r0, #16
 8001ed4:	9009      	str	r0, [sp, #36]	; 0x24
 8001ed6:	d81e      	bhi.n	8001f16 <UART_SetConfig+0x356>
 8001ed8:	9909      	ldr	r1, [sp, #36]	; 0x24
 8001eda:	e8df f001 	tbb	[pc, r1]
 8001ede:	1c09      	.short	0x1c09
 8001ee0:	1c131c0d 	.word	0x1c131c0d
 8001ee4:	1c171c1c 	.word	0x1c171c1c
 8001ee8:	1c1c1c1c 	.word	0x1c1c1c1c
 8001eec:	001b1c1c 	.word	0x001b1c1c
 8001ef0:	f7ff fc2a 	bl	8001748 <HAL_RCC_GetPCLK1Freq>
 8001ef4:	9011      	str	r0, [sp, #68]	; 0x44
 8001ef6:	e011      	b.n	8001f1c <UART_SetConfig+0x35c>
 8001ef8:	f242 4000 	movw	r0, #9216	; 0x2400
 8001efc:	f2c0 00f4 	movt	r0, #244	; 0xf4
 8001f00:	9011      	str	r0, [sp, #68]	; 0x44
 8001f02:	e00b      	b.n	8001f1c <UART_SetConfig+0x35c>
 8001f04:	f7ff fb53 	bl	80015ae <HAL_RCC_GetSysClockFreq>
 8001f08:	9011      	str	r0, [sp, #68]	; 0x44
 8001f0a:	e007      	b.n	8001f1c <UART_SetConfig+0x35c>
 8001f0c:	f44f 4000 	mov.w	r0, #32768	; 0x8000
 8001f10:	9011      	str	r0, [sp, #68]	; 0x44
 8001f12:	e003      	b.n	8001f1c <UART_SetConfig+0x35c>
 8001f14:	e7ff      	b.n	8001f16 <UART_SetConfig+0x356>
 8001f16:	2001      	movs	r0, #1
 8001f18:	9012      	str	r0, [sp, #72]	; 0x48
 8001f1a:	e7ff      	b.n	8001f1c <UART_SetConfig+0x35c>
 8001f1c:	9811      	ldr	r0, [sp, #68]	; 0x44
 8001f1e:	2800      	cmp	r0, #0
 8001f20:	f000 808f 	beq.w	8002042 <UART_SetConfig+0x482>
 8001f24:	e7ff      	b.n	8001f26 <UART_SetConfig+0x366>
 8001f26:	9811      	ldr	r0, [sp, #68]	; 0x44
 8001f28:	9917      	ldr	r1, [sp, #92]	; 0x5c
 8001f2a:	6849      	ldr	r1, [r1, #4]
 8001f2c:	eb01 0141 	add.w	r1, r1, r1, lsl #1
 8001f30:	4288      	cmp	r0, r1
 8001f32:	d307      	bcc.n	8001f44 <UART_SetConfig+0x384>
 8001f34:	e7ff      	b.n	8001f36 <UART_SetConfig+0x376>
 8001f36:	9811      	ldr	r0, [sp, #68]	; 0x44
 8001f38:	9917      	ldr	r1, [sp, #92]	; 0x5c
 8001f3a:	6849      	ldr	r1, [r1, #4]
 8001f3c:	ebb0 3f01 	cmp.w	r0, r1, lsl #12
 8001f40:	d903      	bls.n	8001f4a <UART_SetConfig+0x38a>
 8001f42:	e7ff      	b.n	8001f44 <UART_SetConfig+0x384>
 8001f44:	2001      	movs	r0, #1
 8001f46:	9012      	str	r0, [sp, #72]	; 0x48
 8001f48:	e07a      	b.n	8002040 <UART_SetConfig+0x480>
 8001f4a:	9815      	ldr	r0, [sp, #84]	; 0x54
 8001f4c:	2810      	cmp	r0, #16
 8001f4e:	9008      	str	r0, [sp, #32]
 8001f50:	d85f      	bhi.n	8002012 <UART_SetConfig+0x452>
 8001f52:	9908      	ldr	r1, [sp, #32]
 8001f54:	e8df f001 	tbb	[pc, r1]
 8001f58:	5d1d5d09 	.word	0x5d1d5d09
 8001f5c:	5d5d5d33 	.word	0x5d5d5d33
 8001f60:	5d5d5d47 	.word	0x5d5d5d47
 8001f64:	5d5d5d5d 	.word	0x5d5d5d5d
 8001f68:	005c      	.short	0x005c
 8001f6a:	f7ff fbed 	bl	8001748 <HAL_RCC_GetPCLK1Freq>
 8001f6e:	ea4f 6e10 	mov.w	lr, r0, lsr #24
 8001f72:	0200      	lsls	r0, r0, #8
 8001f74:	9917      	ldr	r1, [sp, #92]	; 0x5c
 8001f76:	6849      	ldr	r1, [r1, #4]
 8001f78:	eb10 0051 	adds.w	r0, r0, r1, lsr #1
 8001f7c:	f14e 0e00 	adc.w	lr, lr, #0
 8001f80:	f04f 0300 	mov.w	r3, #0
 8001f84:	9107      	str	r1, [sp, #28]
 8001f86:	4671      	mov	r1, lr
 8001f88:	9a07      	ldr	r2, [sp, #28]
 8001f8a:	f7fe f939 	bl	8000200 <__aeabi_uldivmod>
 8001f8e:	9013      	str	r0, [sp, #76]	; 0x4c
 8001f90:	e042      	b.n	8002018 <UART_SetConfig+0x458>
 8001f92:	9817      	ldr	r0, [sp, #92]	; 0x5c
 8001f94:	6840      	ldr	r0, [r0, #4]
 8001f96:	2100      	movs	r1, #0
 8001f98:	f2cf 4124 	movt	r1, #62500	; 0xf424
 8001f9c:	eb11 0150 	adds.w	r1, r1, r0, lsr #1
 8001fa0:	f04f 0200 	mov.w	r2, #0
 8001fa4:	f142 0300 	adc.w	r3, r2, #0
 8001fa8:	9006      	str	r0, [sp, #24]
 8001faa:	4608      	mov	r0, r1
 8001fac:	4619      	mov	r1, r3
 8001fae:	9b06      	ldr	r3, [sp, #24]
 8001fb0:	9205      	str	r2, [sp, #20]
 8001fb2:	461a      	mov	r2, r3
 8001fb4:	9b05      	ldr	r3, [sp, #20]
 8001fb6:	f7fe f923 	bl	8000200 <__aeabi_uldivmod>
 8001fba:	9013      	str	r0, [sp, #76]	; 0x4c
 8001fbc:	e02c      	b.n	8002018 <UART_SetConfig+0x458>
 8001fbe:	f7ff faf6 	bl	80015ae <HAL_RCC_GetSysClockFreq>
 8001fc2:	ea4f 6e10 	mov.w	lr, r0, lsr #24
 8001fc6:	0200      	lsls	r0, r0, #8
 8001fc8:	9917      	ldr	r1, [sp, #92]	; 0x5c
 8001fca:	6849      	ldr	r1, [r1, #4]
 8001fcc:	eb10 0051 	adds.w	r0, r0, r1, lsr #1
 8001fd0:	f14e 0e00 	adc.w	lr, lr, #0
 8001fd4:	f04f 0300 	mov.w	r3, #0
 8001fd8:	9104      	str	r1, [sp, #16]
 8001fda:	4671      	mov	r1, lr
 8001fdc:	9a04      	ldr	r2, [sp, #16]
 8001fde:	f7fe f90f 	bl	8000200 <__aeabi_uldivmod>
 8001fe2:	9013      	str	r0, [sp, #76]	; 0x4c
 8001fe4:	e018      	b.n	8002018 <UART_SetConfig+0x458>
 8001fe6:	9817      	ldr	r0, [sp, #92]	; 0x5c
 8001fe8:	6840      	ldr	r0, [r0, #4]
 8001fea:	f44f 0100 	mov.w	r1, #8388608	; 0x800000
 8001fee:	eb11 0150 	adds.w	r1, r1, r0, lsr #1
 8001ff2:	f04f 0200 	mov.w	r2, #0
 8001ff6:	f142 0300 	adc.w	r3, r2, #0
 8001ffa:	9003      	str	r0, [sp, #12]
 8001ffc:	4608      	mov	r0, r1
 8001ffe:	4619      	mov	r1, r3
 8002000:	9b03      	ldr	r3, [sp, #12]
 8002002:	9202      	str	r2, [sp, #8]
 8002004:	461a      	mov	r2, r3
 8002006:	9b02      	ldr	r3, [sp, #8]
 8002008:	f7fe f8fa 	bl	8000200 <__aeabi_uldivmod>
 800200c:	9013      	str	r0, [sp, #76]	; 0x4c
 800200e:	e003      	b.n	8002018 <UART_SetConfig+0x458>
 8002010:	e7ff      	b.n	8002012 <UART_SetConfig+0x452>
 8002012:	2001      	movs	r0, #1
 8002014:	9012      	str	r0, [sp, #72]	; 0x48
 8002016:	e7ff      	b.n	8002018 <UART_SetConfig+0x458>
 8002018:	9813      	ldr	r0, [sp, #76]	; 0x4c
 800201a:	f5b0 7f40 	cmp.w	r0, #768	; 0x300
 800201e:	d30b      	bcc.n	8002038 <UART_SetConfig+0x478>
 8002020:	e7ff      	b.n	8002022 <UART_SetConfig+0x462>
 8002022:	9813      	ldr	r0, [sp, #76]	; 0x4c
 8002024:	2100      	movs	r1, #0
 8002026:	ebb1 5f10 	cmp.w	r1, r0, lsr #20
 800202a:	d105      	bne.n	8002038 <UART_SetConfig+0x478>
 800202c:	e7ff      	b.n	800202e <UART_SetConfig+0x46e>
 800202e:	9813      	ldr	r0, [sp, #76]	; 0x4c
 8002030:	9917      	ldr	r1, [sp, #92]	; 0x5c
 8002032:	6809      	ldr	r1, [r1, #0]
 8002034:	60c8      	str	r0, [r1, #12]
 8002036:	e002      	b.n	800203e <UART_SetConfig+0x47e>
 8002038:	2001      	movs	r0, #1
 800203a:	9012      	str	r0, [sp, #72]	; 0x48
 800203c:	e7ff      	b.n	800203e <UART_SetConfig+0x47e>
 800203e:	e7ff      	b.n	8002040 <UART_SetConfig+0x480>
 8002040:	e7ff      	b.n	8002042 <UART_SetConfig+0x482>
 8002042:	e0e4      	b.n	800220e <UART_SetConfig+0x64e>
 8002044:	9817      	ldr	r0, [sp, #92]	; 0x5c
 8002046:	69c0      	ldr	r0, [r0, #28]
 8002048:	f5b0 4f00 	cmp.w	r0, #32768	; 0x8000
 800204c:	f040 8079 	bne.w	8002142 <UART_SetConfig+0x582>
 8002050:	e7ff      	b.n	8002052 <UART_SetConfig+0x492>
 8002052:	9815      	ldr	r0, [sp, #84]	; 0x54
 8002054:	2810      	cmp	r0, #16
 8002056:	9001      	str	r0, [sp, #4]
 8002058:	d84e      	bhi.n	80020f8 <UART_SetConfig+0x538>
 800205a:	9901      	ldr	r1, [sp, #4]
 800205c:	e8df f001 	tbb	[pc, r1]
 8002060:	4c251709 	.word	0x4c251709
 8002064:	4c4c4c32 	.word	0x4c4c4c32
 8002068:	4c4c4c40 	.word	0x4c4c4c40
 800206c:	4c4c4c4c 	.word	0x4c4c4c4c
 8002070:	004b      	.short	0x004b
 8002072:	f7ff fb69 	bl	8001748 <HAL_RCC_GetPCLK1Freq>
 8002076:	0040      	lsls	r0, r0, #1
 8002078:	f8dd e05c 	ldr.w	lr, [sp, #92]	; 0x5c
 800207c:	f8de e004 	ldr.w	lr, [lr, #4]
 8002080:	eb00 005e 	add.w	r0, r0, lr, lsr #1
 8002084:	fbb0 f0fe 	udiv	r0, r0, lr
 8002088:	b280      	uxth	r0, r0
 800208a:	9013      	str	r0, [sp, #76]	; 0x4c
 800208c:	e037      	b.n	80020fe <UART_SetConfig+0x53e>
 800208e:	f7ff fb71 	bl	8001774 <HAL_RCC_GetPCLK2Freq>
 8002092:	0040      	lsls	r0, r0, #1
 8002094:	f8dd e05c 	ldr.w	lr, [sp, #92]	; 0x5c
 8002098:	f8de e004 	ldr.w	lr, [lr, #4]
 800209c:	eb00 005e 	add.w	r0, r0, lr, lsr #1
 80020a0:	fbb0 f0fe 	udiv	r0, r0, lr
 80020a4:	b280      	uxth	r0, r0
 80020a6:	9013      	str	r0, [sp, #76]	; 0x4c
 80020a8:	e029      	b.n	80020fe <UART_SetConfig+0x53e>
 80020aa:	9817      	ldr	r0, [sp, #92]	; 0x5c
 80020ac:	6840      	ldr	r0, [r0, #4]
 80020ae:	f644 0100 	movw	r1, #18432	; 0x4800
 80020b2:	f2c0 11e8 	movt	r1, #488	; 0x1e8
 80020b6:	eb01 0150 	add.w	r1, r1, r0, lsr #1
 80020ba:	fbb1 f0f0 	udiv	r0, r1, r0
 80020be:	b280      	uxth	r0, r0
 80020c0:	9013      	str	r0, [sp, #76]	; 0x4c
 80020c2:	e01c      	b.n	80020fe <UART_SetConfig+0x53e>
 80020c4:	f7ff fa73 	bl	80015ae <HAL_RCC_GetSysClockFreq>
 80020c8:	0040      	lsls	r0, r0, #1
 80020ca:	f8dd e05c 	ldr.w	lr, [sp, #92]	; 0x5c
 80020ce:	f8de e004 	ldr.w	lr, [lr, #4]
 80020d2:	eb00 005e 	add.w	r0, r0, lr, lsr #1
 80020d6:	fbb0 f0fe 	udiv	r0, r0, lr
 80020da:	b280      	uxth	r0, r0
 80020dc:	9013      	str	r0, [sp, #76]	; 0x4c
 80020de:	e00e      	b.n	80020fe <UART_SetConfig+0x53e>
 80020e0:	9817      	ldr	r0, [sp, #92]	; 0x5c
 80020e2:	6840      	ldr	r0, [r0, #4]
 80020e4:	f44f 3180 	mov.w	r1, #65536	; 0x10000
 80020e8:	eb01 0150 	add.w	r1, r1, r0, lsr #1
 80020ec:	fbb1 f0f0 	udiv	r0, r1, r0
 80020f0:	b280      	uxth	r0, r0
 80020f2:	9013      	str	r0, [sp, #76]	; 0x4c
 80020f4:	e003      	b.n	80020fe <UART_SetConfig+0x53e>
 80020f6:	e7ff      	b.n	80020f8 <UART_SetConfig+0x538>
 80020f8:	2001      	movs	r0, #1
 80020fa:	9012      	str	r0, [sp, #72]	; 0x48
 80020fc:	e7ff      	b.n	80020fe <UART_SetConfig+0x53e>
 80020fe:	9813      	ldr	r0, [sp, #76]	; 0x4c
 8002100:	2810      	cmp	r0, #16
 8002102:	d31a      	bcc.n	800213a <UART_SetConfig+0x57a>
 8002104:	e7ff      	b.n	8002106 <UART_SetConfig+0x546>
 8002106:	f8bd 004e 	ldrh.w	r0, [sp, #78]	; 0x4e
 800210a:	2800      	cmp	r0, #0
 800210c:	d115      	bne.n	800213a <UART_SetConfig+0x57a>
 800210e:	e7ff      	b.n	8002110 <UART_SetConfig+0x550>
 8002110:	9813      	ldr	r0, [sp, #76]	; 0x4c
 8002112:	f64f 71f0 	movw	r1, #65520	; 0xfff0
 8002116:	4008      	ands	r0, r1
 8002118:	f827 0c0e 	strh.w	r0, [r7, #-14]
 800211c:	9813      	ldr	r0, [sp, #76]	; 0x4c
 800211e:	f000 000e 	and.w	r0, r0, #14
 8002122:	f837 1c0e 	ldrh.w	r1, [r7, #-14]
 8002126:	ea41 0050 	orr.w	r0, r1, r0, lsr #1
 800212a:	f827 0c0e 	strh.w	r0, [r7, #-14]
 800212e:	f837 0c0e 	ldrh.w	r0, [r7, #-14]
 8002132:	9917      	ldr	r1, [sp, #92]	; 0x5c
 8002134:	6809      	ldr	r1, [r1, #0]
 8002136:	60c8      	str	r0, [r1, #12]
 8002138:	e002      	b.n	8002140 <UART_SetConfig+0x580>
 800213a:	2001      	movs	r0, #1
 800213c:	9012      	str	r0, [sp, #72]	; 0x48
 800213e:	e7ff      	b.n	8002140 <UART_SetConfig+0x580>
 8002140:	e064      	b.n	800220c <UART_SetConfig+0x64c>
 8002142:	9815      	ldr	r0, [sp, #84]	; 0x54
 8002144:	2810      	cmp	r0, #16
 8002146:	9000      	str	r0, [sp, #0]
 8002148:	d84b      	bhi.n	80021e2 <UART_SetConfig+0x622>
 800214a:	9900      	ldr	r1, [sp, #0]
 800214c:	e8df f001 	tbb	[pc, r1]
 8002150:	49231609 	.word	0x49231609
 8002154:	49494930 	.word	0x49494930
 8002158:	4949493d 	.word	0x4949493d
 800215c:	49494949 	.word	0x49494949
 8002160:	0048      	.short	0x0048
 8002162:	f7ff faf1 	bl	8001748 <HAL_RCC_GetPCLK1Freq>
 8002166:	f8dd e05c 	ldr.w	lr, [sp, #92]	; 0x5c
 800216a:	f8de e004 	ldr.w	lr, [lr, #4]
 800216e:	eb00 005e 	add.w	r0, r0, lr, lsr #1
 8002172:	fbb0 f0fe 	udiv	r0, r0, lr
 8002176:	b280      	uxth	r0, r0
 8002178:	9013      	str	r0, [sp, #76]	; 0x4c
 800217a:	e035      	b.n	80021e8 <UART_SetConfig+0x628>
 800217c:	f7ff fafa 	bl	8001774 <HAL_RCC_GetPCLK2Freq>
 8002180:	f8dd e05c 	ldr.w	lr, [sp, #92]	; 0x5c
 8002184:	f8de e004 	ldr.w	lr, [lr, #4]
 8002188:	eb00 005e 	add.w	r0, r0, lr, lsr #1
 800218c:	fbb0 f0fe 	udiv	r0, r0, lr
 8002190:	b280      	uxth	r0, r0
 8002192:	9013      	str	r0, [sp, #76]	; 0x4c
 8002194:	e028      	b.n	80021e8 <UART_SetConfig+0x628>
 8002196:	9817      	ldr	r0, [sp, #92]	; 0x5c
 8002198:	6840      	ldr	r0, [r0, #4]
 800219a:	f242 4100 	movw	r1, #9216	; 0x2400
 800219e:	f2c0 01f4 	movt	r1, #244	; 0xf4
 80021a2:	eb01 0150 	add.w	r1, r1, r0, lsr #1
 80021a6:	fbb1 f0f0 	udiv	r0, r1, r0
 80021aa:	b280      	uxth	r0, r0
 80021ac:	9013      	str	r0, [sp, #76]	; 0x4c
 80021ae:	e01b      	b.n	80021e8 <UART_SetConfig+0x628>
 80021b0:	f7ff f9fd 	bl	80015ae <HAL_RCC_GetSysClockFreq>
 80021b4:	f8dd e05c 	ldr.w	lr, [sp, #92]	; 0x5c
 80021b8:	f8de e004 	ldr.w	lr, [lr, #4]
 80021bc:	eb00 005e 	add.w	r0, r0, lr, lsr #1
 80021c0:	fbb0 f0fe 	udiv	r0, r0, lr
 80021c4:	b280      	uxth	r0, r0
 80021c6:	9013      	str	r0, [sp, #76]	; 0x4c
 80021c8:	e00e      	b.n	80021e8 <UART_SetConfig+0x628>
 80021ca:	9817      	ldr	r0, [sp, #92]	; 0x5c
 80021cc:	6840      	ldr	r0, [r0, #4]
 80021ce:	f44f 4100 	mov.w	r1, #32768	; 0x8000
 80021d2:	eb01 0150 	add.w	r1, r1, r0, lsr #1
 80021d6:	fbb1 f0f0 	udiv	r0, r1, r0
 80021da:	b280      	uxth	r0, r0
 80021dc:	9013      	str	r0, [sp, #76]	; 0x4c
 80021de:	e003      	b.n	80021e8 <UART_SetConfig+0x628>
 80021e0:	e7ff      	b.n	80021e2 <UART_SetConfig+0x622>
 80021e2:	2001      	movs	r0, #1
 80021e4:	9012      	str	r0, [sp, #72]	; 0x48
 80021e6:	e7ff      	b.n	80021e8 <UART_SetConfig+0x628>
 80021e8:	9813      	ldr	r0, [sp, #76]	; 0x4c
 80021ea:	2810      	cmp	r0, #16
 80021ec:	d30a      	bcc.n	8002204 <UART_SetConfig+0x644>
 80021ee:	e7ff      	b.n	80021f0 <UART_SetConfig+0x630>
 80021f0:	f8bd 004e 	ldrh.w	r0, [sp, #78]	; 0x4e
 80021f4:	2800      	cmp	r0, #0
 80021f6:	d105      	bne.n	8002204 <UART_SetConfig+0x644>
 80021f8:	e7ff      	b.n	80021fa <UART_SetConfig+0x63a>
 80021fa:	9813      	ldr	r0, [sp, #76]	; 0x4c
 80021fc:	9917      	ldr	r1, [sp, #92]	; 0x5c
 80021fe:	6809      	ldr	r1, [r1, #0]
 8002200:	60c8      	str	r0, [r1, #12]
 8002202:	e002      	b.n	800220a <UART_SetConfig+0x64a>
 8002204:	2001      	movs	r0, #1
 8002206:	9012      	str	r0, [sp, #72]	; 0x48
 8002208:	e7ff      	b.n	800220a <UART_SetConfig+0x64a>
 800220a:	e7ff      	b.n	800220c <UART_SetConfig+0x64c>
 800220c:	e7ff      	b.n	800220e <UART_SetConfig+0x64e>
 800220e:	9817      	ldr	r0, [sp, #92]	; 0x5c
 8002210:	2100      	movs	r1, #0
 8002212:	6601      	str	r1, [r0, #96]	; 0x60
 8002214:	9817      	ldr	r0, [sp, #92]	; 0x5c
 8002216:	6641      	str	r1, [r0, #100]	; 0x64
 8002218:	9812      	ldr	r0, [sp, #72]	; 0x48
 800221a:	b018      	add	sp, #96	; 0x60
 800221c:	bd80      	pop	{r7, pc}

0800221e <UART_AdvFeatureConfig>:
 800221e:	b082      	sub	sp, #8
 8002220:	4601      	mov	r1, r0
 8002222:	9001      	str	r0, [sp, #4]
 8002224:	9801      	ldr	r0, [sp, #4]
 8002226:	6a40      	ldr	r0, [r0, #36]	; 0x24
 8002228:	07c0      	lsls	r0, r0, #31
 800222a:	2800      	cmp	r0, #0
 800222c:	9100      	str	r1, [sp, #0]
 800222e:	d00b      	beq.n	8002248 <UART_AdvFeatureConfig+0x2a>
 8002230:	e7ff      	b.n	8002232 <UART_AdvFeatureConfig+0x14>
 8002232:	9801      	ldr	r0, [sp, #4]
 8002234:	6800      	ldr	r0, [r0, #0]
 8002236:	6840      	ldr	r0, [r0, #4]
 8002238:	f420 3000 	bic.w	r0, r0, #131072	; 0x20000
 800223c:	9901      	ldr	r1, [sp, #4]
 800223e:	680a      	ldr	r2, [r1, #0]
 8002240:	6a89      	ldr	r1, [r1, #40]	; 0x28
 8002242:	4308      	orrs	r0, r1
 8002244:	6050      	str	r0, [r2, #4]
 8002246:	e7ff      	b.n	8002248 <UART_AdvFeatureConfig+0x2a>
 8002248:	9801      	ldr	r0, [sp, #4]
 800224a:	6a40      	ldr	r0, [r0, #36]	; 0x24
 800224c:	0780      	lsls	r0, r0, #30
 800224e:	2800      	cmp	r0, #0
 8002250:	d50b      	bpl.n	800226a <UART_AdvFeatureConfig+0x4c>
 8002252:	e7ff      	b.n	8002254 <UART_AdvFeatureConfig+0x36>
 8002254:	9801      	ldr	r0, [sp, #4]
 8002256:	6800      	ldr	r0, [r0, #0]
 8002258:	6840      	ldr	r0, [r0, #4]
 800225a:	f420 3080 	bic.w	r0, r0, #65536	; 0x10000
 800225e:	9901      	ldr	r1, [sp, #4]
 8002260:	680a      	ldr	r2, [r1, #0]
 8002262:	6ac9      	ldr	r1, [r1, #44]	; 0x2c
 8002264:	4308      	orrs	r0, r1
 8002266:	6050      	str	r0, [r2, #4]
 8002268:	e7ff      	b.n	800226a <UART_AdvFeatureConfig+0x4c>
 800226a:	9801      	ldr	r0, [sp, #4]
 800226c:	6a40      	ldr	r0, [r0, #36]	; 0x24
 800226e:	0740      	lsls	r0, r0, #29
 8002270:	2800      	cmp	r0, #0
 8002272:	d50b      	bpl.n	800228c <UART_AdvFeatureConfig+0x6e>
 8002274:	e7ff      	b.n	8002276 <UART_AdvFeatureConfig+0x58>
 8002276:	9801      	ldr	r0, [sp, #4]
 8002278:	6800      	ldr	r0, [r0, #0]
 800227a:	6840      	ldr	r0, [r0, #4]
 800227c:	f420 2080 	bic.w	r0, r0, #262144	; 0x40000
 8002280:	9901      	ldr	r1, [sp, #4]
 8002282:	680a      	ldr	r2, [r1, #0]
 8002284:	6b09      	ldr	r1, [r1, #48]	; 0x30
 8002286:	4308      	orrs	r0, r1
 8002288:	6050      	str	r0, [r2, #4]
 800228a:	e7ff      	b.n	800228c <UART_AdvFeatureConfig+0x6e>
 800228c:	9801      	ldr	r0, [sp, #4]
 800228e:	6a40      	ldr	r0, [r0, #36]	; 0x24
 8002290:	0700      	lsls	r0, r0, #28
 8002292:	2800      	cmp	r0, #0
 8002294:	d50b      	bpl.n	80022ae <UART_AdvFeatureConfig+0x90>
 8002296:	e7ff      	b.n	8002298 <UART_AdvFeatureConfig+0x7a>
 8002298:	9801      	ldr	r0, [sp, #4]
 800229a:	6800      	ldr	r0, [r0, #0]
 800229c:	6840      	ldr	r0, [r0, #4]
 800229e:	f420 4000 	bic.w	r0, r0, #32768	; 0x8000
 80022a2:	9901      	ldr	r1, [sp, #4]
 80022a4:	680a      	ldr	r2, [r1, #0]
 80022a6:	6b49      	ldr	r1, [r1, #52]	; 0x34
 80022a8:	4308      	orrs	r0, r1
 80022aa:	6050      	str	r0, [r2, #4]
 80022ac:	e7ff      	b.n	80022ae <UART_AdvFeatureConfig+0x90>
 80022ae:	9801      	ldr	r0, [sp, #4]
 80022b0:	6a40      	ldr	r0, [r0, #36]	; 0x24
 80022b2:	06c0      	lsls	r0, r0, #27
 80022b4:	2800      	cmp	r0, #0
 80022b6:	d50b      	bpl.n	80022d0 <UART_AdvFeatureConfig+0xb2>
 80022b8:	e7ff      	b.n	80022ba <UART_AdvFeatureConfig+0x9c>
 80022ba:	9801      	ldr	r0, [sp, #4]
 80022bc:	6800      	ldr	r0, [r0, #0]
 80022be:	6880      	ldr	r0, [r0, #8]
 80022c0:	f420 5080 	bic.w	r0, r0, #4096	; 0x1000
 80022c4:	9901      	ldr	r1, [sp, #4]
 80022c6:	680a      	ldr	r2, [r1, #0]
 80022c8:	6b89      	ldr	r1, [r1, #56]	; 0x38
 80022ca:	4308      	orrs	r0, r1
 80022cc:	6090      	str	r0, [r2, #8]
 80022ce:	e7ff      	b.n	80022d0 <UART_AdvFeatureConfig+0xb2>
 80022d0:	9801      	ldr	r0, [sp, #4]
 80022d2:	6a40      	ldr	r0, [r0, #36]	; 0x24
 80022d4:	0680      	lsls	r0, r0, #26
 80022d6:	2800      	cmp	r0, #0
 80022d8:	d50b      	bpl.n	80022f2 <UART_AdvFeatureConfig+0xd4>
 80022da:	e7ff      	b.n	80022dc <UART_AdvFeatureConfig+0xbe>
 80022dc:	9801      	ldr	r0, [sp, #4]
 80022de:	6800      	ldr	r0, [r0, #0]
 80022e0:	6880      	ldr	r0, [r0, #8]
 80022e2:	f420 5000 	bic.w	r0, r0, #8192	; 0x2000
 80022e6:	9901      	ldr	r1, [sp, #4]
 80022e8:	680a      	ldr	r2, [r1, #0]
 80022ea:	6bc9      	ldr	r1, [r1, #60]	; 0x3c
 80022ec:	4308      	orrs	r0, r1
 80022ee:	6090      	str	r0, [r2, #8]
 80022f0:	e7ff      	b.n	80022f2 <UART_AdvFeatureConfig+0xd4>
 80022f2:	9801      	ldr	r0, [sp, #4]
 80022f4:	6a40      	ldr	r0, [r0, #36]	; 0x24
 80022f6:	0640      	lsls	r0, r0, #25
 80022f8:	2800      	cmp	r0, #0
 80022fa:	d51c      	bpl.n	8002336 <UART_AdvFeatureConfig+0x118>
 80022fc:	e7ff      	b.n	80022fe <UART_AdvFeatureConfig+0xe0>
 80022fe:	9801      	ldr	r0, [sp, #4]
 8002300:	6800      	ldr	r0, [r0, #0]
 8002302:	6840      	ldr	r0, [r0, #4]
 8002304:	f420 1080 	bic.w	r0, r0, #1048576	; 0x100000
 8002308:	9901      	ldr	r1, [sp, #4]
 800230a:	680a      	ldr	r2, [r1, #0]
 800230c:	6c09      	ldr	r1, [r1, #64]	; 0x40
 800230e:	4308      	orrs	r0, r1
 8002310:	6050      	str	r0, [r2, #4]
 8002312:	9801      	ldr	r0, [sp, #4]
 8002314:	6c00      	ldr	r0, [r0, #64]	; 0x40
 8002316:	f5b0 1f80 	cmp.w	r0, #1048576	; 0x100000
 800231a:	d10b      	bne.n	8002334 <UART_AdvFeatureConfig+0x116>
 800231c:	e7ff      	b.n	800231e <UART_AdvFeatureConfig+0x100>
 800231e:	9801      	ldr	r0, [sp, #4]
 8002320:	6800      	ldr	r0, [r0, #0]
 8002322:	6840      	ldr	r0, [r0, #4]
 8002324:	f420 00c0 	bic.w	r0, r0, #6291456	; 0x600000
 8002328:	9901      	ldr	r1, [sp, #4]
 800232a:	680a      	ldr	r2, [r1, #0]
 800232c:	6c49      	ldr	r1, [r1, #68]	; 0x44
 800232e:	4308      	orrs	r0, r1
 8002330:	6050      	str	r0, [r2, #4]
 8002332:	e7ff      	b.n	8002334 <UART_AdvFeatureConfig+0x116>
 8002334:	e7ff      	b.n	8002336 <UART_AdvFeatureConfig+0x118>
 8002336:	9801      	ldr	r0, [sp, #4]
 8002338:	6a40      	ldr	r0, [r0, #36]	; 0x24
 800233a:	0600      	lsls	r0, r0, #24
 800233c:	2800      	cmp	r0, #0
 800233e:	d50b      	bpl.n	8002358 <UART_AdvFeatureConfig+0x13a>
 8002340:	e7ff      	b.n	8002342 <UART_AdvFeatureConfig+0x124>
 8002342:	9801      	ldr	r0, [sp, #4]
 8002344:	6800      	ldr	r0, [r0, #0]
 8002346:	6840      	ldr	r0, [r0, #4]
 8002348:	f420 2000 	bic.w	r0, r0, #524288	; 0x80000
 800234c:	9901      	ldr	r1, [sp, #4]
 800234e:	680a      	ldr	r2, [r1, #0]
 8002350:	6c89      	ldr	r1, [r1, #72]	; 0x48
 8002352:	4308      	orrs	r0, r1
 8002354:	6050      	str	r0, [r2, #4]
 8002356:	e7ff      	b.n	8002358 <UART_AdvFeatureConfig+0x13a>
 8002358:	b002      	add	sp, #8
 800235a:	4770      	bx	lr

0800235c <UART_CheckIdleState>:
 800235c:	b580      	push	{r7, lr}
 800235e:	466f      	mov	r7, sp
 8002360:	b086      	sub	sp, #24
 8002362:	4601      	mov	r1, r0
 8002364:	9004      	str	r0, [sp, #16]
 8002366:	2000      	movs	r0, #0
 8002368:	9003      	str	r0, [sp, #12]
 800236a:	9a04      	ldr	r2, [sp, #16]
 800236c:	67d0      	str	r0, [r2, #124]	; 0x7c
 800236e:	9102      	str	r1, [sp, #8]
 8002370:	f7fe ff22 	bl	80011b8 <HAL_GetTick>
 8002374:	9003      	str	r0, [sp, #12]
 8002376:	9804      	ldr	r0, [sp, #16]
 8002378:	6800      	ldr	r0, [r0, #0]
 800237a:	6800      	ldr	r0, [r0, #0]
 800237c:	f010 0f08 	tst.w	r0, #8
 8002380:	d012      	beq.n	80023a8 <UART_CheckIdleState+0x4c>
 8002382:	e7ff      	b.n	8002384 <UART_CheckIdleState+0x28>
 8002384:	9804      	ldr	r0, [sp, #16]
 8002386:	9b03      	ldr	r3, [sp, #12]
 8002388:	4669      	mov	r1, sp
 800238a:	f06f 427e 	mvn.w	r2, #4261412864	; 0xfe000000
 800238e:	600a      	str	r2, [r1, #0]
 8002390:	f44f 1100 	mov.w	r1, #2097152	; 0x200000
 8002394:	2200      	movs	r2, #0
 8002396:	f000 f8d4 	bl	8002542 <UART_WaitOnFlagUntilTimeout>
 800239a:	2800      	cmp	r0, #0
 800239c:	d003      	beq.n	80023a6 <UART_CheckIdleState+0x4a>
 800239e:	e7ff      	b.n	80023a0 <UART_CheckIdleState+0x44>
 80023a0:	2003      	movs	r0, #3
 80023a2:	9005      	str	r0, [sp, #20]
 80023a4:	e026      	b.n	80023f4 <UART_CheckIdleState+0x98>
 80023a6:	e7ff      	b.n	80023a8 <UART_CheckIdleState+0x4c>
 80023a8:	9804      	ldr	r0, [sp, #16]
 80023aa:	6800      	ldr	r0, [r0, #0]
 80023ac:	6800      	ldr	r0, [r0, #0]
 80023ae:	f010 0f04 	tst.w	r0, #4
 80023b2:	d012      	beq.n	80023da <UART_CheckIdleState+0x7e>
 80023b4:	e7ff      	b.n	80023b6 <UART_CheckIdleState+0x5a>
 80023b6:	9804      	ldr	r0, [sp, #16]
 80023b8:	9b03      	ldr	r3, [sp, #12]
 80023ba:	4669      	mov	r1, sp
 80023bc:	f06f 427e 	mvn.w	r2, #4261412864	; 0xfe000000
 80023c0:	600a      	str	r2, [r1, #0]
 80023c2:	f44f 0180 	mov.w	r1, #4194304	; 0x400000
 80023c6:	2200      	movs	r2, #0
 80023c8:	f000 f8bb 	bl	8002542 <UART_WaitOnFlagUntilTimeout>
 80023cc:	2800      	cmp	r0, #0
 80023ce:	d003      	beq.n	80023d8 <UART_CheckIdleState+0x7c>
 80023d0:	e7ff      	b.n	80023d2 <UART_CheckIdleState+0x76>
 80023d2:	2003      	movs	r0, #3
 80023d4:	9005      	str	r0, [sp, #20]
 80023d6:	e00d      	b.n	80023f4 <UART_CheckIdleState+0x98>
 80023d8:	e7ff      	b.n	80023da <UART_CheckIdleState+0x7e>
 80023da:	9804      	ldr	r0, [sp, #16]
 80023dc:	2120      	movs	r1, #32
 80023de:	6741      	str	r1, [r0, #116]	; 0x74
 80023e0:	9804      	ldr	r0, [sp, #16]
 80023e2:	6781      	str	r1, [r0, #120]	; 0x78
 80023e4:	e7ff      	b.n	80023e6 <UART_CheckIdleState+0x8a>
 80023e6:	9804      	ldr	r0, [sp, #16]
 80023e8:	2100      	movs	r1, #0
 80023ea:	6701      	str	r1, [r0, #112]	; 0x70
 80023ec:	e7ff      	b.n	80023ee <UART_CheckIdleState+0x92>
 80023ee:	2000      	movs	r0, #0
 80023f0:	9005      	str	r0, [sp, #20]
 80023f2:	e7ff      	b.n	80023f4 <UART_CheckIdleState+0x98>
 80023f4:	9805      	ldr	r0, [sp, #20]
 80023f6:	b006      	add	sp, #24
 80023f8:	bd80      	pop	{r7, pc}

080023fa <HAL_UART_Transmit>:
 80023fa:	b5b0      	push	{r4, r5, r7, lr}
 80023fc:	af02      	add	r7, sp, #8
 80023fe:	b08c      	sub	sp, #48	; 0x30
 8002400:	469c      	mov	ip, r3
 8002402:	4696      	mov	lr, r2
 8002404:	460c      	mov	r4, r1
 8002406:	4605      	mov	r5, r0
 8002408:	900a      	str	r0, [sp, #40]	; 0x28
 800240a:	9109      	str	r1, [sp, #36]	; 0x24
 800240c:	f827 2c16 	strh.w	r2, [r7, #-22]
 8002410:	9307      	str	r3, [sp, #28]
 8002412:	2000      	movs	r0, #0
 8002414:	9005      	str	r0, [sp, #20]
 8002416:	980a      	ldr	r0, [sp, #40]	; 0x28
 8002418:	6f40      	ldr	r0, [r0, #116]	; 0x74
 800241a:	2820      	cmp	r0, #32
 800241c:	f8cd c010 	str.w	ip, [sp, #16]
 8002420:	f8cd e00c 	str.w	lr, [sp, #12]
 8002424:	9402      	str	r4, [sp, #8]
 8002426:	9501      	str	r5, [sp, #4]
 8002428:	f040 8085 	bne.w	8002536 <HAL_UART_Transmit+0x13c>
 800242c:	e7ff      	b.n	800242e <HAL_UART_Transmit+0x34>
 800242e:	9809      	ldr	r0, [sp, #36]	; 0x24
 8002430:	2800      	cmp	r0, #0
 8002432:	d005      	beq.n	8002440 <HAL_UART_Transmit+0x46>
 8002434:	e7ff      	b.n	8002436 <HAL_UART_Transmit+0x3c>
 8002436:	f837 0c16 	ldrh.w	r0, [r7, #-22]
 800243a:	2800      	cmp	r0, #0
 800243c:	d103      	bne.n	8002446 <HAL_UART_Transmit+0x4c>
 800243e:	e7ff      	b.n	8002440 <HAL_UART_Transmit+0x46>
 8002440:	2001      	movs	r0, #1
 8002442:	900b      	str	r0, [sp, #44]	; 0x2c
 8002444:	e07a      	b.n	800253c <HAL_UART_Transmit+0x142>
 8002446:	e7ff      	b.n	8002448 <HAL_UART_Transmit+0x4e>
 8002448:	980a      	ldr	r0, [sp, #40]	; 0x28
 800244a:	6f00      	ldr	r0, [r0, #112]	; 0x70
 800244c:	2801      	cmp	r0, #1
 800244e:	d103      	bne.n	8002458 <HAL_UART_Transmit+0x5e>
 8002450:	e7ff      	b.n	8002452 <HAL_UART_Transmit+0x58>
 8002452:	2002      	movs	r0, #2
 8002454:	900b      	str	r0, [sp, #44]	; 0x2c
 8002456:	e071      	b.n	800253c <HAL_UART_Transmit+0x142>
 8002458:	980a      	ldr	r0, [sp, #40]	; 0x28
 800245a:	2101      	movs	r1, #1
 800245c:	6701      	str	r1, [r0, #112]	; 0x70
 800245e:	e7ff      	b.n	8002460 <HAL_UART_Transmit+0x66>
 8002460:	e7ff      	b.n	8002462 <HAL_UART_Transmit+0x68>
 8002462:	980a      	ldr	r0, [sp, #40]	; 0x28
 8002464:	2100      	movs	r1, #0
 8002466:	67c1      	str	r1, [r0, #124]	; 0x7c
 8002468:	980a      	ldr	r0, [sp, #40]	; 0x28
 800246a:	2121      	movs	r1, #33	; 0x21
 800246c:	6741      	str	r1, [r0, #116]	; 0x74
 800246e:	f7fe fea3 	bl	80011b8 <HAL_GetTick>
 8002472:	9005      	str	r0, [sp, #20]
 8002474:	f837 0c16 	ldrh.w	r0, [r7, #-22]
 8002478:	990a      	ldr	r1, [sp, #40]	; 0x28
 800247a:	f8a1 0050 	strh.w	r0, [r1, #80]	; 0x50
 800247e:	f837 0c16 	ldrh.w	r0, [r7, #-22]
 8002482:	990a      	ldr	r1, [sp, #40]	; 0x28
 8002484:	f8a1 0052 	strh.w	r0, [r1, #82]	; 0x52
 8002488:	e7ff      	b.n	800248a <HAL_UART_Transmit+0x90>
 800248a:	980a      	ldr	r0, [sp, #40]	; 0x28
 800248c:	f8b0 0052 	ldrh.w	r0, [r0, #82]	; 0x52
 8002490:	2800      	cmp	r0, #0
 8002492:	d036      	beq.n	8002502 <HAL_UART_Transmit+0x108>
 8002494:	e7ff      	b.n	8002496 <HAL_UART_Transmit+0x9c>
 8002496:	980a      	ldr	r0, [sp, #40]	; 0x28
 8002498:	9b05      	ldr	r3, [sp, #20]
 800249a:	9907      	ldr	r1, [sp, #28]
 800249c:	466a      	mov	r2, sp
 800249e:	6011      	str	r1, [r2, #0]
 80024a0:	2180      	movs	r1, #128	; 0x80
 80024a2:	2200      	movs	r2, #0
 80024a4:	f000 f84d 	bl	8002542 <UART_WaitOnFlagUntilTimeout>
 80024a8:	2800      	cmp	r0, #0
 80024aa:	d003      	beq.n	80024b4 <HAL_UART_Transmit+0xba>
 80024ac:	e7ff      	b.n	80024ae <HAL_UART_Transmit+0xb4>
 80024ae:	2003      	movs	r0, #3
 80024b0:	900b      	str	r0, [sp, #44]	; 0x2c
 80024b2:	e043      	b.n	800253c <HAL_UART_Transmit+0x142>
 80024b4:	980a      	ldr	r0, [sp, #40]	; 0x28
 80024b6:	6880      	ldr	r0, [r0, #8]
 80024b8:	f5b0 5f80 	cmp.w	r0, #4096	; 0x1000
 80024bc:	d112      	bne.n	80024e4 <HAL_UART_Transmit+0xea>
 80024be:	e7ff      	b.n	80024c0 <HAL_UART_Transmit+0xc6>
 80024c0:	980a      	ldr	r0, [sp, #40]	; 0x28
 80024c2:	6900      	ldr	r0, [r0, #16]
 80024c4:	2800      	cmp	r0, #0
 80024c6:	d10d      	bne.n	80024e4 <HAL_UART_Transmit+0xea>
 80024c8:	e7ff      	b.n	80024ca <HAL_UART_Transmit+0xd0>
 80024ca:	9809      	ldr	r0, [sp, #36]	; 0x24
 80024cc:	9006      	str	r0, [sp, #24]
 80024ce:	9806      	ldr	r0, [sp, #24]
 80024d0:	8800      	ldrh	r0, [r0, #0]
 80024d2:	f36f 205f 	bfc	r0, #9, #23
 80024d6:	990a      	ldr	r1, [sp, #40]	; 0x28
 80024d8:	6809      	ldr	r1, [r1, #0]
 80024da:	8508      	strh	r0, [r1, #40]	; 0x28
 80024dc:	9809      	ldr	r0, [sp, #36]	; 0x24
 80024de:	3002      	adds	r0, #2
 80024e0:	9009      	str	r0, [sp, #36]	; 0x24
 80024e2:	e007      	b.n	80024f4 <HAL_UART_Transmit+0xfa>
 80024e4:	9809      	ldr	r0, [sp, #36]	; 0x24
 80024e6:	1c41      	adds	r1, r0, #1
 80024e8:	9109      	str	r1, [sp, #36]	; 0x24
 80024ea:	7800      	ldrb	r0, [r0, #0]
 80024ec:	990a      	ldr	r1, [sp, #40]	; 0x28
 80024ee:	6809      	ldr	r1, [r1, #0]
 80024f0:	8508      	strh	r0, [r1, #40]	; 0x28
 80024f2:	e7ff      	b.n	80024f4 <HAL_UART_Transmit+0xfa>
 80024f4:	980a      	ldr	r0, [sp, #40]	; 0x28
 80024f6:	f8b0 1052 	ldrh.w	r1, [r0, #82]	; 0x52
 80024fa:	3901      	subs	r1, #1
 80024fc:	f8a0 1052 	strh.w	r1, [r0, #82]	; 0x52
 8002500:	e7c3      	b.n	800248a <HAL_UART_Transmit+0x90>
 8002502:	980a      	ldr	r0, [sp, #40]	; 0x28
 8002504:	9b05      	ldr	r3, [sp, #20]
 8002506:	9907      	ldr	r1, [sp, #28]
 8002508:	466a      	mov	r2, sp
 800250a:	6011      	str	r1, [r2, #0]
 800250c:	2140      	movs	r1, #64	; 0x40
 800250e:	2200      	movs	r2, #0
 8002510:	f000 f817 	bl	8002542 <UART_WaitOnFlagUntilTimeout>
 8002514:	2800      	cmp	r0, #0
 8002516:	d003      	beq.n	8002520 <HAL_UART_Transmit+0x126>
 8002518:	e7ff      	b.n	800251a <HAL_UART_Transmit+0x120>
 800251a:	2003      	movs	r0, #3
 800251c:	900b      	str	r0, [sp, #44]	; 0x2c
 800251e:	e00d      	b.n	800253c <HAL_UART_Transmit+0x142>
 8002520:	980a      	ldr	r0, [sp, #40]	; 0x28
 8002522:	2120      	movs	r1, #32
 8002524:	6741      	str	r1, [r0, #116]	; 0x74
 8002526:	e7ff      	b.n	8002528 <HAL_UART_Transmit+0x12e>
 8002528:	980a      	ldr	r0, [sp, #40]	; 0x28
 800252a:	2100      	movs	r1, #0
 800252c:	6701      	str	r1, [r0, #112]	; 0x70
 800252e:	e7ff      	b.n	8002530 <HAL_UART_Transmit+0x136>
 8002530:	2000      	movs	r0, #0
 8002532:	900b      	str	r0, [sp, #44]	; 0x2c
 8002534:	e002      	b.n	800253c <HAL_UART_Transmit+0x142>
 8002536:	2002      	movs	r0, #2
 8002538:	900b      	str	r0, [sp, #44]	; 0x2c
 800253a:	e7ff      	b.n	800253c <HAL_UART_Transmit+0x142>
 800253c:	980b      	ldr	r0, [sp, #44]	; 0x2c
 800253e:	b00c      	add	sp, #48	; 0x30
 8002540:	bdb0      	pop	{r4, r5, r7, pc}

08002542 <UART_WaitOnFlagUntilTimeout>:
 8002542:	b5f0      	push	{r4, r5, r6, r7, lr}
 8002544:	af03      	add	r7, sp, #12
 8002546:	f84d bd04 	str.w	fp, [sp, #-4]!
 800254a:	b08a      	sub	sp, #40	; 0x28
 800254c:	f8d7 c008 	ldr.w	ip, [r7, #8]
 8002550:	469e      	mov	lr, r3
 8002552:	4614      	mov	r4, r2
 8002554:	460d      	mov	r5, r1
 8002556:	4606      	mov	r6, r0
 8002558:	9008      	str	r0, [sp, #32]
 800255a:	9107      	str	r1, [sp, #28]
 800255c:	9206      	str	r2, [sp, #24]
 800255e:	9305      	str	r3, [sp, #20]
 8002560:	f8cd c010 	str.w	ip, [sp, #16]
 8002564:	f8cd e00c 	str.w	lr, [sp, #12]
 8002568:	9402      	str	r4, [sp, #8]
 800256a:	9501      	str	r5, [sp, #4]
 800256c:	9600      	str	r6, [sp, #0]
 800256e:	e7ff      	b.n	8002570 <UART_WaitOnFlagUntilTimeout+0x2e>
 8002570:	9808      	ldr	r0, [sp, #32]
 8002572:	6800      	ldr	r0, [r0, #0]
 8002574:	69c0      	ldr	r0, [r0, #28]
 8002576:	9907      	ldr	r1, [sp, #28]
 8002578:	4008      	ands	r0, r1
 800257a:	2200      	movs	r2, #0
 800257c:	4288      	cmp	r0, r1
 800257e:	bf08      	it	eq
 8002580:	2201      	moveq	r2, #1
 8002582:	9806      	ldr	r0, [sp, #24]
 8002584:	4282      	cmp	r2, r0
 8002586:	d12f      	bne.n	80025e8 <UART_WaitOnFlagUntilTimeout+0xa6>
 8002588:	e7ff      	b.n	800258a <UART_WaitOnFlagUntilTimeout+0x48>
 800258a:	9804      	ldr	r0, [sp, #16]
 800258c:	3001      	adds	r0, #1
 800258e:	2800      	cmp	r0, #0
 8002590:	d029      	beq.n	80025e6 <UART_WaitOnFlagUntilTimeout+0xa4>
 8002592:	e7ff      	b.n	8002594 <UART_WaitOnFlagUntilTimeout+0x52>
 8002594:	9804      	ldr	r0, [sp, #16]
 8002596:	2800      	cmp	r0, #0
 8002598:	d00b      	beq.n	80025b2 <UART_WaitOnFlagUntilTimeout+0x70>
 800259a:	e7ff      	b.n	800259c <UART_WaitOnFlagUntilTimeout+0x5a>
 800259c:	f7fe fe0c 	bl	80011b8 <HAL_GetTick>
 80025a0:	f8dd e014 	ldr.w	lr, [sp, #20]
 80025a4:	eba0 000e 	sub.w	r0, r0, lr
 80025a8:	f8dd e010 	ldr.w	lr, [sp, #16]
 80025ac:	4570      	cmp	r0, lr
 80025ae:	d919      	bls.n	80025e4 <UART_WaitOnFlagUntilTimeout+0xa2>
 80025b0:	e7ff      	b.n	80025b2 <UART_WaitOnFlagUntilTimeout+0x70>
 80025b2:	9808      	ldr	r0, [sp, #32]
 80025b4:	6800      	ldr	r0, [r0, #0]
 80025b6:	6801      	ldr	r1, [r0, #0]
 80025b8:	f421 71d0 	bic.w	r1, r1, #416	; 0x1a0
 80025bc:	6001      	str	r1, [r0, #0]
 80025be:	9808      	ldr	r0, [sp, #32]
 80025c0:	6800      	ldr	r0, [r0, #0]
 80025c2:	6881      	ldr	r1, [r0, #8]
 80025c4:	f021 0101 	bic.w	r1, r1, #1
 80025c8:	6081      	str	r1, [r0, #8]
 80025ca:	9808      	ldr	r0, [sp, #32]
 80025cc:	2120      	movs	r1, #32
 80025ce:	6741      	str	r1, [r0, #116]	; 0x74
 80025d0:	9808      	ldr	r0, [sp, #32]
 80025d2:	6781      	str	r1, [r0, #120]	; 0x78
 80025d4:	e7ff      	b.n	80025d6 <UART_WaitOnFlagUntilTimeout+0x94>
 80025d6:	9808      	ldr	r0, [sp, #32]
 80025d8:	2100      	movs	r1, #0
 80025da:	6701      	str	r1, [r0, #112]	; 0x70
 80025dc:	e7ff      	b.n	80025de <UART_WaitOnFlagUntilTimeout+0x9c>
 80025de:	2003      	movs	r0, #3
 80025e0:	9009      	str	r0, [sp, #36]	; 0x24
 80025e2:	e004      	b.n	80025ee <UART_WaitOnFlagUntilTimeout+0xac>
 80025e4:	e7ff      	b.n	80025e6 <UART_WaitOnFlagUntilTimeout+0xa4>
 80025e6:	e7c3      	b.n	8002570 <UART_WaitOnFlagUntilTimeout+0x2e>
 80025e8:	2000      	movs	r0, #0
 80025ea:	9009      	str	r0, [sp, #36]	; 0x24
 80025ec:	e7ff      	b.n	80025ee <UART_WaitOnFlagUntilTimeout+0xac>
 80025ee:	9809      	ldr	r0, [sp, #36]	; 0x24
 80025f0:	b00a      	add	sp, #40	; 0x28
 80025f2:	f85d bb04 	ldr.w	fp, [sp], #4
 80025f6:	bdf0      	pop	{r4, r5, r6, r7, pc}

080025f8 <osSystickHandler>:
 80025f8:	b580      	push	{r7, lr}
 80025fa:	466f      	mov	r7, sp
 80025fc:	f000 fcdc 	bl	8002fb8 <xTaskGetSchedulerState>
 8002600:	2801      	cmp	r0, #1
 8002602:	d003      	beq.n	800260c <osSystickHandler+0x14>
 8002604:	e7ff      	b.n	8002606 <osSystickHandler+0xe>
 8002606:	f000 ff65 	bl	80034d4 <xPortSysTickHandler>
 800260a:	e7ff      	b.n	800260c <osSystickHandler+0x14>
 800260c:	bd80      	pop	{r7, pc}

0800260e <vListInitialise>:
 800260e:	b082      	sub	sp, #8
 8002610:	4601      	mov	r1, r0
 8002612:	9001      	str	r0, [sp, #4]
 8002614:	9801      	ldr	r0, [sp, #4]
 8002616:	f100 0208 	add.w	r2, r0, #8
 800261a:	6042      	str	r2, [r0, #4]
 800261c:	9801      	ldr	r0, [sp, #4]
 800261e:	f04f 32ff 	mov.w	r2, #4294967295	; 0xffffffff
 8002622:	6082      	str	r2, [r0, #8]
 8002624:	9801      	ldr	r0, [sp, #4]
 8002626:	f100 0208 	add.w	r2, r0, #8
 800262a:	60c2      	str	r2, [r0, #12]
 800262c:	9801      	ldr	r0, [sp, #4]
 800262e:	f100 0208 	add.w	r2, r0, #8
 8002632:	6102      	str	r2, [r0, #16]
 8002634:	9801      	ldr	r0, [sp, #4]
 8002636:	2200      	movs	r2, #0
 8002638:	6002      	str	r2, [r0, #0]
 800263a:	9100      	str	r1, [sp, #0]
 800263c:	b002      	add	sp, #8
 800263e:	4770      	bx	lr

08002640 <vListInitialiseItem>:
 8002640:	b082      	sub	sp, #8
 8002642:	4601      	mov	r1, r0
 8002644:	9001      	str	r0, [sp, #4]
 8002646:	9801      	ldr	r0, [sp, #4]
 8002648:	2200      	movs	r2, #0
 800264a:	6102      	str	r2, [r0, #16]
 800264c:	9100      	str	r1, [sp, #0]
 800264e:	b002      	add	sp, #8
 8002650:	4770      	bx	lr

08002652 <vListInsertEnd>:
 8002652:	b085      	sub	sp, #20
 8002654:	460a      	mov	r2, r1
 8002656:	4603      	mov	r3, r0
 8002658:	9004      	str	r0, [sp, #16]
 800265a:	9103      	str	r1, [sp, #12]
 800265c:	9804      	ldr	r0, [sp, #16]
 800265e:	6840      	ldr	r0, [r0, #4]
 8002660:	9002      	str	r0, [sp, #8]
 8002662:	9802      	ldr	r0, [sp, #8]
 8002664:	9903      	ldr	r1, [sp, #12]
 8002666:	6048      	str	r0, [r1, #4]
 8002668:	9802      	ldr	r0, [sp, #8]
 800266a:	6880      	ldr	r0, [r0, #8]
 800266c:	9903      	ldr	r1, [sp, #12]
 800266e:	6088      	str	r0, [r1, #8]
 8002670:	9803      	ldr	r0, [sp, #12]
 8002672:	9902      	ldr	r1, [sp, #8]
 8002674:	6889      	ldr	r1, [r1, #8]
 8002676:	6048      	str	r0, [r1, #4]
 8002678:	9803      	ldr	r0, [sp, #12]
 800267a:	9902      	ldr	r1, [sp, #8]
 800267c:	6088      	str	r0, [r1, #8]
 800267e:	9804      	ldr	r0, [sp, #16]
 8002680:	9903      	ldr	r1, [sp, #12]
 8002682:	6108      	str	r0, [r1, #16]
 8002684:	9804      	ldr	r0, [sp, #16]
 8002686:	6801      	ldr	r1, [r0, #0]
 8002688:	3101      	adds	r1, #1
 800268a:	6001      	str	r1, [r0, #0]
 800268c:	9201      	str	r2, [sp, #4]
 800268e:	9300      	str	r3, [sp, #0]
 8002690:	b005      	add	sp, #20
 8002692:	4770      	bx	lr

08002694 <uxListRemove>:
 8002694:	b083      	sub	sp, #12
 8002696:	4601      	mov	r1, r0
 8002698:	9002      	str	r0, [sp, #8]
 800269a:	9802      	ldr	r0, [sp, #8]
 800269c:	6900      	ldr	r0, [r0, #16]
 800269e:	9001      	str	r0, [sp, #4]
 80026a0:	9802      	ldr	r0, [sp, #8]
 80026a2:	6842      	ldr	r2, [r0, #4]
 80026a4:	6880      	ldr	r0, [r0, #8]
 80026a6:	6090      	str	r0, [r2, #8]
 80026a8:	9802      	ldr	r0, [sp, #8]
 80026aa:	6842      	ldr	r2, [r0, #4]
 80026ac:	6880      	ldr	r0, [r0, #8]
 80026ae:	6042      	str	r2, [r0, #4]
 80026b0:	9801      	ldr	r0, [sp, #4]
 80026b2:	6840      	ldr	r0, [r0, #4]
 80026b4:	9a02      	ldr	r2, [sp, #8]
 80026b6:	4290      	cmp	r0, r2
 80026b8:	9100      	str	r1, [sp, #0]
 80026ba:	d105      	bne.n	80026c8 <uxListRemove+0x34>
 80026bc:	e7ff      	b.n	80026be <uxListRemove+0x2a>
 80026be:	9802      	ldr	r0, [sp, #8]
 80026c0:	6880      	ldr	r0, [r0, #8]
 80026c2:	9901      	ldr	r1, [sp, #4]
 80026c4:	6048      	str	r0, [r1, #4]
 80026c6:	e000      	b.n	80026ca <uxListRemove+0x36>
 80026c8:	e7ff      	b.n	80026ca <uxListRemove+0x36>
 80026ca:	9802      	ldr	r0, [sp, #8]
 80026cc:	2100      	movs	r1, #0
 80026ce:	6101      	str	r1, [r0, #16]
 80026d0:	9801      	ldr	r0, [sp, #4]
 80026d2:	6801      	ldr	r1, [r0, #0]
 80026d4:	3901      	subs	r1, #1
 80026d6:	6001      	str	r1, [r0, #0]
 80026d8:	9801      	ldr	r0, [sp, #4]
 80026da:	6800      	ldr	r0, [r0, #0]
 80026dc:	b003      	add	sp, #12
 80026de:	4770      	bx	lr

080026e0 <xTaskCreate>:
 80026e0:	b5f0      	push	{r4, r5, r6, r7, lr}
 80026e2:	af03      	add	r7, sp, #12
 80026e4:	f84d 8d04 	str.w	r8, [sp, #-4]!
 80026e8:	b092      	sub	sp, #72	; 0x48
 80026ea:	f8d7 c00c 	ldr.w	ip, [r7, #12]
 80026ee:	f8d7 e008 	ldr.w	lr, [r7, #8]
 80026f2:	461c      	mov	r4, r3
 80026f4:	4615      	mov	r5, r2
 80026f6:	460e      	mov	r6, r1
 80026f8:	4680      	mov	r8, r0
 80026fa:	9011      	str	r0, [sp, #68]	; 0x44
 80026fc:	9110      	str	r1, [sp, #64]	; 0x40
 80026fe:	f827 2c1a 	strh.w	r2, [r7, #-26]
 8002702:	930e      	str	r3, [sp, #56]	; 0x38
 8002704:	f8cd e034 	str.w	lr, [sp, #52]	; 0x34
 8002708:	f8cd c030 	str.w	ip, [sp, #48]	; 0x30
 800270c:	f837 0c1a 	ldrh.w	r0, [r7, #-26]
 8002710:	0080      	lsls	r0, r0, #2
 8002712:	9408      	str	r4, [sp, #32]
 8002714:	9507      	str	r5, [sp, #28]
 8002716:	9606      	str	r6, [sp, #24]
 8002718:	f8cd 8014 	str.w	r8, [sp, #20]
 800271c:	f000 fefa 	bl	8003514 <pvPortMalloc>
 8002720:	9009      	str	r0, [sp, #36]	; 0x24
 8002722:	9809      	ldr	r0, [sp, #36]	; 0x24
 8002724:	2800      	cmp	r0, #0
 8002726:	d011      	beq.n	800274c <xTaskCreate+0x6c>
 8002728:	e7ff      	b.n	800272a <xTaskCreate+0x4a>
 800272a:	205c      	movs	r0, #92	; 0x5c
 800272c:	f000 fef2 	bl	8003514 <pvPortMalloc>
 8002730:	900b      	str	r0, [sp, #44]	; 0x2c
 8002732:	980b      	ldr	r0, [sp, #44]	; 0x2c
 8002734:	2800      	cmp	r0, #0
 8002736:	d004      	beq.n	8002742 <xTaskCreate+0x62>
 8002738:	e7ff      	b.n	800273a <xTaskCreate+0x5a>
 800273a:	9809      	ldr	r0, [sp, #36]	; 0x24
 800273c:	990b      	ldr	r1, [sp, #44]	; 0x2c
 800273e:	6308      	str	r0, [r1, #48]	; 0x30
 8002740:	e003      	b.n	800274a <xTaskCreate+0x6a>
 8002742:	9809      	ldr	r0, [sp, #36]	; 0x24
 8002744:	f001 f8a8 	bl	8003898 <vPortFree>
 8002748:	e7ff      	b.n	800274a <xTaskCreate+0x6a>
 800274a:	e002      	b.n	8002752 <xTaskCreate+0x72>
 800274c:	2000      	movs	r0, #0
 800274e:	900b      	str	r0, [sp, #44]	; 0x2c
 8002750:	e7ff      	b.n	8002752 <xTaskCreate+0x72>
 8002752:	980b      	ldr	r0, [sp, #44]	; 0x2c
 8002754:	2800      	cmp	r0, #0
 8002756:	d01a      	beq.n	800278e <xTaskCreate+0xae>
 8002758:	e7ff      	b.n	800275a <xTaskCreate+0x7a>
 800275a:	9811      	ldr	r0, [sp, #68]	; 0x44
 800275c:	9910      	ldr	r1, [sp, #64]	; 0x40
 800275e:	f837 2c1a 	ldrh.w	r2, [r7, #-26]
 8002762:	9b0e      	ldr	r3, [sp, #56]	; 0x38
 8002764:	f8dd c034 	ldr.w	ip, [sp, #52]	; 0x34
 8002768:	f8dd e030 	ldr.w	lr, [sp, #48]	; 0x30
 800276c:	9c0b      	ldr	r4, [sp, #44]	; 0x2c
 800276e:	466d      	mov	r5, sp
 8002770:	2600      	movs	r6, #0
 8002772:	60ee      	str	r6, [r5, #12]
 8002774:	60ac      	str	r4, [r5, #8]
 8002776:	f8c5 e004 	str.w	lr, [r5, #4]
 800277a:	f8c5 c000 	str.w	ip, [r5]
 800277e:	f000 f80f 	bl	80027a0 <prvInitialiseNewTask>
 8002782:	980b      	ldr	r0, [sp, #44]	; 0x2c
 8002784:	f000 f8ab 	bl	80028de <prvAddNewTaskToReadyList>
 8002788:	2001      	movs	r0, #1
 800278a:	900a      	str	r0, [sp, #40]	; 0x28
 800278c:	e003      	b.n	8002796 <xTaskCreate+0xb6>
 800278e:	f04f 30ff 	mov.w	r0, #4294967295	; 0xffffffff
 8002792:	900a      	str	r0, [sp, #40]	; 0x28
 8002794:	e7ff      	b.n	8002796 <xTaskCreate+0xb6>
 8002796:	980a      	ldr	r0, [sp, #40]	; 0x28
 8002798:	b012      	add	sp, #72	; 0x48
 800279a:	f85d 8b04 	ldr.w	r8, [sp], #4
 800279e:	bdf0      	pop	{r4, r5, r6, r7, pc}

080027a0 <prvInitialiseNewTask>:
 80027a0:	b5f0      	push	{r4, r5, r6, r7, lr}
 80027a2:	af03      	add	r7, sp, #12
 80027a4:	e92d 0700 	stmdb	sp!, {r8, r9, sl}
 80027a8:	b090      	sub	sp, #64	; 0x40
 80027aa:	f8d7 c014 	ldr.w	ip, [r7, #20]
 80027ae:	f8d7 e010 	ldr.w	lr, [r7, #16]
 80027b2:	68fc      	ldr	r4, [r7, #12]
 80027b4:	68bd      	ldr	r5, [r7, #8]
 80027b6:	461e      	mov	r6, r3
 80027b8:	4690      	mov	r8, r2
 80027ba:	4689      	mov	r9, r1
 80027bc:	4682      	mov	sl, r0
 80027be:	900e      	str	r0, [sp, #56]	; 0x38
 80027c0:	910d      	str	r1, [sp, #52]	; 0x34
 80027c2:	920c      	str	r2, [sp, #48]	; 0x30
 80027c4:	930b      	str	r3, [sp, #44]	; 0x2c
 80027c6:	950a      	str	r5, [sp, #40]	; 0x28
 80027c8:	9409      	str	r4, [sp, #36]	; 0x24
 80027ca:	f8cd e020 	str.w	lr, [sp, #32]
 80027ce:	f8cd c01c 	str.w	ip, [sp, #28]
 80027d2:	9808      	ldr	r0, [sp, #32]
 80027d4:	6b00      	ldr	r0, [r0, #48]	; 0x30
 80027d6:	990c      	ldr	r1, [sp, #48]	; 0x30
 80027d8:	0089      	lsls	r1, r1, #2
 80027da:	22a5      	movs	r2, #165	; 0xa5
 80027dc:	9604      	str	r6, [sp, #16]
 80027de:	f8cd 800c 	str.w	r8, [sp, #12]
 80027e2:	f8cd 9008 	str.w	r9, [sp, #8]
 80027e6:	f8cd a004 	str.w	sl, [sp, #4]
 80027ea:	f7fd fe89 	bl	8000500 <__aeabi_memset>
 80027ee:	9808      	ldr	r0, [sp, #32]
 80027f0:	6b00      	ldr	r0, [r0, #48]	; 0x30
 80027f2:	990c      	ldr	r1, [sp, #48]	; 0x30
 80027f4:	eb00 0081 	add.w	r0, r0, r1, lsl #2
 80027f8:	3804      	subs	r0, #4
 80027fa:	9006      	str	r0, [sp, #24]
 80027fc:	9806      	ldr	r0, [sp, #24]
 80027fe:	f020 0007 	bic.w	r0, r0, #7
 8002802:	9006      	str	r0, [sp, #24]
 8002804:	f89d 0018 	ldrb.w	r0, [sp, #24]
 8002808:	0740      	lsls	r0, r0, #29
 800280a:	2800      	cmp	r0, #0
 800280c:	d00b      	beq.n	8002826 <prvInitialiseNewTask+0x86>
 800280e:	e7ff      	b.n	8002810 <prvInitialiseNewTask+0x70>
 8002810:	f04f 0050 	mov.w	r0, #80	; 0x50
 8002814:	f380 8811 	msr	BASEPRI, r0
 8002818:	f3bf 8f6f 	isb	sy
 800281c:	f3bf 8f4f 	dsb	sy
 8002820:	900f      	str	r0, [sp, #60]	; 0x3c
 8002822:	e7ff      	b.n	8002824 <prvInitialiseNewTask+0x84>
 8002824:	e7fe      	b.n	8002824 <prvInitialiseNewTask+0x84>
 8002826:	2000      	movs	r0, #0
 8002828:	9005      	str	r0, [sp, #20]
 800282a:	e7ff      	b.n	800282c <prvInitialiseNewTask+0x8c>
 800282c:	9805      	ldr	r0, [sp, #20]
 800282e:	280f      	cmp	r0, #15
 8002830:	d814      	bhi.n	800285c <prvInitialiseNewTask+0xbc>
 8002832:	e7ff      	b.n	8002834 <prvInitialiseNewTask+0x94>
 8002834:	980d      	ldr	r0, [sp, #52]	; 0x34
 8002836:	9905      	ldr	r1, [sp, #20]
 8002838:	5c40      	ldrb	r0, [r0, r1]
 800283a:	9a08      	ldr	r2, [sp, #32]
 800283c:	4411      	add	r1, r2
 800283e:	f881 0034 	strb.w	r0, [r1, #52]	; 0x34
 8002842:	980d      	ldr	r0, [sp, #52]	; 0x34
 8002844:	9905      	ldr	r1, [sp, #20]
 8002846:	5c40      	ldrb	r0, [r0, r1]
 8002848:	2800      	cmp	r0, #0
 800284a:	d101      	bne.n	8002850 <prvInitialiseNewTask+0xb0>
 800284c:	e7ff      	b.n	800284e <prvInitialiseNewTask+0xae>
 800284e:	e005      	b.n	800285c <prvInitialiseNewTask+0xbc>
 8002850:	e7ff      	b.n	8002852 <prvInitialiseNewTask+0xb2>
 8002852:	e7ff      	b.n	8002854 <prvInitialiseNewTask+0xb4>
 8002854:	9805      	ldr	r0, [sp, #20]
 8002856:	3001      	adds	r0, #1
 8002858:	9005      	str	r0, [sp, #20]
 800285a:	e7e7      	b.n	800282c <prvInitialiseNewTask+0x8c>
 800285c:	9808      	ldr	r0, [sp, #32]
 800285e:	2100      	movs	r1, #0
 8002860:	f880 1043 	strb.w	r1, [r0, #67]	; 0x43
 8002864:	980a      	ldr	r0, [sp, #40]	; 0x28
 8002866:	2807      	cmp	r0, #7
 8002868:	d303      	bcc.n	8002872 <prvInitialiseNewTask+0xd2>
 800286a:	e7ff      	b.n	800286c <prvInitialiseNewTask+0xcc>
 800286c:	2006      	movs	r0, #6
 800286e:	900a      	str	r0, [sp, #40]	; 0x28
 8002870:	e000      	b.n	8002874 <prvInitialiseNewTask+0xd4>
 8002872:	e7ff      	b.n	8002874 <prvInitialiseNewTask+0xd4>
 8002874:	980a      	ldr	r0, [sp, #40]	; 0x28
 8002876:	9908      	ldr	r1, [sp, #32]
 8002878:	62c8      	str	r0, [r1, #44]	; 0x2c
 800287a:	980a      	ldr	r0, [sp, #40]	; 0x28
 800287c:	9908      	ldr	r1, [sp, #32]
 800287e:	64c8      	str	r0, [r1, #76]	; 0x4c
 8002880:	9808      	ldr	r0, [sp, #32]
 8002882:	2100      	movs	r1, #0
 8002884:	6501      	str	r1, [r0, #80]	; 0x50
 8002886:	9808      	ldr	r0, [sp, #32]
 8002888:	3004      	adds	r0, #4
 800288a:	9100      	str	r1, [sp, #0]
 800288c:	f7ff fed8 	bl	8002640 <vListInitialiseItem>
 8002890:	9808      	ldr	r0, [sp, #32]
 8002892:	3018      	adds	r0, #24
 8002894:	f7ff fed4 	bl	8002640 <vListInitialiseItem>
 8002898:	9808      	ldr	r0, [sp, #32]
 800289a:	6100      	str	r0, [r0, #16]
 800289c:	980a      	ldr	r0, [sp, #40]	; 0x28
 800289e:	f1c0 0007 	rsb	r0, r0, #7
 80028a2:	9908      	ldr	r1, [sp, #32]
 80028a4:	6188      	str	r0, [r1, #24]
 80028a6:	9808      	ldr	r0, [sp, #32]
 80028a8:	6240      	str	r0, [r0, #36]	; 0x24
 80028aa:	9808      	ldr	r0, [sp, #32]
 80028ac:	9900      	ldr	r1, [sp, #0]
 80028ae:	6541      	str	r1, [r0, #84]	; 0x54
 80028b0:	9808      	ldr	r0, [sp, #32]
 80028b2:	f880 1058 	strb.w	r1, [r0, #88]	; 0x58
 80028b6:	9806      	ldr	r0, [sp, #24]
 80028b8:	990e      	ldr	r1, [sp, #56]	; 0x38
 80028ba:	9a0b      	ldr	r2, [sp, #44]	; 0x2c
 80028bc:	f000 fc1e 	bl	80030fc <pxPortInitialiseStack>
 80028c0:	9908      	ldr	r1, [sp, #32]
 80028c2:	6008      	str	r0, [r1, #0]
 80028c4:	9809      	ldr	r0, [sp, #36]	; 0x24
 80028c6:	2800      	cmp	r0, #0
 80028c8:	d004      	beq.n	80028d4 <prvInitialiseNewTask+0x134>
 80028ca:	e7ff      	b.n	80028cc <prvInitialiseNewTask+0x12c>
 80028cc:	9808      	ldr	r0, [sp, #32]
 80028ce:	9909      	ldr	r1, [sp, #36]	; 0x24
 80028d0:	6008      	str	r0, [r1, #0]
 80028d2:	e000      	b.n	80028d6 <prvInitialiseNewTask+0x136>
 80028d4:	e7ff      	b.n	80028d6 <prvInitialiseNewTask+0x136>
 80028d6:	b010      	add	sp, #64	; 0x40
 80028d8:	e8bd 0700 	ldmia.w	sp!, {r8, r9, sl}
 80028dc:	bdf0      	pop	{r4, r5, r6, r7, pc}

080028de <prvAddNewTaskToReadyList>:
 80028de:	b580      	push	{r7, lr}
 80028e0:	466f      	mov	r7, sp
 80028e2:	b084      	sub	sp, #16
 80028e4:	4601      	mov	r1, r0
 80028e6:	9003      	str	r0, [sp, #12]
 80028e8:	9102      	str	r1, [sp, #8]
 80028ea:	f000 fd6b 	bl	80033c4 <vPortEnterCritical>
 80028ee:	f640 2094 	movw	r0, #2708	; 0xa94
 80028f2:	f2c2 0000 	movt	r0, #8192	; 0x2000
 80028f6:	6801      	ldr	r1, [r0, #0]
 80028f8:	3101      	adds	r1, #1
 80028fa:	6001      	str	r1, [r0, #0]
 80028fc:	f640 10e4 	movw	r0, #2532	; 0x9e4
 8002900:	f2c2 0000 	movt	r0, #8192	; 0x2000
 8002904:	6800      	ldr	r0, [r0, #0]
 8002906:	2800      	cmp	r0, #0
 8002908:	d113      	bne.n	8002932 <prvAddNewTaskToReadyList+0x54>
 800290a:	e7ff      	b.n	800290c <prvAddNewTaskToReadyList+0x2e>
 800290c:	9803      	ldr	r0, [sp, #12]
 800290e:	f640 11e4 	movw	r1, #2532	; 0x9e4
 8002912:	f2c2 0100 	movt	r1, #8192	; 0x2000
 8002916:	6008      	str	r0, [r1, #0]
 8002918:	f640 2094 	movw	r0, #2708	; 0xa94
 800291c:	f2c2 0000 	movt	r0, #8192	; 0x2000
 8002920:	6800      	ldr	r0, [r0, #0]
 8002922:	2801      	cmp	r0, #1
 8002924:	d103      	bne.n	800292e <prvAddNewTaskToReadyList+0x50>
 8002926:	e7ff      	b.n	8002928 <prvAddNewTaskToReadyList+0x4a>
 8002928:	f000 fb64 	bl	8002ff4 <prvInitialiseTaskLists>
 800292c:	e000      	b.n	8002930 <prvAddNewTaskToReadyList+0x52>
 800292e:	e7ff      	b.n	8002930 <prvAddNewTaskToReadyList+0x52>
 8002930:	e01d      	b.n	800296e <prvAddNewTaskToReadyList+0x90>
 8002932:	f640 2098 	movw	r0, #2712	; 0xa98
 8002936:	f2c2 0000 	movt	r0, #8192	; 0x2000
 800293a:	6800      	ldr	r0, [r0, #0]
 800293c:	2800      	cmp	r0, #0
 800293e:	d114      	bne.n	800296a <prvAddNewTaskToReadyList+0x8c>
 8002940:	e7ff      	b.n	8002942 <prvAddNewTaskToReadyList+0x64>
 8002942:	f640 10e4 	movw	r0, #2532	; 0x9e4
 8002946:	f2c2 0000 	movt	r0, #8192	; 0x2000
 800294a:	6800      	ldr	r0, [r0, #0]
 800294c:	6ac0      	ldr	r0, [r0, #44]	; 0x2c
 800294e:	9903      	ldr	r1, [sp, #12]
 8002950:	6ac9      	ldr	r1, [r1, #44]	; 0x2c
 8002952:	4288      	cmp	r0, r1
 8002954:	d807      	bhi.n	8002966 <prvAddNewTaskToReadyList+0x88>
 8002956:	e7ff      	b.n	8002958 <prvAddNewTaskToReadyList+0x7a>
 8002958:	9803      	ldr	r0, [sp, #12]
 800295a:	f640 11e4 	movw	r1, #2532	; 0x9e4
 800295e:	f2c2 0100 	movt	r1, #8192	; 0x2000
 8002962:	6008      	str	r0, [r1, #0]
 8002964:	e000      	b.n	8002968 <prvAddNewTaskToReadyList+0x8a>
 8002966:	e7ff      	b.n	8002968 <prvAddNewTaskToReadyList+0x8a>
 8002968:	e000      	b.n	800296c <prvAddNewTaskToReadyList+0x8e>
 800296a:	e7ff      	b.n	800296c <prvAddNewTaskToReadyList+0x8e>
 800296c:	e7ff      	b.n	800296e <prvAddNewTaskToReadyList+0x90>
 800296e:	f640 2078 	movw	r0, #2680	; 0xa78
 8002972:	f2c2 0000 	movt	r0, #8192	; 0x2000
 8002976:	6801      	ldr	r1, [r0, #0]
 8002978:	3101      	adds	r1, #1
 800297a:	6001      	str	r1, [r0, #0]
 800297c:	6800      	ldr	r0, [r0, #0]
 800297e:	9903      	ldr	r1, [sp, #12]
 8002980:	6448      	str	r0, [r1, #68]	; 0x44
 8002982:	9803      	ldr	r0, [sp, #12]
 8002984:	6ac0      	ldr	r0, [r0, #44]	; 0x2c
 8002986:	2101      	movs	r1, #1
 8002988:	fa01 f000 	lsl.w	r0, r1, r0
 800298c:	f640 2174 	movw	r1, #2676	; 0xa74
 8002990:	f2c2 0100 	movt	r1, #8192	; 0x2000
 8002994:	680a      	ldr	r2, [r1, #0]
 8002996:	4310      	orrs	r0, r2
 8002998:	6008      	str	r0, [r1, #0]
 800299a:	9803      	ldr	r0, [sp, #12]
 800299c:	6ac1      	ldr	r1, [r0, #44]	; 0x2c
 800299e:	eb01 0181 	add.w	r1, r1, r1, lsl #2
 80029a2:	f640 12e8 	movw	r2, #2536	; 0x9e8
 80029a6:	f2c2 0200 	movt	r2, #8192	; 0x2000
 80029aa:	eb02 0181 	add.w	r1, r2, r1, lsl #2
 80029ae:	3004      	adds	r0, #4
 80029b0:	9001      	str	r0, [sp, #4]
 80029b2:	4608      	mov	r0, r1
 80029b4:	9901      	ldr	r1, [sp, #4]
 80029b6:	f7ff fe4c 	bl	8002652 <vListInsertEnd>
 80029ba:	f000 fd2f 	bl	800341c <vPortExitCritical>
 80029be:	f640 2098 	movw	r0, #2712	; 0xa98
 80029c2:	f2c2 0000 	movt	r0, #8192	; 0x2000
 80029c6:	6800      	ldr	r0, [r0, #0]
 80029c8:	2800      	cmp	r0, #0
 80029ca:	d019      	beq.n	8002a00 <prvAddNewTaskToReadyList+0x122>
 80029cc:	e7ff      	b.n	80029ce <prvAddNewTaskToReadyList+0xf0>
 80029ce:	f640 10e4 	movw	r0, #2532	; 0x9e4
 80029d2:	f2c2 0000 	movt	r0, #8192	; 0x2000
 80029d6:	6800      	ldr	r0, [r0, #0]
 80029d8:	6ac0      	ldr	r0, [r0, #44]	; 0x2c
 80029da:	9903      	ldr	r1, [sp, #12]
 80029dc:	6ac9      	ldr	r1, [r1, #44]	; 0x2c
 80029de:	4288      	cmp	r0, r1
 80029e0:	d20c      	bcs.n	80029fc <prvAddNewTaskToReadyList+0x11e>
 80029e2:	e7ff      	b.n	80029e4 <prvAddNewTaskToReadyList+0x106>
 80029e4:	f64e 5004 	movw	r0, #60676	; 0xed04
 80029e8:	f2ce 0000 	movt	r0, #57344	; 0xe000
 80029ec:	f04f 5180 	mov.w	r1, #268435456	; 0x10000000
 80029f0:	6001      	str	r1, [r0, #0]
 80029f2:	f3bf 8f4f 	dsb	sy
 80029f6:	f3bf 8f6f 	isb	sy
 80029fa:	e000      	b.n	80029fe <prvAddNewTaskToReadyList+0x120>
 80029fc:	e7ff      	b.n	80029fe <prvAddNewTaskToReadyList+0x120>
 80029fe:	e000      	b.n	8002a02 <prvAddNewTaskToReadyList+0x124>
 8002a00:	e7ff      	b.n	8002a02 <prvAddNewTaskToReadyList+0x124>
 8002a02:	b004      	add	sp, #16
 8002a04:	bd80      	pop	{r7, pc}

08002a06 <prvDeleteTCB>:
 8002a06:	b580      	push	{r7, lr}
 8002a08:	466f      	mov	r7, sp
 8002a0a:	b082      	sub	sp, #8
 8002a0c:	4601      	mov	r1, r0
 8002a0e:	9001      	str	r0, [sp, #4]
 8002a10:	9801      	ldr	r0, [sp, #4]
 8002a12:	6b00      	ldr	r0, [r0, #48]	; 0x30
 8002a14:	9100      	str	r1, [sp, #0]
 8002a16:	f000 ff3f 	bl	8003898 <vPortFree>
 8002a1a:	9801      	ldr	r0, [sp, #4]
 8002a1c:	f000 ff3c 	bl	8003898 <vPortFree>
 8002a20:	b002      	add	sp, #8
 8002a22:	bd80      	pop	{r7, pc}

08002a24 <prvResetNextTaskUnblockTime>:
 8002a24:	b081      	sub	sp, #4
 8002a26:	f640 20a0 	movw	r0, #2720	; 0xaa0
 8002a2a:	f2c2 0000 	movt	r0, #8192	; 0x2000
 8002a2e:	6800      	ldr	r0, [r0, #0]
 8002a30:	6800      	ldr	r0, [r0, #0]
 8002a32:	2100      	movs	r1, #0
 8002a34:	2800      	cmp	r0, #0
 8002a36:	bf08      	it	eq
 8002a38:	2101      	moveq	r1, #1
 8002a3a:	2900      	cmp	r1, #0
 8002a3c:	d008      	beq.n	8002a50 <prvResetNextTaskUnblockTime+0x2c>
 8002a3e:	e7ff      	b.n	8002a40 <prvResetNextTaskUnblockTime+0x1c>
 8002a40:	f640 20d4 	movw	r0, #2772	; 0xad4
 8002a44:	f2c2 0000 	movt	r0, #8192	; 0x2000
 8002a48:	f04f 31ff 	mov.w	r1, #4294967295	; 0xffffffff
 8002a4c:	6001      	str	r1, [r0, #0]
 8002a4e:	e00f      	b.n	8002a70 <prvResetNextTaskUnblockTime+0x4c>
 8002a50:	f640 20a0 	movw	r0, #2720	; 0xaa0
 8002a54:	f2c2 0000 	movt	r0, #8192	; 0x2000
 8002a58:	6800      	ldr	r0, [r0, #0]
 8002a5a:	68c0      	ldr	r0, [r0, #12]
 8002a5c:	68c0      	ldr	r0, [r0, #12]
 8002a5e:	9000      	str	r0, [sp, #0]
 8002a60:	9800      	ldr	r0, [sp, #0]
 8002a62:	6840      	ldr	r0, [r0, #4]
 8002a64:	f640 21d4 	movw	r1, #2772	; 0xad4
 8002a68:	f2c2 0100 	movt	r1, #8192	; 0x2000
 8002a6c:	6008      	str	r0, [r1, #0]
 8002a6e:	e7ff      	b.n	8002a70 <prvResetNextTaskUnblockTime+0x4c>
 8002a70:	b001      	add	sp, #4
 8002a72:	4770      	bx	lr

08002a74 <vTaskSuspendAll>:
 8002a74:	f640 209c 	movw	r0, #2716	; 0xa9c
 8002a78:	f2c2 0000 	movt	r0, #8192	; 0x2000
 8002a7c:	6801      	ldr	r1, [r0, #0]
 8002a7e:	3101      	adds	r1, #1
 8002a80:	6001      	str	r1, [r0, #0]
 8002a82:	4770      	bx	lr

08002a84 <xTaskResumeAll>:
 8002a84:	b580      	push	{r7, lr}
 8002a86:	466f      	mov	r7, sp
 8002a88:	b086      	sub	sp, #24
 8002a8a:	2000      	movs	r0, #0
 8002a8c:	9004      	str	r0, [sp, #16]
 8002a8e:	9003      	str	r0, [sp, #12]
 8002a90:	f640 209c 	movw	r0, #2716	; 0xa9c
 8002a94:	f2c2 0000 	movt	r0, #8192	; 0x2000
 8002a98:	6800      	ldr	r0, [r0, #0]
 8002a9a:	2800      	cmp	r0, #0
 8002a9c:	d10b      	bne.n	8002ab6 <xTaskResumeAll+0x32>
 8002a9e:	e7ff      	b.n	8002aa0 <xTaskResumeAll+0x1c>
 8002aa0:	f04f 0050 	mov.w	r0, #80	; 0x50
 8002aa4:	f380 8811 	msr	BASEPRI, r0
 8002aa8:	f3bf 8f6f 	isb	sy
 8002aac:	f3bf 8f4f 	dsb	sy
 8002ab0:	9005      	str	r0, [sp, #20]
 8002ab2:	e7ff      	b.n	8002ab4 <xTaskResumeAll+0x30>
 8002ab4:	e7fe      	b.n	8002ab4 <xTaskResumeAll+0x30>
 8002ab6:	f000 fc85 	bl	80033c4 <vPortEnterCritical>
 8002aba:	f640 2e9c 	movw	lr, #2716	; 0xa9c
 8002abe:	f2c2 0e00 	movt	lr, #8192	; 0x2000
 8002ac2:	f8de 0000 	ldr.w	r0, [lr]
 8002ac6:	3801      	subs	r0, #1
 8002ac8:	f8ce 0000 	str.w	r0, [lr]
 8002acc:	f8de 0000 	ldr.w	r0, [lr]
 8002ad0:	2800      	cmp	r0, #0
 8002ad2:	f040 80a1 	bne.w	8002c18 <xTaskResumeAll+0x194>
 8002ad6:	e7ff      	b.n	8002ad8 <xTaskResumeAll+0x54>
 8002ad8:	f640 2094 	movw	r0, #2708	; 0xa94
 8002adc:	f2c2 0000 	movt	r0, #8192	; 0x2000
 8002ae0:	6800      	ldr	r0, [r0, #0]
 8002ae2:	2800      	cmp	r0, #0
 8002ae4:	f000 8097 	beq.w	8002c16 <xTaskResumeAll+0x192>
 8002ae8:	e7ff      	b.n	8002aea <xTaskResumeAll+0x66>
 8002aea:	e7ff      	b.n	8002aec <xTaskResumeAll+0x68>
 8002aec:	f640 20bc 	movw	r0, #2748	; 0xabc
 8002af0:	f2c2 0000 	movt	r0, #8192	; 0x2000
 8002af4:	6800      	ldr	r0, [r0, #0]
 8002af6:	2800      	cmp	r0, #0
 8002af8:	d046      	beq.n	8002b88 <xTaskResumeAll+0x104>
 8002afa:	e7ff      	b.n	8002afc <xTaskResumeAll+0x78>
 8002afc:	f640 20bc 	movw	r0, #2748	; 0xabc
 8002b00:	f2c2 0000 	movt	r0, #8192	; 0x2000
 8002b04:	68c0      	ldr	r0, [r0, #12]
 8002b06:	68c0      	ldr	r0, [r0, #12]
 8002b08:	9004      	str	r0, [sp, #16]
 8002b0a:	9804      	ldr	r0, [sp, #16]
 8002b0c:	3018      	adds	r0, #24
 8002b0e:	f7ff fdc1 	bl	8002694 <uxListRemove>
 8002b12:	f8dd e010 	ldr.w	lr, [sp, #16]
 8002b16:	f10e 0e04 	add.w	lr, lr, #4
 8002b1a:	9001      	str	r0, [sp, #4]
 8002b1c:	4670      	mov	r0, lr
 8002b1e:	f7ff fdb9 	bl	8002694 <uxListRemove>
 8002b22:	f8dd e010 	ldr.w	lr, [sp, #16]
 8002b26:	f8de e02c 	ldr.w	lr, [lr, #44]	; 0x2c
 8002b2a:	2101      	movs	r1, #1
 8002b2c:	fa01 f10e 	lsl.w	r1, r1, lr
 8002b30:	f640 2e74 	movw	lr, #2676	; 0xa74
 8002b34:	f2c2 0e00 	movt	lr, #8192	; 0x2000
 8002b38:	f8de 2000 	ldr.w	r2, [lr]
 8002b3c:	4311      	orrs	r1, r2
 8002b3e:	f8ce 1000 	str.w	r1, [lr]
 8002b42:	9904      	ldr	r1, [sp, #16]
 8002b44:	6aca      	ldr	r2, [r1, #44]	; 0x2c
 8002b46:	eb02 0282 	add.w	r2, r2, r2, lsl #2
 8002b4a:	f640 1ee8 	movw	lr, #2536	; 0x9e8
 8002b4e:	f2c2 0e00 	movt	lr, #8192	; 0x2000
 8002b52:	eb0e 0282 	add.w	r2, lr, r2, lsl #2
 8002b56:	3104      	adds	r1, #4
 8002b58:	9000      	str	r0, [sp, #0]
 8002b5a:	4610      	mov	r0, r2
 8002b5c:	f7ff fd79 	bl	8002652 <vListInsertEnd>
 8002b60:	9804      	ldr	r0, [sp, #16]
 8002b62:	6ac0      	ldr	r0, [r0, #44]	; 0x2c
 8002b64:	f640 11e4 	movw	r1, #2532	; 0x9e4
 8002b68:	f2c2 0100 	movt	r1, #8192	; 0x2000
 8002b6c:	6809      	ldr	r1, [r1, #0]
 8002b6e:	6ac9      	ldr	r1, [r1, #44]	; 0x2c
 8002b70:	4288      	cmp	r0, r1
 8002b72:	d307      	bcc.n	8002b84 <xTaskResumeAll+0x100>
 8002b74:	e7ff      	b.n	8002b76 <xTaskResumeAll+0xf2>
 8002b76:	f640 20dc 	movw	r0, #2780	; 0xadc
 8002b7a:	f2c2 0000 	movt	r0, #8192	; 0x2000
 8002b7e:	2101      	movs	r1, #1
 8002b80:	6001      	str	r1, [r0, #0]
 8002b82:	e000      	b.n	8002b86 <xTaskResumeAll+0x102>
 8002b84:	e7ff      	b.n	8002b86 <xTaskResumeAll+0x102>
 8002b86:	e7b1      	b.n	8002aec <xTaskResumeAll+0x68>
 8002b88:	9804      	ldr	r0, [sp, #16]
 8002b8a:	2800      	cmp	r0, #0
 8002b8c:	d003      	beq.n	8002b96 <xTaskResumeAll+0x112>
 8002b8e:	e7ff      	b.n	8002b90 <xTaskResumeAll+0x10c>
 8002b90:	f7ff ff48 	bl	8002a24 <prvResetNextTaskUnblockTime>
 8002b94:	e7ff      	b.n	8002b96 <xTaskResumeAll+0x112>
 8002b96:	f640 20e0 	movw	r0, #2784	; 0xae0
 8002b9a:	f2c2 0000 	movt	r0, #8192	; 0x2000
 8002b9e:	6800      	ldr	r0, [r0, #0]
 8002ba0:	9002      	str	r0, [sp, #8]
 8002ba2:	9802      	ldr	r0, [sp, #8]
 8002ba4:	2800      	cmp	r0, #0
 8002ba6:	d01d      	beq.n	8002be4 <xTaskResumeAll+0x160>
 8002ba8:	e7ff      	b.n	8002baa <xTaskResumeAll+0x126>
 8002baa:	e7ff      	b.n	8002bac <xTaskResumeAll+0x128>
 8002bac:	f000 f916 	bl	8002ddc <xTaskIncrementTick>
 8002bb0:	2800      	cmp	r0, #0
 8002bb2:	d007      	beq.n	8002bc4 <xTaskResumeAll+0x140>
 8002bb4:	e7ff      	b.n	8002bb6 <xTaskResumeAll+0x132>
 8002bb6:	f640 20dc 	movw	r0, #2780	; 0xadc
 8002bba:	f2c2 0000 	movt	r0, #8192	; 0x2000
 8002bbe:	2101      	movs	r1, #1
 8002bc0:	6001      	str	r1, [r0, #0]
 8002bc2:	e000      	b.n	8002bc6 <xTaskResumeAll+0x142>
 8002bc4:	e7ff      	b.n	8002bc6 <xTaskResumeAll+0x142>
 8002bc6:	9802      	ldr	r0, [sp, #8]
 8002bc8:	3801      	subs	r0, #1
 8002bca:	9002      	str	r0, [sp, #8]
 8002bcc:	e7ff      	b.n	8002bce <xTaskResumeAll+0x14a>
 8002bce:	9802      	ldr	r0, [sp, #8]
 8002bd0:	2800      	cmp	r0, #0
 8002bd2:	d1eb      	bne.n	8002bac <xTaskResumeAll+0x128>
 8002bd4:	e7ff      	b.n	8002bd6 <xTaskResumeAll+0x152>
 8002bd6:	f640 20e0 	movw	r0, #2784	; 0xae0
 8002bda:	f2c2 0000 	movt	r0, #8192	; 0x2000
 8002bde:	2100      	movs	r1, #0
 8002be0:	6001      	str	r1, [r0, #0]
 8002be2:	e000      	b.n	8002be6 <xTaskResumeAll+0x162>
 8002be4:	e7ff      	b.n	8002be6 <xTaskResumeAll+0x162>
 8002be6:	f640 20dc 	movw	r0, #2780	; 0xadc
 8002bea:	f2c2 0000 	movt	r0, #8192	; 0x2000
 8002bee:	6800      	ldr	r0, [r0, #0]
 8002bf0:	2800      	cmp	r0, #0
 8002bf2:	d00e      	beq.n	8002c12 <xTaskResumeAll+0x18e>
 8002bf4:	e7ff      	b.n	8002bf6 <xTaskResumeAll+0x172>
 8002bf6:	2001      	movs	r0, #1
 8002bf8:	9003      	str	r0, [sp, #12]
 8002bfa:	f64e 5004 	movw	r0, #60676	; 0xed04
 8002bfe:	f2ce 0000 	movt	r0, #57344	; 0xe000
 8002c02:	f04f 5180 	mov.w	r1, #268435456	; 0x10000000
 8002c06:	6001      	str	r1, [r0, #0]
 8002c08:	f3bf 8f4f 	dsb	sy
 8002c0c:	f3bf 8f6f 	isb	sy
 8002c10:	e000      	b.n	8002c14 <xTaskResumeAll+0x190>
 8002c12:	e7ff      	b.n	8002c14 <xTaskResumeAll+0x190>
 8002c14:	e7ff      	b.n	8002c16 <xTaskResumeAll+0x192>
 8002c16:	e000      	b.n	8002c1a <xTaskResumeAll+0x196>
 8002c18:	e7ff      	b.n	8002c1a <xTaskResumeAll+0x196>
 8002c1a:	f000 fbff 	bl	800341c <vPortExitCritical>
 8002c1e:	9803      	ldr	r0, [sp, #12]
 8002c20:	b006      	add	sp, #24
 8002c22:	bd80      	pop	{r7, pc}

08002c24 <vTaskSwitchContext>:
 8002c24:	b085      	sub	sp, #20
 8002c26:	f640 209c 	movw	r0, #2716	; 0xa9c
 8002c2a:	f2c2 0000 	movt	r0, #8192	; 0x2000
 8002c2e:	6800      	ldr	r0, [r0, #0]
 8002c30:	2800      	cmp	r0, #0
 8002c32:	d007      	beq.n	8002c44 <vTaskSwitchContext+0x20>
 8002c34:	e7ff      	b.n	8002c36 <vTaskSwitchContext+0x12>
 8002c36:	f640 20dc 	movw	r0, #2780	; 0xadc
 8002c3a:	f2c2 0000 	movt	r0, #8192	; 0x2000
 8002c3e:	2101      	movs	r1, #1
 8002c40:	6001      	str	r1, [r0, #0]
 8002c42:	e051      	b.n	8002ce8 <vTaskSwitchContext+0xc4>
 8002c44:	f640 20dc 	movw	r0, #2780	; 0xadc
 8002c48:	f2c2 0000 	movt	r0, #8192	; 0x2000
 8002c4c:	2100      	movs	r1, #0
 8002c4e:	6001      	str	r1, [r0, #0]
 8002c50:	f640 2074 	movw	r0, #2676	; 0xa74
 8002c54:	f2c2 0000 	movt	r0, #8192	; 0x2000
 8002c58:	6800      	ldr	r0, [r0, #0]
 8002c5a:	9003      	str	r0, [sp, #12]
 8002c5c:	9803      	ldr	r0, [sp, #12]
 8002c5e:	fab0 f080 	clz	r0, r0
 8002c62:	f88d 000b 	strb.w	r0, [sp, #11]
 8002c66:	f89d 000b 	ldrb.w	r0, [sp, #11]
 8002c6a:	f1c0 001f 	rsb	r0, r0, #31
 8002c6e:	9001      	str	r0, [sp, #4]
 8002c70:	9801      	ldr	r0, [sp, #4]
 8002c72:	eb00 0080 	add.w	r0, r0, r0, lsl #2
 8002c76:	f640 11e8 	movw	r1, #2536	; 0x9e8
 8002c7a:	f2c2 0100 	movt	r1, #8192	; 0x2000
 8002c7e:	f851 0020 	ldr.w	r0, [r1, r0, lsl #2]
 8002c82:	2800      	cmp	r0, #0
 8002c84:	bf18      	it	ne
 8002c86:	2001      	movne	r0, #1
 8002c88:	2800      	cmp	r0, #0
 8002c8a:	d10b      	bne.n	8002ca4 <vTaskSwitchContext+0x80>
 8002c8c:	e7ff      	b.n	8002c8e <vTaskSwitchContext+0x6a>
 8002c8e:	f04f 0050 	mov.w	r0, #80	; 0x50
 8002c92:	f380 8811 	msr	BASEPRI, r0
 8002c96:	f3bf 8f6f 	isb	sy
 8002c9a:	f3bf 8f4f 	dsb	sy
 8002c9e:	9004      	str	r0, [sp, #16]
 8002ca0:	e7ff      	b.n	8002ca2 <vTaskSwitchContext+0x7e>
 8002ca2:	e7fe      	b.n	8002ca2 <vTaskSwitchContext+0x7e>
 8002ca4:	9801      	ldr	r0, [sp, #4]
 8002ca6:	eb00 0080 	add.w	r0, r0, r0, lsl #2
 8002caa:	f640 11e8 	movw	r1, #2536	; 0x9e8
 8002cae:	f2c2 0100 	movt	r1, #8192	; 0x2000
 8002cb2:	eb01 0080 	add.w	r0, r1, r0, lsl #2
 8002cb6:	9000      	str	r0, [sp, #0]
 8002cb8:	9800      	ldr	r0, [sp, #0]
 8002cba:	6841      	ldr	r1, [r0, #4]
 8002cbc:	6849      	ldr	r1, [r1, #4]
 8002cbe:	6041      	str	r1, [r0, #4]
 8002cc0:	9800      	ldr	r0, [sp, #0]
 8002cc2:	6841      	ldr	r1, [r0, #4]
 8002cc4:	3008      	adds	r0, #8
 8002cc6:	4281      	cmp	r1, r0
 8002cc8:	d105      	bne.n	8002cd6 <vTaskSwitchContext+0xb2>
 8002cca:	e7ff      	b.n	8002ccc <vTaskSwitchContext+0xa8>
 8002ccc:	9800      	ldr	r0, [sp, #0]
 8002cce:	6841      	ldr	r1, [r0, #4]
 8002cd0:	6849      	ldr	r1, [r1, #4]
 8002cd2:	6041      	str	r1, [r0, #4]
 8002cd4:	e7ff      	b.n	8002cd6 <vTaskSwitchContext+0xb2>
 8002cd6:	9800      	ldr	r0, [sp, #0]
 8002cd8:	6840      	ldr	r0, [r0, #4]
 8002cda:	68c0      	ldr	r0, [r0, #12]
 8002cdc:	f640 11e4 	movw	r1, #2532	; 0x9e4
 8002ce0:	f2c2 0100 	movt	r1, #8192	; 0x2000
 8002ce4:	6008      	str	r0, [r1, #0]
 8002ce6:	e7ff      	b.n	8002ce8 <vTaskSwitchContext+0xc4>
 8002ce8:	b005      	add	sp, #20
 8002cea:	4770      	bx	lr

08002cec <vTaskStartScheduler>:
 8002cec:	b580      	push	{r7, lr}
 8002cee:	466f      	mov	r7, sp
 8002cf0:	b086      	sub	sp, #24
 8002cf2:	f640 20d0 	movw	r0, #2768	; 0xad0
 8002cf6:	f2c2 0000 	movt	r0, #8192	; 0x2000
 8002cfa:	4669      	mov	r1, sp
 8002cfc:	6048      	str	r0, [r1, #4]
 8002cfe:	2000      	movs	r0, #0
 8002d00:	6008      	str	r0, [r1, #0]
 8002d02:	f642 519b 	movw	r1, #11675	; 0x2d9b
 8002d06:	f6c0 0100 	movt	r1, #2048	; 0x800
 8002d0a:	f648 22d8 	movw	r2, #35544	; 0x8ad8
 8002d0e:	f6c0 0200 	movt	r2, #2048	; 0x800
 8002d12:	2380      	movs	r3, #128	; 0x80
 8002d14:	9002      	str	r0, [sp, #8]
 8002d16:	4608      	mov	r0, r1
 8002d18:	4611      	mov	r1, r2
 8002d1a:	461a      	mov	r2, r3
 8002d1c:	9b02      	ldr	r3, [sp, #8]
 8002d1e:	f7ff fcdf 	bl	80026e0 <xTaskCreate>
 8002d22:	9003      	str	r0, [sp, #12]
 8002d24:	9803      	ldr	r0, [sp, #12]
 8002d26:	2801      	cmp	r0, #1
 8002d28:	d124      	bne.n	8002d74 <vTaskStartScheduler+0x88>
 8002d2a:	e7ff      	b.n	8002d2c <vTaskStartScheduler+0x40>
 8002d2c:	f04f 0050 	mov.w	r0, #80	; 0x50
 8002d30:	f380 8811 	msr	BASEPRI, r0
 8002d34:	f3bf 8f6f 	isb	sy
 8002d38:	f3bf 8f4f 	dsb	sy
 8002d3c:	9004      	str	r0, [sp, #16]
 8002d3e:	f640 20d4 	movw	r0, #2772	; 0xad4
 8002d42:	f2c2 0000 	movt	r0, #8192	; 0x2000
 8002d46:	f04f 31ff 	mov.w	r1, #4294967295	; 0xffffffff
 8002d4a:	6001      	str	r1, [r0, #0]
 8002d4c:	f640 2098 	movw	r0, #2712	; 0xa98
 8002d50:	f2c2 0000 	movt	r0, #8192	; 0x2000
 8002d54:	2101      	movs	r1, #1
 8002d56:	6001      	str	r1, [r0, #0]
 8002d58:	f640 20d8 	movw	r0, #2776	; 0xad8
 8002d5c:	f2c2 0000 	movt	r0, #8192	; 0x2000
 8002d60:	2100      	movs	r1, #0
 8002d62:	6001      	str	r1, [r0, #0]
 8002d64:	f000 fa3e 	bl	80031e4 <xPortStartScheduler>
 8002d68:	2800      	cmp	r0, #0
 8002d6a:	d001      	beq.n	8002d70 <vTaskStartScheduler+0x84>
 8002d6c:	e7ff      	b.n	8002d6e <vTaskStartScheduler+0x82>
 8002d6e:	e000      	b.n	8002d72 <vTaskStartScheduler+0x86>
 8002d70:	e7ff      	b.n	8002d72 <vTaskStartScheduler+0x86>
 8002d72:	e010      	b.n	8002d96 <vTaskStartScheduler+0xaa>
 8002d74:	9803      	ldr	r0, [sp, #12]
 8002d76:	3001      	adds	r0, #1
 8002d78:	2800      	cmp	r0, #0
 8002d7a:	d10b      	bne.n	8002d94 <vTaskStartScheduler+0xa8>
 8002d7c:	e7ff      	b.n	8002d7e <vTaskStartScheduler+0x92>
 8002d7e:	f04f 0050 	mov.w	r0, #80	; 0x50
 8002d82:	f380 8811 	msr	BASEPRI, r0
 8002d86:	f3bf 8f6f 	isb	sy
 8002d8a:	f3bf 8f4f 	dsb	sy
 8002d8e:	9005      	str	r0, [sp, #20]
 8002d90:	e7ff      	b.n	8002d92 <vTaskStartScheduler+0xa6>
 8002d92:	e7fe      	b.n	8002d92 <vTaskStartScheduler+0xa6>
 8002d94:	e7ff      	b.n	8002d96 <vTaskStartScheduler+0xaa>
 8002d96:	b006      	add	sp, #24
 8002d98:	bd80      	pop	{r7, pc}

08002d9a <prvIdleTask>:
 8002d9a:	b580      	push	{r7, lr}
 8002d9c:	466f      	mov	r7, sp
 8002d9e:	b082      	sub	sp, #8
 8002da0:	4601      	mov	r1, r0
 8002da2:	9001      	str	r0, [sp, #4]
 8002da4:	9100      	str	r1, [sp, #0]
 8002da6:	e7ff      	b.n	8002da8 <prvIdleTask+0xe>
 8002da8:	f000 f96e 	bl	8003088 <prvCheckTasksWaitingTermination>
 8002dac:	f640 1ee8 	movw	lr, #2536	; 0x9e8
 8002db0:	f2c2 0e00 	movt	lr, #8192	; 0x2000
 8002db4:	f8de e000 	ldr.w	lr, [lr]
 8002db8:	f1be 0f02 	cmp.w	lr, #2
 8002dbc:	d30c      	bcc.n	8002dd8 <prvIdleTask+0x3e>
 8002dbe:	e7ff      	b.n	8002dc0 <prvIdleTask+0x26>
 8002dc0:	f64e 5004 	movw	r0, #60676	; 0xed04
 8002dc4:	f2ce 0000 	movt	r0, #57344	; 0xe000
 8002dc8:	f04f 5180 	mov.w	r1, #268435456	; 0x10000000
 8002dcc:	6001      	str	r1, [r0, #0]
 8002dce:	f3bf 8f4f 	dsb	sy
 8002dd2:	f3bf 8f6f 	isb	sy
 8002dd6:	e000      	b.n	8002dda <prvIdleTask+0x40>
 8002dd8:	e7ff      	b.n	8002dda <prvIdleTask+0x40>
 8002dda:	e7e5      	b.n	8002da8 <prvIdleTask+0xe>

08002ddc <xTaskIncrementTick>:
 8002ddc:	b580      	push	{r7, lr}
 8002dde:	466f      	mov	r7, sp
 8002de0:	b08a      	sub	sp, #40	; 0x28
 8002de2:	2000      	movs	r0, #0
 8002de4:	9006      	str	r0, [sp, #24]
 8002de6:	f640 209c 	movw	r0, #2716	; 0xa9c
 8002dea:	f2c2 0000 	movt	r0, #8192	; 0x2000
 8002dee:	6800      	ldr	r0, [r0, #0]
 8002df0:	2800      	cmp	r0, #0
 8002df2:	f040 80ca 	bne.w	8002f8a <xTaskIncrementTick+0x1ae>
 8002df6:	e7ff      	b.n	8002df8 <xTaskIncrementTick+0x1c>
 8002df8:	f640 20d8 	movw	r0, #2776	; 0xad8
 8002dfc:	f2c2 0000 	movt	r0, #8192	; 0x2000
 8002e00:	6801      	ldr	r1, [r0, #0]
 8002e02:	3101      	adds	r1, #1
 8002e04:	9105      	str	r1, [sp, #20]
 8002e06:	9905      	ldr	r1, [sp, #20]
 8002e08:	6001      	str	r1, [r0, #0]
 8002e0a:	9805      	ldr	r0, [sp, #20]
 8002e0c:	2800      	cmp	r0, #0
 8002e0e:	d12c      	bne.n	8002e6a <xTaskIncrementTick+0x8e>
 8002e10:	e7ff      	b.n	8002e12 <xTaskIncrementTick+0x36>
 8002e12:	f640 20a0 	movw	r0, #2720	; 0xaa0
 8002e16:	f2c2 0000 	movt	r0, #8192	; 0x2000
 8002e1a:	6800      	ldr	r0, [r0, #0]
 8002e1c:	6800      	ldr	r0, [r0, #0]
 8002e1e:	2800      	cmp	r0, #0
 8002e20:	d00b      	beq.n	8002e3a <xTaskIncrementTick+0x5e>
 8002e22:	e7ff      	b.n	8002e24 <xTaskIncrementTick+0x48>
 8002e24:	f04f 0050 	mov.w	r0, #80	; 0x50
 8002e28:	f380 8811 	msr	BASEPRI, r0
 8002e2c:	f3bf 8f6f 	isb	sy
 8002e30:	f3bf 8f4f 	dsb	sy
 8002e34:	9009      	str	r0, [sp, #36]	; 0x24
 8002e36:	e7ff      	b.n	8002e38 <xTaskIncrementTick+0x5c>
 8002e38:	e7fe      	b.n	8002e38 <xTaskIncrementTick+0x5c>
 8002e3a:	f640 20a0 	movw	r0, #2720	; 0xaa0
 8002e3e:	f2c2 0000 	movt	r0, #8192	; 0x2000
 8002e42:	6801      	ldr	r1, [r0, #0]
 8002e44:	9104      	str	r1, [sp, #16]
 8002e46:	f640 21a4 	movw	r1, #2724	; 0xaa4
 8002e4a:	f2c2 0100 	movt	r1, #8192	; 0x2000
 8002e4e:	680a      	ldr	r2, [r1, #0]
 8002e50:	6002      	str	r2, [r0, #0]
 8002e52:	9804      	ldr	r0, [sp, #16]
 8002e54:	6008      	str	r0, [r1, #0]
 8002e56:	f640 20e4 	movw	r0, #2788	; 0xae4
 8002e5a:	f2c2 0000 	movt	r0, #8192	; 0x2000
 8002e5e:	6801      	ldr	r1, [r0, #0]
 8002e60:	3101      	adds	r1, #1
 8002e62:	6001      	str	r1, [r0, #0]
 8002e64:	f7ff fdde 	bl	8002a24 <prvResetNextTaskUnblockTime>
 8002e68:	e000      	b.n	8002e6c <xTaskIncrementTick+0x90>
 8002e6a:	e7ff      	b.n	8002e6c <xTaskIncrementTick+0x90>
 8002e6c:	9805      	ldr	r0, [sp, #20]
 8002e6e:	f640 21d4 	movw	r1, #2772	; 0xad4
 8002e72:	f2c2 0100 	movt	r1, #8192	; 0x2000
 8002e76:	6809      	ldr	r1, [r1, #0]
 8002e78:	4288      	cmp	r0, r1
 8002e7a:	d370      	bcc.n	8002f5e <xTaskIncrementTick+0x182>
 8002e7c:	e7ff      	b.n	8002e7e <xTaskIncrementTick+0xa2>
 8002e7e:	e7ff      	b.n	8002e80 <xTaskIncrementTick+0xa4>
 8002e80:	f640 20a0 	movw	r0, #2720	; 0xaa0
 8002e84:	f2c2 0000 	movt	r0, #8192	; 0x2000
 8002e88:	6800      	ldr	r0, [r0, #0]
 8002e8a:	6800      	ldr	r0, [r0, #0]
 8002e8c:	2100      	movs	r1, #0
 8002e8e:	2800      	cmp	r0, #0
 8002e90:	bf08      	it	eq
 8002e92:	2101      	moveq	r1, #1
 8002e94:	2900      	cmp	r1, #0
 8002e96:	d008      	beq.n	8002eaa <xTaskIncrementTick+0xce>
 8002e98:	e7ff      	b.n	8002e9a <xTaskIncrementTick+0xbe>
 8002e9a:	f640 20d4 	movw	r0, #2772	; 0xad4
 8002e9e:	f2c2 0000 	movt	r0, #8192	; 0x2000
 8002ea2:	f04f 31ff 	mov.w	r1, #4294967295	; 0xffffffff
 8002ea6:	6001      	str	r1, [r0, #0]
 8002ea8:	e058      	b.n	8002f5c <xTaskIncrementTick+0x180>
 8002eaa:	f640 20a0 	movw	r0, #2720	; 0xaa0
 8002eae:	f2c2 0000 	movt	r0, #8192	; 0x2000
 8002eb2:	6800      	ldr	r0, [r0, #0]
 8002eb4:	68c0      	ldr	r0, [r0, #12]
 8002eb6:	68c0      	ldr	r0, [r0, #12]
 8002eb8:	9008      	str	r0, [sp, #32]
 8002eba:	9808      	ldr	r0, [sp, #32]
 8002ebc:	6840      	ldr	r0, [r0, #4]
 8002ebe:	9007      	str	r0, [sp, #28]
 8002ec0:	9805      	ldr	r0, [sp, #20]
 8002ec2:	9907      	ldr	r1, [sp, #28]
 8002ec4:	4288      	cmp	r0, r1
 8002ec6:	d207      	bcs.n	8002ed8 <xTaskIncrementTick+0xfc>
 8002ec8:	e7ff      	b.n	8002eca <xTaskIncrementTick+0xee>
 8002eca:	9807      	ldr	r0, [sp, #28]
 8002ecc:	f640 21d4 	movw	r1, #2772	; 0xad4
 8002ed0:	f2c2 0100 	movt	r1, #8192	; 0x2000
 8002ed4:	6008      	str	r0, [r1, #0]
 8002ed6:	e041      	b.n	8002f5c <xTaskIncrementTick+0x180>
 8002ed8:	e7ff      	b.n	8002eda <xTaskIncrementTick+0xfe>
 8002eda:	9808      	ldr	r0, [sp, #32]
 8002edc:	3004      	adds	r0, #4
 8002ede:	f7ff fbd9 	bl	8002694 <uxListRemove>
 8002ee2:	f8dd e020 	ldr.w	lr, [sp, #32]
 8002ee6:	f8de e028 	ldr.w	lr, [lr, #40]	; 0x28
 8002eea:	f1be 0f00 	cmp.w	lr, #0
 8002eee:	9003      	str	r0, [sp, #12]
 8002ef0:	d006      	beq.n	8002f00 <xTaskIncrementTick+0x124>
 8002ef2:	e7ff      	b.n	8002ef4 <xTaskIncrementTick+0x118>
 8002ef4:	9808      	ldr	r0, [sp, #32]
 8002ef6:	3018      	adds	r0, #24
 8002ef8:	f7ff fbcc 	bl	8002694 <uxListRemove>
 8002efc:	9002      	str	r0, [sp, #8]
 8002efe:	e000      	b.n	8002f02 <xTaskIncrementTick+0x126>
 8002f00:	e7ff      	b.n	8002f02 <xTaskIncrementTick+0x126>
 8002f02:	9808      	ldr	r0, [sp, #32]
 8002f04:	6ac0      	ldr	r0, [r0, #44]	; 0x2c
 8002f06:	2101      	movs	r1, #1
 8002f08:	fa01 f000 	lsl.w	r0, r1, r0
 8002f0c:	f640 2174 	movw	r1, #2676	; 0xa74
 8002f10:	f2c2 0100 	movt	r1, #8192	; 0x2000
 8002f14:	680a      	ldr	r2, [r1, #0]
 8002f16:	4310      	orrs	r0, r2
 8002f18:	6008      	str	r0, [r1, #0]
 8002f1a:	9808      	ldr	r0, [sp, #32]
 8002f1c:	6ac1      	ldr	r1, [r0, #44]	; 0x2c
 8002f1e:	eb01 0181 	add.w	r1, r1, r1, lsl #2
 8002f22:	f640 12e8 	movw	r2, #2536	; 0x9e8
 8002f26:	f2c2 0200 	movt	r2, #8192	; 0x2000
 8002f2a:	eb02 0181 	add.w	r1, r2, r1, lsl #2
 8002f2e:	3004      	adds	r0, #4
 8002f30:	9001      	str	r0, [sp, #4]
 8002f32:	4608      	mov	r0, r1
 8002f34:	9901      	ldr	r1, [sp, #4]
 8002f36:	f7ff fb8c 	bl	8002652 <vListInsertEnd>
 8002f3a:	9808      	ldr	r0, [sp, #32]
 8002f3c:	6ac0      	ldr	r0, [r0, #44]	; 0x2c
 8002f3e:	f640 11e4 	movw	r1, #2532	; 0x9e4
 8002f42:	f2c2 0100 	movt	r1, #8192	; 0x2000
 8002f46:	6809      	ldr	r1, [r1, #0]
 8002f48:	6ac9      	ldr	r1, [r1, #44]	; 0x2c
 8002f4a:	4288      	cmp	r0, r1
 8002f4c:	d303      	bcc.n	8002f56 <xTaskIncrementTick+0x17a>
 8002f4e:	e7ff      	b.n	8002f50 <xTaskIncrementTick+0x174>
 8002f50:	2001      	movs	r0, #1
 8002f52:	9006      	str	r0, [sp, #24]
 8002f54:	e000      	b.n	8002f58 <xTaskIncrementTick+0x17c>
 8002f56:	e7ff      	b.n	8002f58 <xTaskIncrementTick+0x17c>
 8002f58:	e7ff      	b.n	8002f5a <xTaskIncrementTick+0x17e>
 8002f5a:	e791      	b.n	8002e80 <xTaskIncrementTick+0xa4>
 8002f5c:	e7ff      	b.n	8002f5e <xTaskIncrementTick+0x182>
 8002f5e:	f640 10e4 	movw	r0, #2532	; 0x9e4
 8002f62:	f2c2 0000 	movt	r0, #8192	; 0x2000
 8002f66:	6800      	ldr	r0, [r0, #0]
 8002f68:	6ac0      	ldr	r0, [r0, #44]	; 0x2c
 8002f6a:	eb00 0080 	add.w	r0, r0, r0, lsl #2
 8002f6e:	f640 11e8 	movw	r1, #2536	; 0x9e8
 8002f72:	f2c2 0100 	movt	r1, #8192	; 0x2000
 8002f76:	f851 0020 	ldr.w	r0, [r1, r0, lsl #2]
 8002f7a:	2802      	cmp	r0, #2
 8002f7c:	d303      	bcc.n	8002f86 <xTaskIncrementTick+0x1aa>
 8002f7e:	e7ff      	b.n	8002f80 <xTaskIncrementTick+0x1a4>
 8002f80:	2001      	movs	r0, #1
 8002f82:	9006      	str	r0, [sp, #24]
 8002f84:	e000      	b.n	8002f88 <xTaskIncrementTick+0x1ac>
 8002f86:	e7ff      	b.n	8002f88 <xTaskIncrementTick+0x1ac>
 8002f88:	e007      	b.n	8002f9a <xTaskIncrementTick+0x1be>
 8002f8a:	f640 20e0 	movw	r0, #2784	; 0xae0
 8002f8e:	f2c2 0000 	movt	r0, #8192	; 0x2000
 8002f92:	6801      	ldr	r1, [r0, #0]
 8002f94:	3101      	adds	r1, #1
 8002f96:	6001      	str	r1, [r0, #0]
 8002f98:	e7ff      	b.n	8002f9a <xTaskIncrementTick+0x1be>
 8002f9a:	f640 20dc 	movw	r0, #2780	; 0xadc
 8002f9e:	f2c2 0000 	movt	r0, #8192	; 0x2000
 8002fa2:	6800      	ldr	r0, [r0, #0]
 8002fa4:	2800      	cmp	r0, #0
 8002fa6:	d003      	beq.n	8002fb0 <xTaskIncrementTick+0x1d4>
 8002fa8:	e7ff      	b.n	8002faa <xTaskIncrementTick+0x1ce>
 8002faa:	2001      	movs	r0, #1
 8002fac:	9006      	str	r0, [sp, #24]
 8002fae:	e000      	b.n	8002fb2 <xTaskIncrementTick+0x1d6>
 8002fb0:	e7ff      	b.n	8002fb2 <xTaskIncrementTick+0x1d6>
 8002fb2:	9806      	ldr	r0, [sp, #24]
 8002fb4:	b00a      	add	sp, #40	; 0x28
 8002fb6:	bd80      	pop	{r7, pc}

08002fb8 <xTaskGetSchedulerState>:
 8002fb8:	b081      	sub	sp, #4
 8002fba:	f640 2098 	movw	r0, #2712	; 0xa98
 8002fbe:	f2c2 0000 	movt	r0, #8192	; 0x2000
 8002fc2:	6800      	ldr	r0, [r0, #0]
 8002fc4:	2800      	cmp	r0, #0
 8002fc6:	d103      	bne.n	8002fd0 <xTaskGetSchedulerState+0x18>
 8002fc8:	e7ff      	b.n	8002fca <xTaskGetSchedulerState+0x12>
 8002fca:	2001      	movs	r0, #1
 8002fcc:	9000      	str	r0, [sp, #0]
 8002fce:	e00e      	b.n	8002fee <xTaskGetSchedulerState+0x36>
 8002fd0:	f640 209c 	movw	r0, #2716	; 0xa9c
 8002fd4:	f2c2 0000 	movt	r0, #8192	; 0x2000
 8002fd8:	6800      	ldr	r0, [r0, #0]
 8002fda:	2800      	cmp	r0, #0
 8002fdc:	d103      	bne.n	8002fe6 <xTaskGetSchedulerState+0x2e>
 8002fde:	e7ff      	b.n	8002fe0 <xTaskGetSchedulerState+0x28>
 8002fe0:	2002      	movs	r0, #2
 8002fe2:	9000      	str	r0, [sp, #0]
 8002fe4:	e002      	b.n	8002fec <xTaskGetSchedulerState+0x34>
 8002fe6:	2000      	movs	r0, #0
 8002fe8:	9000      	str	r0, [sp, #0]
 8002fea:	e7ff      	b.n	8002fec <xTaskGetSchedulerState+0x34>
 8002fec:	e7ff      	b.n	8002fee <xTaskGetSchedulerState+0x36>
 8002fee:	9800      	ldr	r0, [sp, #0]
 8002ff0:	b001      	add	sp, #4
 8002ff2:	4770      	bx	lr

08002ff4 <prvInitialiseTaskLists>:
 8002ff4:	b580      	push	{r7, lr}
 8002ff6:	466f      	mov	r7, sp
 8002ff8:	b084      	sub	sp, #16
 8002ffa:	2000      	movs	r0, #0
 8002ffc:	9003      	str	r0, [sp, #12]
 8002ffe:	e7ff      	b.n	8003000 <prvInitialiseTaskLists+0xc>
 8003000:	9803      	ldr	r0, [sp, #12]
 8003002:	2806      	cmp	r0, #6
 8003004:	d810      	bhi.n	8003028 <prvInitialiseTaskLists+0x34>
 8003006:	e7ff      	b.n	8003008 <prvInitialiseTaskLists+0x14>
 8003008:	9803      	ldr	r0, [sp, #12]
 800300a:	eb00 0080 	add.w	r0, r0, r0, lsl #2
 800300e:	f640 11e8 	movw	r1, #2536	; 0x9e8
 8003012:	f2c2 0100 	movt	r1, #8192	; 0x2000
 8003016:	eb01 0080 	add.w	r0, r1, r0, lsl #2
 800301a:	f7ff faf8 	bl	800260e <vListInitialise>
 800301e:	e7ff      	b.n	8003020 <prvInitialiseTaskLists+0x2c>
 8003020:	9803      	ldr	r0, [sp, #12]
 8003022:	3001      	adds	r0, #1
 8003024:	9003      	str	r0, [sp, #12]
 8003026:	e7eb      	b.n	8003000 <prvInitialiseTaskLists+0xc>
 8003028:	f640 20e8 	movw	r0, #2792	; 0xae8
 800302c:	f2c2 0000 	movt	r0, #8192	; 0x2000
 8003030:	9002      	str	r0, [sp, #8]
 8003032:	f7ff faec 	bl	800260e <vListInitialise>
 8003036:	f640 20fc 	movw	r0, #2812	; 0xafc
 800303a:	f2c2 0000 	movt	r0, #8192	; 0x2000
 800303e:	9001      	str	r0, [sp, #4]
 8003040:	f7ff fae5 	bl	800260e <vListInitialise>
 8003044:	f640 20bc 	movw	r0, #2748	; 0xabc
 8003048:	f2c2 0000 	movt	r0, #8192	; 0x2000
 800304c:	f7ff fadf 	bl	800260e <vListInitialise>
 8003050:	f640 207c 	movw	r0, #2684	; 0xa7c
 8003054:	f2c2 0000 	movt	r0, #8192	; 0x2000
 8003058:	f7ff fad9 	bl	800260e <vListInitialise>
 800305c:	f640 20a8 	movw	r0, #2728	; 0xaa8
 8003060:	f2c2 0000 	movt	r0, #8192	; 0x2000
 8003064:	f7ff fad3 	bl	800260e <vListInitialise>
 8003068:	f640 20a0 	movw	r0, #2720	; 0xaa0
 800306c:	f2c2 0000 	movt	r0, #8192	; 0x2000
 8003070:	f8dd e008 	ldr.w	lr, [sp, #8]
 8003074:	f8c0 e000 	str.w	lr, [r0]
 8003078:	f640 20a4 	movw	r0, #2724	; 0xaa4
 800307c:	f2c2 0000 	movt	r0, #8192	; 0x2000
 8003080:	9901      	ldr	r1, [sp, #4]
 8003082:	6001      	str	r1, [r0, #0]
 8003084:	b004      	add	sp, #16
 8003086:	bd80      	pop	{r7, pc}

08003088 <prvCheckTasksWaitingTermination>:
 8003088:	b580      	push	{r7, lr}
 800308a:	466f      	mov	r7, sp
 800308c:	b082      	sub	sp, #8
 800308e:	e7ff      	b.n	8003090 <prvCheckTasksWaitingTermination+0x8>
 8003090:	f640 2090 	movw	r0, #2704	; 0xa90
 8003094:	f2c2 0000 	movt	r0, #8192	; 0x2000
 8003098:	6800      	ldr	r0, [r0, #0]
 800309a:	2800      	cmp	r0, #0
 800309c:	d02c      	beq.n	80030f8 <prvCheckTasksWaitingTermination+0x70>
 800309e:	e7ff      	b.n	80030a0 <prvCheckTasksWaitingTermination+0x18>
 80030a0:	f000 f990 	bl	80033c4 <vPortEnterCritical>
 80030a4:	f640 2e7c 	movw	lr, #2684	; 0xa7c
 80030a8:	f2c2 0e00 	movt	lr, #8192	; 0x2000
 80030ac:	f8de e00c 	ldr.w	lr, [lr, #12]
 80030b0:	f8de e00c 	ldr.w	lr, [lr, #12]
 80030b4:	f8cd e004 	str.w	lr, [sp, #4]
 80030b8:	f8dd e004 	ldr.w	lr, [sp, #4]
 80030bc:	f10e 0004 	add.w	r0, lr, #4
 80030c0:	f7ff fae8 	bl	8002694 <uxListRemove>
 80030c4:	f640 2e94 	movw	lr, #2708	; 0xa94
 80030c8:	f2c2 0e00 	movt	lr, #8192	; 0x2000
 80030cc:	f8de 1000 	ldr.w	r1, [lr]
 80030d0:	3901      	subs	r1, #1
 80030d2:	f8ce 1000 	str.w	r1, [lr]
 80030d6:	f640 2190 	movw	r1, #2704	; 0xa90
 80030da:	f2c2 0100 	movt	r1, #8192	; 0x2000
 80030de:	f8d1 e000 	ldr.w	lr, [r1]
 80030e2:	f1ae 0e01 	sub.w	lr, lr, #1
 80030e6:	f8c1 e000 	str.w	lr, [r1]
 80030ea:	9000      	str	r0, [sp, #0]
 80030ec:	f000 f996 	bl	800341c <vPortExitCritical>
 80030f0:	9801      	ldr	r0, [sp, #4]
 80030f2:	f7ff fc88 	bl	8002a06 <prvDeleteTCB>
 80030f6:	e7cb      	b.n	8003090 <prvCheckTasksWaitingTermination+0x8>
 80030f8:	b002      	add	sp, #8
 80030fa:	bd80      	pop	{r7, pc}

080030fc <pxPortInitialiseStack>:
 80030fc:	b580      	push	{r7, lr}
 80030fe:	466f      	mov	r7, sp
 8003100:	b086      	sub	sp, #24
 8003102:	4613      	mov	r3, r2
 8003104:	468c      	mov	ip, r1
 8003106:	4686      	mov	lr, r0
 8003108:	9005      	str	r0, [sp, #20]
 800310a:	9104      	str	r1, [sp, #16]
 800310c:	9203      	str	r2, [sp, #12]
 800310e:	9805      	ldr	r0, [sp, #20]
 8003110:	3804      	subs	r0, #4
 8003112:	9005      	str	r0, [sp, #20]
 8003114:	9805      	ldr	r0, [sp, #20]
 8003116:	f04f 7180 	mov.w	r1, #16777216	; 0x1000000
 800311a:	6001      	str	r1, [r0, #0]
 800311c:	9805      	ldr	r0, [sp, #20]
 800311e:	3804      	subs	r0, #4
 8003120:	9005      	str	r0, [sp, #20]
 8003122:	9804      	ldr	r0, [sp, #16]
 8003124:	f020 0001 	bic.w	r0, r0, #1
 8003128:	9905      	ldr	r1, [sp, #20]
 800312a:	6008      	str	r0, [r1, #0]
 800312c:	9805      	ldr	r0, [sp, #20]
 800312e:	3804      	subs	r0, #4
 8003130:	9005      	str	r0, [sp, #20]
 8003132:	9805      	ldr	r0, [sp, #20]
 8003134:	f243 116f 	movw	r1, #12655	; 0x316f
 8003138:	f6c0 0100 	movt	r1, #2048	; 0x800
 800313c:	6001      	str	r1, [r0, #0]
 800313e:	9805      	ldr	r0, [sp, #20]
 8003140:	3814      	subs	r0, #20
 8003142:	9005      	str	r0, [sp, #20]
 8003144:	9803      	ldr	r0, [sp, #12]
 8003146:	9905      	ldr	r1, [sp, #20]
 8003148:	6008      	str	r0, [r1, #0]
 800314a:	9805      	ldr	r0, [sp, #20]
 800314c:	3804      	subs	r0, #4
 800314e:	9005      	str	r0, [sp, #20]
 8003150:	9805      	ldr	r0, [sp, #20]
 8003152:	f06f 0102 	mvn.w	r1, #2
 8003156:	6001      	str	r1, [r0, #0]
 8003158:	9805      	ldr	r0, [sp, #20]
 800315a:	3820      	subs	r0, #32
 800315c:	9005      	str	r0, [sp, #20]
 800315e:	9805      	ldr	r0, [sp, #20]
 8003160:	9302      	str	r3, [sp, #8]
 8003162:	f8cd c004 	str.w	ip, [sp, #4]
 8003166:	f8cd e000 	str.w	lr, [sp]
 800316a:	b006      	add	sp, #24
 800316c:	bd80      	pop	{r7, pc}

0800316e <prvTaskExitError>:
 800316e:	b083      	sub	sp, #12
 8003170:	2000      	movs	r0, #0
 8003172:	9000      	str	r0, [sp, #0]
 8003174:	f240 0000 	movw	r0, #0
 8003178:	f2c2 0000 	movt	r0, #8192	; 0x2000
 800317c:	6800      	ldr	r0, [r0, #0]
 800317e:	3001      	adds	r0, #1
 8003180:	2800      	cmp	r0, #0
 8003182:	d00b      	beq.n	800319c <prvTaskExitError+0x2e>
 8003184:	e7ff      	b.n	8003186 <prvTaskExitError+0x18>
 8003186:	f04f 0050 	mov.w	r0, #80	; 0x50
 800318a:	f380 8811 	msr	BASEPRI, r0
 800318e:	f3bf 8f6f 	isb	sy
 8003192:	f3bf 8f4f 	dsb	sy
 8003196:	9001      	str	r0, [sp, #4]
 8003198:	e7ff      	b.n	800319a <prvTaskExitError+0x2c>
 800319a:	e7fe      	b.n	800319a <prvTaskExitError+0x2c>
 800319c:	f04f 0050 	mov.w	r0, #80	; 0x50
 80031a0:	f380 8811 	msr	BASEPRI, r0
 80031a4:	f3bf 8f6f 	isb	sy
 80031a8:	f3bf 8f4f 	dsb	sy
 80031ac:	9002      	str	r0, [sp, #8]
 80031ae:	e7ff      	b.n	80031b0 <prvTaskExitError+0x42>
 80031b0:	9800      	ldr	r0, [sp, #0]
 80031b2:	2800      	cmp	r0, #0
 80031b4:	d101      	bne.n	80031ba <prvTaskExitError+0x4c>
 80031b6:	e7ff      	b.n	80031b8 <prvTaskExitError+0x4a>
 80031b8:	e7fa      	b.n	80031b0 <prvTaskExitError+0x42>
 80031ba:	b003      	add	sp, #12
 80031bc:	4770      	bx	lr
	...

080031c0 <SVC_Handler>:
 80031c0:	4b07      	ldr	r3, [pc, #28]	; (80031e0 <pxCurrentTCBConst2>)
 80031c2:	6819      	ldr	r1, [r3, #0]
 80031c4:	6808      	ldr	r0, [r1, #0]
 80031c6:	e8b0 4ff0 	ldmia.w	r0!, {r4, r5, r6, r7, r8, r9, sl, fp, lr}
 80031ca:	f380 8809 	msr	PSP, r0
 80031ce:	f3bf 8f6f 	isb	sy
 80031d2:	f04f 0000 	mov.w	r0, #0
 80031d6:	f380 8811 	msr	BASEPRI, r0
 80031da:	4770      	bx	lr
 80031dc:	bf00      	nop
 80031de:	bf00      	nop

080031e0 <pxCurrentTCBConst2>:
 80031e0:	200009e4 	.word	0x200009e4

080031e4 <xPortStartScheduler>:
 80031e4:	b580      	push	{r7, lr}
 80031e6:	466f      	mov	r7, sp
 80031e8:	b088      	sub	sp, #32
 80031ea:	f64e 5000 	movw	r0, #60672	; 0xed00
 80031ee:	f2ce 0000 	movt	r0, #57344	; 0xe000
 80031f2:	6800      	ldr	r0, [r0, #0]
 80031f4:	f24c 2171 	movw	r1, #49777	; 0xc271
 80031f8:	f2c4 110f 	movt	r1, #16655	; 0x410f
 80031fc:	4288      	cmp	r0, r1
 80031fe:	d10b      	bne.n	8003218 <xPortStartScheduler+0x34>
 8003200:	e7ff      	b.n	8003202 <xPortStartScheduler+0x1e>
 8003202:	f04f 0050 	mov.w	r0, #80	; 0x50
 8003206:	f380 8811 	msr	BASEPRI, r0
 800320a:	f3bf 8f6f 	isb	sy
 800320e:	f3bf 8f4f 	dsb	sy
 8003212:	9005      	str	r0, [sp, #20]
 8003214:	e7ff      	b.n	8003216 <xPortStartScheduler+0x32>
 8003216:	e7fe      	b.n	8003216 <xPortStartScheduler+0x32>
 8003218:	f64e 5000 	movw	r0, #60672	; 0xed00
 800321c:	f2ce 0000 	movt	r0, #57344	; 0xe000
 8003220:	6800      	ldr	r0, [r0, #0]
 8003222:	f24c 2170 	movw	r1, #49776	; 0xc270
 8003226:	f2c4 110f 	movt	r1, #16655	; 0x410f
 800322a:	4288      	cmp	r0, r1
 800322c:	d10b      	bne.n	8003246 <xPortStartScheduler+0x62>
 800322e:	e7ff      	b.n	8003230 <xPortStartScheduler+0x4c>
 8003230:	f04f 0050 	mov.w	r0, #80	; 0x50
 8003234:	f380 8811 	msr	BASEPRI, r0
 8003238:	f3bf 8f6f 	isb	sy
 800323c:	f3bf 8f4f 	dsb	sy
 8003240:	9006      	str	r0, [sp, #24]
 8003242:	e7ff      	b.n	8003244 <xPortStartScheduler+0x60>
 8003244:	e7fe      	b.n	8003244 <xPortStartScheduler+0x60>
 8003246:	f24e 4000 	movw	r0, #58368	; 0xe400
 800324a:	f2ce 0000 	movt	r0, #57344	; 0xe000
 800324e:	9003      	str	r0, [sp, #12]
 8003250:	7801      	ldrb	r1, [r0, #0]
 8003252:	9104      	str	r1, [sp, #16]
 8003254:	21ff      	movs	r1, #255	; 0xff
 8003256:	7001      	strb	r1, [r0, #0]
 8003258:	7800      	ldrb	r0, [r0, #0]
 800325a:	f807 0c15 	strb.w	r0, [r7, #-21]
 800325e:	f817 0c15 	ldrb.w	r0, [r7, #-21]
 8003262:	f000 0050 	and.w	r0, r0, #80	; 0x50
 8003266:	f640 3110 	movw	r1, #2832	; 0xb10
 800326a:	f2c2 0100 	movt	r1, #8192	; 0x2000
 800326e:	7008      	strb	r0, [r1, #0]
 8003270:	f640 3014 	movw	r0, #2836	; 0xb14
 8003274:	f2c2 0000 	movt	r0, #8192	; 0x2000
 8003278:	2107      	movs	r1, #7
 800327a:	6001      	str	r1, [r0, #0]
 800327c:	e7ff      	b.n	800327e <xPortStartScheduler+0x9a>
 800327e:	f817 0c15 	ldrb.w	r0, [r7, #-21]
 8003282:	f010 0f80 	tst.w	r0, #128	; 0x80
 8003286:	d00d      	beq.n	80032a4 <xPortStartScheduler+0xc0>
 8003288:	e7ff      	b.n	800328a <xPortStartScheduler+0xa6>
 800328a:	f640 3014 	movw	r0, #2836	; 0xb14
 800328e:	f2c2 0000 	movt	r0, #8192	; 0x2000
 8003292:	6801      	ldr	r1, [r0, #0]
 8003294:	3901      	subs	r1, #1
 8003296:	6001      	str	r1, [r0, #0]
 8003298:	f817 0c15 	ldrb.w	r0, [r7, #-21]
 800329c:	0040      	lsls	r0, r0, #1
 800329e:	f807 0c15 	strb.w	r0, [r7, #-21]
 80032a2:	e7ec      	b.n	800327e <xPortStartScheduler+0x9a>
 80032a4:	f640 3014 	movw	r0, #2836	; 0xb14
 80032a8:	f2c2 0000 	movt	r0, #8192	; 0x2000
 80032ac:	6800      	ldr	r0, [r0, #0]
 80032ae:	2803      	cmp	r0, #3
 80032b0:	d00b      	beq.n	80032ca <xPortStartScheduler+0xe6>
 80032b2:	e7ff      	b.n	80032b4 <xPortStartScheduler+0xd0>
 80032b4:	f04f 0050 	mov.w	r0, #80	; 0x50
 80032b8:	f380 8811 	msr	BASEPRI, r0
 80032bc:	f3bf 8f6f 	isb	sy
 80032c0:	f3bf 8f4f 	dsb	sy
 80032c4:	9007      	str	r0, [sp, #28]
 80032c6:	e7ff      	b.n	80032c8 <xPortStartScheduler+0xe4>
 80032c8:	e7fe      	b.n	80032c8 <xPortStartScheduler+0xe4>
 80032ca:	f640 3014 	movw	r0, #2836	; 0xb14
 80032ce:	f2c2 0000 	movt	r0, #8192	; 0x2000
 80032d2:	6801      	ldr	r1, [r0, #0]
 80032d4:	0209      	lsls	r1, r1, #8
 80032d6:	6001      	str	r1, [r0, #0]
 80032d8:	6801      	ldr	r1, [r0, #0]
 80032da:	f401 61e0 	and.w	r1, r1, #1792	; 0x700
 80032de:	6001      	str	r1, [r0, #0]
 80032e0:	9804      	ldr	r0, [sp, #16]
 80032e2:	f24e 4100 	movw	r1, #58368	; 0xe400
 80032e6:	f2ce 0100 	movt	r1, #57344	; 0xe000
 80032ea:	7008      	strb	r0, [r1, #0]
 80032ec:	f64e 5020 	movw	r0, #60704	; 0xed20
 80032f0:	f2ce 0000 	movt	r0, #57344	; 0xe000
 80032f4:	6801      	ldr	r1, [r0, #0]
 80032f6:	f441 0170 	orr.w	r1, r1, #15728640	; 0xf00000
 80032fa:	6001      	str	r1, [r0, #0]
 80032fc:	6801      	ldr	r1, [r0, #0]
 80032fe:	f041 4170 	orr.w	r1, r1, #4026531840	; 0xf0000000
 8003302:	6001      	str	r1, [r0, #0]
 8003304:	f000 f81a 	bl	800333c <vPortSetupTimerInterrupt>
 8003308:	f240 0000 	movw	r0, #0
 800330c:	f2c2 0000 	movt	r0, #8192	; 0x2000
 8003310:	2100      	movs	r1, #0
 8003312:	6001      	str	r1, [r0, #0]
 8003314:	9101      	str	r1, [sp, #4]
 8003316:	f000 f837 	bl	8003388 <vPortEnableVFP>
 800331a:	f64e 7034 	movw	r0, #61236	; 0xef34
 800331e:	f2ce 0000 	movt	r0, #57344	; 0xe000
 8003322:	6801      	ldr	r1, [r0, #0]
 8003324:	f041 4140 	orr.w	r1, r1, #3221225472	; 0xc0000000
 8003328:	6001      	str	r1, [r0, #0]
 800332a:	f000 f837 	bl	800339c <prvPortStartFirstTask>
 800332e:	f7ff fc79 	bl	8002c24 <vTaskSwitchContext>
 8003332:	f7ff ff1c 	bl	800316e <prvTaskExitError>
 8003336:	9801      	ldr	r0, [sp, #4]
 8003338:	b008      	add	sp, #32
 800333a:	bd80      	pop	{r7, pc}

0800333c <vPortSetupTimerInterrupt>:
 800333c:	b081      	sub	sp, #4
 800333e:	f24e 0010 	movw	r0, #57360	; 0xe010
 8003342:	f2ce 0000 	movt	r0, #57344	; 0xe000
 8003346:	2100      	movs	r1, #0
 8003348:	6001      	str	r1, [r0, #0]
 800334a:	f24e 0218 	movw	r2, #57368	; 0xe018
 800334e:	f2ce 0200 	movt	r2, #57344	; 0xe000
 8003352:	6011      	str	r1, [r2, #0]
 8003354:	f240 0118 	movw	r1, #24
 8003358:	f2c2 0100 	movt	r1, #8192	; 0x2000
 800335c:	6809      	ldr	r1, [r1, #0]
 800335e:	f644 52d3 	movw	r2, #19923	; 0x4dd3
 8003362:	f2c1 0262 	movt	r2, #4194	; 0x1062
 8003366:	fba1 1202 	umull	r1, r2, r1, r2
 800336a:	f04f 33ff 	mov.w	r3, #4294967295	; 0xffffffff
 800336e:	eb03 1292 	add.w	r2, r3, r2, lsr #6
 8003372:	f24e 0314 	movw	r3, #57364	; 0xe014
 8003376:	f2ce 0300 	movt	r3, #57344	; 0xe000
 800337a:	601a      	str	r2, [r3, #0]
 800337c:	2207      	movs	r2, #7
 800337e:	6002      	str	r2, [r0, #0]
 8003380:	9100      	str	r1, [sp, #0]
 8003382:	b001      	add	sp, #4
 8003384:	4770      	bx	lr
	...

08003388 <vPortEnableVFP>:
 8003388:	f8df 000c 	ldr.w	r0, [pc, #12]	; 8003398 <vPortEnableVFP+0x10>
 800338c:	6801      	ldr	r1, [r0, #0]
 800338e:	f441 0170 	orr.w	r1, r1, #15728640	; 0xf00000
 8003392:	6001      	str	r1, [r0, #0]
 8003394:	4770      	bx	lr
 8003396:	bf00      	nop
 8003398:	e000ed88 	.word	0xe000ed88

0800339c <prvPortStartFirstTask>:
 800339c:	4808      	ldr	r0, [pc, #32]	; (80033c0 <prvPortStartFirstTask+0x24>)
 800339e:	6800      	ldr	r0, [r0, #0]
 80033a0:	6800      	ldr	r0, [r0, #0]
 80033a2:	f380 8808 	msr	MSP, r0
 80033a6:	f04f 0000 	mov.w	r0, #0
 80033aa:	f380 8814 	msr	CONTROL, r0
 80033ae:	b662      	cpsie	i
 80033b0:	b661      	cpsie	f
 80033b2:	f3bf 8f4f 	dsb	sy
 80033b6:	f3bf 8f6f 	isb	sy
 80033ba:	df00      	svc	0
 80033bc:	bf00      	nop
 80033be:	bf00      	nop
 80033c0:	e000ed08 	.word	0xe000ed08

080033c4 <vPortEnterCritical>:
 80033c4:	b082      	sub	sp, #8
 80033c6:	f04f 0050 	mov.w	r0, #80	; 0x50
 80033ca:	f380 8811 	msr	BASEPRI, r0
 80033ce:	f3bf 8f6f 	isb	sy
 80033d2:	f3bf 8f4f 	dsb	sy
 80033d6:	9000      	str	r0, [sp, #0]
 80033d8:	f240 0000 	movw	r0, #0
 80033dc:	f2c2 0000 	movt	r0, #8192	; 0x2000
 80033e0:	6801      	ldr	r1, [r0, #0]
 80033e2:	3101      	adds	r1, #1
 80033e4:	6001      	str	r1, [r0, #0]
 80033e6:	6800      	ldr	r0, [r0, #0]
 80033e8:	2801      	cmp	r0, #1
 80033ea:	d115      	bne.n	8003418 <vPortEnterCritical+0x54>
 80033ec:	e7ff      	b.n	80033ee <vPortEnterCritical+0x2a>
 80033ee:	f64e 5004 	movw	r0, #60676	; 0xed04
 80033f2:	f2ce 0000 	movt	r0, #57344	; 0xe000
 80033f6:	6800      	ldr	r0, [r0, #0]
 80033f8:	f010 0fff 	tst.w	r0, #255	; 0xff
 80033fc:	d00b      	beq.n	8003416 <vPortEnterCritical+0x52>
 80033fe:	e7ff      	b.n	8003400 <vPortEnterCritical+0x3c>
 8003400:	f04f 0050 	mov.w	r0, #80	; 0x50
 8003404:	f380 8811 	msr	BASEPRI, r0
 8003408:	f3bf 8f6f 	isb	sy
 800340c:	f3bf 8f4f 	dsb	sy
 8003410:	9001      	str	r0, [sp, #4]
 8003412:	e7ff      	b.n	8003414 <vPortEnterCritical+0x50>
 8003414:	e7fe      	b.n	8003414 <vPortEnterCritical+0x50>
 8003416:	e7ff      	b.n	8003418 <vPortEnterCritical+0x54>
 8003418:	b002      	add	sp, #8
 800341a:	4770      	bx	lr

0800341c <vPortExitCritical>:
 800341c:	b082      	sub	sp, #8
 800341e:	f240 0000 	movw	r0, #0
 8003422:	f2c2 0000 	movt	r0, #8192	; 0x2000
 8003426:	6800      	ldr	r0, [r0, #0]
 8003428:	2800      	cmp	r0, #0
 800342a:	d10b      	bne.n	8003444 <vPortExitCritical+0x28>
 800342c:	e7ff      	b.n	800342e <vPortExitCritical+0x12>
 800342e:	f04f 0050 	mov.w	r0, #80	; 0x50
 8003432:	f380 8811 	msr	BASEPRI, r0
 8003436:	f3bf 8f6f 	isb	sy
 800343a:	f3bf 8f4f 	dsb	sy
 800343e:	9000      	str	r0, [sp, #0]
 8003440:	e7ff      	b.n	8003442 <vPortExitCritical+0x26>
 8003442:	e7fe      	b.n	8003442 <vPortExitCritical+0x26>
 8003444:	f240 0000 	movw	r0, #0
 8003448:	f2c2 0000 	movt	r0, #8192	; 0x2000
 800344c:	6801      	ldr	r1, [r0, #0]
 800344e:	3901      	subs	r1, #1
 8003450:	6001      	str	r1, [r0, #0]
 8003452:	6800      	ldr	r0, [r0, #0]
 8003454:	2800      	cmp	r0, #0
 8003456:	d106      	bne.n	8003466 <vPortExitCritical+0x4a>
 8003458:	e7ff      	b.n	800345a <vPortExitCritical+0x3e>
 800345a:	2000      	movs	r0, #0
 800345c:	9001      	str	r0, [sp, #4]
 800345e:	9801      	ldr	r0, [sp, #4]
 8003460:	f380 8811 	msr	BASEPRI, r0
 8003464:	e7ff      	b.n	8003466 <vPortExitCritical+0x4a>
 8003466:	b002      	add	sp, #8
 8003468:	4770      	bx	lr
 800346a:	0000      	movs	r0, r0
 800346c:	0000      	movs	r0, r0
	...

08003470 <PendSV_Handler>:
 8003470:	f3ef 8009 	mrs	r0, PSP
 8003474:	f3bf 8f6f 	isb	sy
 8003478:	4b15      	ldr	r3, [pc, #84]	; (80034d0 <pxCurrentTCBConst>)
 800347a:	681a      	ldr	r2, [r3, #0]
 800347c:	f01e 0f10 	tst.w	lr, #16
 8003480:	bf08      	it	eq
 8003482:	ed20 8a10 	vstmdbeq	r0!, {s16-s31}
 8003486:	e920 4ff0 	stmdb	r0!, {r4, r5, r6, r7, r8, r9, sl, fp, lr}
 800348a:	6010      	str	r0, [r2, #0]
 800348c:	e92d 0009 	stmdb	sp!, {r0, r3}
 8003490:	f04f 0050 	mov.w	r0, #80	; 0x50
 8003494:	f380 8811 	msr	BASEPRI, r0
 8003498:	f3bf 8f4f 	dsb	sy
 800349c:	f3bf 8f6f 	isb	sy
 80034a0:	f7ff fbc0 	bl	8002c24 <vTaskSwitchContext>
 80034a4:	f04f 0000 	mov.w	r0, #0
 80034a8:	f380 8811 	msr	BASEPRI, r0
 80034ac:	e8bd 0009 	ldmia.w	sp!, {r0, r3}
 80034b0:	6819      	ldr	r1, [r3, #0]
 80034b2:	6808      	ldr	r0, [r1, #0]
 80034b4:	e8b0 4ff0 	ldmia.w	r0!, {r4, r5, r6, r7, r8, r9, sl, fp, lr}
 80034b8:	f01e 0f10 	tst.w	lr, #16
 80034bc:	bf08      	it	eq
 80034be:	ecb0 8a10 	vldmiaeq	r0!, {s16-s31}
 80034c2:	f380 8809 	msr	PSP, r0
 80034c6:	f3bf 8f6f 	isb	sy
 80034ca:	4770      	bx	lr
 80034cc:	bf00      	nop
 80034ce:	bf00      	nop

080034d0 <pxCurrentTCBConst>:
 80034d0:	200009e4 	.word	0x200009e4

080034d4 <xPortSysTickHandler>:
 80034d4:	b580      	push	{r7, lr}
 80034d6:	466f      	mov	r7, sp
 80034d8:	b082      	sub	sp, #8
 80034da:	f04f 0050 	mov.w	r0, #80	; 0x50
 80034de:	f380 8811 	msr	BASEPRI, r0
 80034e2:	f3bf 8f6f 	isb	sy
 80034e6:	f3bf 8f4f 	dsb	sy
 80034ea:	9000      	str	r0, [sp, #0]
 80034ec:	f7ff fc76 	bl	8002ddc <xTaskIncrementTick>
 80034f0:	2800      	cmp	r0, #0
 80034f2:	d008      	beq.n	8003506 <xPortSysTickHandler+0x32>
 80034f4:	e7ff      	b.n	80034f6 <xPortSysTickHandler+0x22>
 80034f6:	f64e 5004 	movw	r0, #60676	; 0xed04
 80034fa:	f2ce 0000 	movt	r0, #57344	; 0xe000
 80034fe:	f04f 5180 	mov.w	r1, #268435456	; 0x10000000
 8003502:	6001      	str	r1, [r0, #0]
 8003504:	e7ff      	b.n	8003506 <xPortSysTickHandler+0x32>
 8003506:	2000      	movs	r0, #0
 8003508:	9001      	str	r0, [sp, #4]
 800350a:	9801      	ldr	r0, [sp, #4]
 800350c:	f380 8811 	msr	BASEPRI, r0
 8003510:	b002      	add	sp, #8
 8003512:	bd80      	pop	{r7, pc}

08003514 <pvPortMalloc>:
 8003514:	b580      	push	{r7, lr}
 8003516:	466f      	mov	r7, sp
 8003518:	b08c      	sub	sp, #48	; 0x30
 800351a:	4601      	mov	r1, r0
 800351c:	9008      	str	r0, [sp, #32]
 800351e:	2000      	movs	r0, #0
 8003520:	9004      	str	r0, [sp, #16]
 8003522:	9103      	str	r1, [sp, #12]
 8003524:	f7ff faa6 	bl	8002a74 <vTaskSuspendAll>
 8003528:	f640 3018 	movw	r0, #2840	; 0xb18
 800352c:	f2c2 0000 	movt	r0, #8192	; 0x2000
 8003530:	6800      	ldr	r0, [r0, #0]
 8003532:	2800      	cmp	r0, #0
 8003534:	d103      	bne.n	800353e <pvPortMalloc+0x2a>
 8003536:	e7ff      	b.n	8003538 <pvPortMalloc+0x24>
 8003538:	f000 f8ea 	bl	8003710 <prvHeapInit>
 800353c:	e000      	b.n	8003540 <pvPortMalloc+0x2c>
 800353e:	e7ff      	b.n	8003540 <pvPortMalloc+0x2c>
 8003540:	9808      	ldr	r0, [sp, #32]
 8003542:	f640 311c 	movw	r1, #2844	; 0xb1c
 8003546:	f2c2 0100 	movt	r1, #8192	; 0x2000
 800354a:	6809      	ldr	r1, [r1, #0]
 800354c:	4208      	tst	r0, r1
 800354e:	f040 80c5 	bne.w	80036dc <pvPortMalloc+0x1c8>
 8003552:	e7ff      	b.n	8003554 <pvPortMalloc+0x40>
 8003554:	9808      	ldr	r0, [sp, #32]
 8003556:	2800      	cmp	r0, #0
 8003558:	d024      	beq.n	80035a4 <pvPortMalloc+0x90>
 800355a:	e7ff      	b.n	800355c <pvPortMalloc+0x48>
 800355c:	9808      	ldr	r0, [sp, #32]
 800355e:	3008      	adds	r0, #8
 8003560:	9008      	str	r0, [sp, #32]
 8003562:	f89d 0020 	ldrb.w	r0, [sp, #32]
 8003566:	0740      	lsls	r0, r0, #29
 8003568:	2800      	cmp	r0, #0
 800356a:	d019      	beq.n	80035a0 <pvPortMalloc+0x8c>
 800356c:	e7ff      	b.n	800356e <pvPortMalloc+0x5a>
 800356e:	9808      	ldr	r0, [sp, #32]
 8003570:	f000 0107 	and.w	r1, r0, #7
 8003574:	f1c1 0108 	rsb	r1, r1, #8
 8003578:	4408      	add	r0, r1
 800357a:	9008      	str	r0, [sp, #32]
 800357c:	f89d 0020 	ldrb.w	r0, [sp, #32]
 8003580:	0740      	lsls	r0, r0, #29
 8003582:	2800      	cmp	r0, #0
 8003584:	d00b      	beq.n	800359e <pvPortMalloc+0x8a>
 8003586:	e7ff      	b.n	8003588 <pvPortMalloc+0x74>
 8003588:	f04f 0050 	mov.w	r0, #80	; 0x50
 800358c:	f380 8811 	msr	BASEPRI, r0
 8003590:	f3bf 8f6f 	isb	sy
 8003594:	f3bf 8f4f 	dsb	sy
 8003598:	9009      	str	r0, [sp, #36]	; 0x24
 800359a:	e7ff      	b.n	800359c <pvPortMalloc+0x88>
 800359c:	e7fe      	b.n	800359c <pvPortMalloc+0x88>
 800359e:	e000      	b.n	80035a2 <pvPortMalloc+0x8e>
 80035a0:	e7ff      	b.n	80035a2 <pvPortMalloc+0x8e>
 80035a2:	e000      	b.n	80035a6 <pvPortMalloc+0x92>
 80035a4:	e7ff      	b.n	80035a6 <pvPortMalloc+0x92>
 80035a6:	9808      	ldr	r0, [sp, #32]
 80035a8:	2800      	cmp	r0, #0
 80035aa:	f000 8095 	beq.w	80036d8 <pvPortMalloc+0x1c4>
 80035ae:	e7ff      	b.n	80035b0 <pvPortMalloc+0x9c>
 80035b0:	9808      	ldr	r0, [sp, #32]
 80035b2:	f640 3120 	movw	r1, #2848	; 0xb20
 80035b6:	f2c2 0100 	movt	r1, #8192	; 0x2000
 80035ba:	6809      	ldr	r1, [r1, #0]
 80035bc:	4288      	cmp	r0, r1
 80035be:	f200 808b 	bhi.w	80036d8 <pvPortMalloc+0x1c4>
 80035c2:	e7ff      	b.n	80035c4 <pvPortMalloc+0xb0>
 80035c4:	f640 3024 	movw	r0, #2852	; 0xb24
 80035c8:	f2c2 0000 	movt	r0, #8192	; 0x2000
 80035cc:	9006      	str	r0, [sp, #24]
 80035ce:	6800      	ldr	r0, [r0, #0]
 80035d0:	9007      	str	r0, [sp, #28]
 80035d2:	e7ff      	b.n	80035d4 <pvPortMalloc+0xc0>
 80035d4:	9807      	ldr	r0, [sp, #28]
 80035d6:	6840      	ldr	r0, [r0, #4]
 80035d8:	9908      	ldr	r1, [sp, #32]
 80035da:	2200      	movs	r2, #0
 80035dc:	4288      	cmp	r0, r1
 80035de:	9202      	str	r2, [sp, #8]
 80035e0:	d207      	bcs.n	80035f2 <pvPortMalloc+0xde>
 80035e2:	e7ff      	b.n	80035e4 <pvPortMalloc+0xd0>
 80035e4:	9807      	ldr	r0, [sp, #28]
 80035e6:	6800      	ldr	r0, [r0, #0]
 80035e8:	2800      	cmp	r0, #0
 80035ea:	bf18      	it	ne
 80035ec:	2001      	movne	r0, #1
 80035ee:	9002      	str	r0, [sp, #8]
 80035f0:	e7ff      	b.n	80035f2 <pvPortMalloc+0xde>
 80035f2:	9802      	ldr	r0, [sp, #8]
 80035f4:	07c0      	lsls	r0, r0, #31
 80035f6:	2800      	cmp	r0, #0
 80035f8:	d006      	beq.n	8003608 <pvPortMalloc+0xf4>
 80035fa:	e7ff      	b.n	80035fc <pvPortMalloc+0xe8>
 80035fc:	9807      	ldr	r0, [sp, #28]
 80035fe:	9006      	str	r0, [sp, #24]
 8003600:	9807      	ldr	r0, [sp, #28]
 8003602:	6800      	ldr	r0, [r0, #0]
 8003604:	9007      	str	r0, [sp, #28]
 8003606:	e7e5      	b.n	80035d4 <pvPortMalloc+0xc0>
 8003608:	9807      	ldr	r0, [sp, #28]
 800360a:	f640 3118 	movw	r1, #2840	; 0xb18
 800360e:	f2c2 0100 	movt	r1, #8192	; 0x2000
 8003612:	6809      	ldr	r1, [r1, #0]
 8003614:	4288      	cmp	r0, r1
 8003616:	d05d      	beq.n	80036d4 <pvPortMalloc+0x1c0>
 8003618:	e7ff      	b.n	800361a <pvPortMalloc+0x106>
 800361a:	9806      	ldr	r0, [sp, #24]
 800361c:	6800      	ldr	r0, [r0, #0]
 800361e:	3008      	adds	r0, #8
 8003620:	9004      	str	r0, [sp, #16]
 8003622:	9807      	ldr	r0, [sp, #28]
 8003624:	6800      	ldr	r0, [r0, #0]
 8003626:	9906      	ldr	r1, [sp, #24]
 8003628:	6008      	str	r0, [r1, #0]
 800362a:	9807      	ldr	r0, [sp, #28]
 800362c:	6840      	ldr	r0, [r0, #4]
 800362e:	9908      	ldr	r1, [sp, #32]
 8003630:	1a40      	subs	r0, r0, r1
 8003632:	2811      	cmp	r0, #17
 8003634:	d322      	bcc.n	800367c <pvPortMalloc+0x168>
 8003636:	e7ff      	b.n	8003638 <pvPortMalloc+0x124>
 8003638:	9807      	ldr	r0, [sp, #28]
 800363a:	9908      	ldr	r1, [sp, #32]
 800363c:	4408      	add	r0, r1
 800363e:	9005      	str	r0, [sp, #20]
 8003640:	f89d 0014 	ldrb.w	r0, [sp, #20]
 8003644:	0740      	lsls	r0, r0, #29
 8003646:	2800      	cmp	r0, #0
 8003648:	d00b      	beq.n	8003662 <pvPortMalloc+0x14e>
 800364a:	e7ff      	b.n	800364c <pvPortMalloc+0x138>
 800364c:	f04f 0050 	mov.w	r0, #80	; 0x50
 8003650:	f380 8811 	msr	BASEPRI, r0
 8003654:	f3bf 8f6f 	isb	sy
 8003658:	f3bf 8f4f 	dsb	sy
 800365c:	900a      	str	r0, [sp, #40]	; 0x28
 800365e:	e7ff      	b.n	8003660 <pvPortMalloc+0x14c>
 8003660:	e7fe      	b.n	8003660 <pvPortMalloc+0x14c>
 8003662:	9807      	ldr	r0, [sp, #28]
 8003664:	6840      	ldr	r0, [r0, #4]
 8003666:	9908      	ldr	r1, [sp, #32]
 8003668:	1a40      	subs	r0, r0, r1
 800366a:	9905      	ldr	r1, [sp, #20]
 800366c:	6048      	str	r0, [r1, #4]
 800366e:	9808      	ldr	r0, [sp, #32]
 8003670:	9907      	ldr	r1, [sp, #28]
 8003672:	6048      	str	r0, [r1, #4]
 8003674:	9805      	ldr	r0, [sp, #20]
 8003676:	f000 f8aa 	bl	80037ce <prvInsertBlockIntoFreeList>
 800367a:	e000      	b.n	800367e <pvPortMalloc+0x16a>
 800367c:	e7ff      	b.n	800367e <pvPortMalloc+0x16a>
 800367e:	9807      	ldr	r0, [sp, #28]
 8003680:	6840      	ldr	r0, [r0, #4]
 8003682:	f640 3120 	movw	r1, #2848	; 0xb20
 8003686:	f2c2 0100 	movt	r1, #8192	; 0x2000
 800368a:	680a      	ldr	r2, [r1, #0]
 800368c:	1a10      	subs	r0, r2, r0
 800368e:	6008      	str	r0, [r1, #0]
 8003690:	6808      	ldr	r0, [r1, #0]
 8003692:	f640 312c 	movw	r1, #2860	; 0xb2c
 8003696:	f2c2 0100 	movt	r1, #8192	; 0x2000
 800369a:	6809      	ldr	r1, [r1, #0]
 800369c:	4288      	cmp	r0, r1
 800369e:	d20b      	bcs.n	80036b8 <pvPortMalloc+0x1a4>
 80036a0:	e7ff      	b.n	80036a2 <pvPortMalloc+0x18e>
 80036a2:	f640 3020 	movw	r0, #2848	; 0xb20
 80036a6:	f2c2 0000 	movt	r0, #8192	; 0x2000
 80036aa:	6800      	ldr	r0, [r0, #0]
 80036ac:	f640 312c 	movw	r1, #2860	; 0xb2c
 80036b0:	f2c2 0100 	movt	r1, #8192	; 0x2000
 80036b4:	6008      	str	r0, [r1, #0]
 80036b6:	e000      	b.n	80036ba <pvPortMalloc+0x1a6>
 80036b8:	e7ff      	b.n	80036ba <pvPortMalloc+0x1a6>
 80036ba:	f640 301c 	movw	r0, #2844	; 0xb1c
 80036be:	f2c2 0000 	movt	r0, #8192	; 0x2000
 80036c2:	6800      	ldr	r0, [r0, #0]
 80036c4:	9907      	ldr	r1, [sp, #28]
 80036c6:	684a      	ldr	r2, [r1, #4]
 80036c8:	4310      	orrs	r0, r2
 80036ca:	6048      	str	r0, [r1, #4]
 80036cc:	9807      	ldr	r0, [sp, #28]
 80036ce:	2100      	movs	r1, #0
 80036d0:	6001      	str	r1, [r0, #0]
 80036d2:	e000      	b.n	80036d6 <pvPortMalloc+0x1c2>
 80036d4:	e7ff      	b.n	80036d6 <pvPortMalloc+0x1c2>
 80036d6:	e000      	b.n	80036da <pvPortMalloc+0x1c6>
 80036d8:	e7ff      	b.n	80036da <pvPortMalloc+0x1c6>
 80036da:	e000      	b.n	80036de <pvPortMalloc+0x1ca>
 80036dc:	e7ff      	b.n	80036de <pvPortMalloc+0x1ca>
 80036de:	f7ff f9d1 	bl	8002a84 <xTaskResumeAll>
 80036e2:	f89d e010 	ldrb.w	lr, [sp, #16]
 80036e6:	ea4f 7e4e 	mov.w	lr, lr, lsl #29
 80036ea:	f1be 0f00 	cmp.w	lr, #0
 80036ee:	9001      	str	r0, [sp, #4]
 80036f0:	d00b      	beq.n	800370a <pvPortMalloc+0x1f6>
 80036f2:	e7ff      	b.n	80036f4 <pvPortMalloc+0x1e0>
 80036f4:	f04f 0050 	mov.w	r0, #80	; 0x50
 80036f8:	f380 8811 	msr	BASEPRI, r0
 80036fc:	f3bf 8f6f 	isb	sy
 8003700:	f3bf 8f4f 	dsb	sy
 8003704:	900b      	str	r0, [sp, #44]	; 0x2c
 8003706:	e7ff      	b.n	8003708 <pvPortMalloc+0x1f4>
 8003708:	e7fe      	b.n	8003708 <pvPortMalloc+0x1f4>
 800370a:	9804      	ldr	r0, [sp, #16]
 800370c:	b00c      	add	sp, #48	; 0x30
 800370e:	bd80      	pop	{r7, pc}

08003710 <prvHeapInit>:
 8003710:	b084      	sub	sp, #16
 8003712:	f44f 5070 	mov.w	r0, #15360	; 0x3c00
 8003716:	9000      	str	r0, [sp, #0]
 8003718:	f640 3030 	movw	r0, #2864	; 0xb30
 800371c:	f2c2 0000 	movt	r0, #8192	; 0x2000
 8003720:	9001      	str	r0, [sp, #4]
 8003722:	f89d 0004 	ldrb.w	r0, [sp, #4]
 8003726:	0740      	lsls	r0, r0, #29
 8003728:	2800      	cmp	r0, #0
 800372a:	d011      	beq.n	8003750 <prvHeapInit+0x40>
 800372c:	e7ff      	b.n	800372e <prvHeapInit+0x1e>
 800372e:	9801      	ldr	r0, [sp, #4]
 8003730:	3007      	adds	r0, #7
 8003732:	9001      	str	r0, [sp, #4]
 8003734:	9801      	ldr	r0, [sp, #4]
 8003736:	f020 0007 	bic.w	r0, r0, #7
 800373a:	9001      	str	r0, [sp, #4]
 800373c:	9801      	ldr	r0, [sp, #4]
 800373e:	f640 3130 	movw	r1, #2864	; 0xb30
 8003742:	f2c2 0100 	movt	r1, #8192	; 0x2000
 8003746:	1a40      	subs	r0, r0, r1
 8003748:	9900      	ldr	r1, [sp, #0]
 800374a:	1a08      	subs	r0, r1, r0
 800374c:	9000      	str	r0, [sp, #0]
 800374e:	e7ff      	b.n	8003750 <prvHeapInit+0x40>
 8003750:	9801      	ldr	r0, [sp, #4]
 8003752:	9002      	str	r0, [sp, #8]
 8003754:	9802      	ldr	r0, [sp, #8]
 8003756:	f640 3124 	movw	r1, #2852	; 0xb24
 800375a:	f2c2 0100 	movt	r1, #8192	; 0x2000
 800375e:	6008      	str	r0, [r1, #0]
 8003760:	2000      	movs	r0, #0
 8003762:	6048      	str	r0, [r1, #4]
 8003764:	9902      	ldr	r1, [sp, #8]
 8003766:	9a00      	ldr	r2, [sp, #0]
 8003768:	4411      	add	r1, r2
 800376a:	9101      	str	r1, [sp, #4]
 800376c:	9901      	ldr	r1, [sp, #4]
 800376e:	3908      	subs	r1, #8
 8003770:	9101      	str	r1, [sp, #4]
 8003772:	9901      	ldr	r1, [sp, #4]
 8003774:	f021 0107 	bic.w	r1, r1, #7
 8003778:	9101      	str	r1, [sp, #4]
 800377a:	9901      	ldr	r1, [sp, #4]
 800377c:	f640 3218 	movw	r2, #2840	; 0xb18
 8003780:	f2c2 0200 	movt	r2, #8192	; 0x2000
 8003784:	6011      	str	r1, [r2, #0]
 8003786:	6811      	ldr	r1, [r2, #0]
 8003788:	6048      	str	r0, [r1, #4]
 800378a:	6811      	ldr	r1, [r2, #0]
 800378c:	6008      	str	r0, [r1, #0]
 800378e:	9802      	ldr	r0, [sp, #8]
 8003790:	9003      	str	r0, [sp, #12]
 8003792:	9801      	ldr	r0, [sp, #4]
 8003794:	9903      	ldr	r1, [sp, #12]
 8003796:	1a40      	subs	r0, r0, r1
 8003798:	6048      	str	r0, [r1, #4]
 800379a:	6810      	ldr	r0, [r2, #0]
 800379c:	9903      	ldr	r1, [sp, #12]
 800379e:	6008      	str	r0, [r1, #0]
 80037a0:	9803      	ldr	r0, [sp, #12]
 80037a2:	6840      	ldr	r0, [r0, #4]
 80037a4:	f640 312c 	movw	r1, #2860	; 0xb2c
 80037a8:	f2c2 0100 	movt	r1, #8192	; 0x2000
 80037ac:	6008      	str	r0, [r1, #0]
 80037ae:	9803      	ldr	r0, [sp, #12]
 80037b0:	6840      	ldr	r0, [r0, #4]
 80037b2:	f640 3120 	movw	r1, #2848	; 0xb20
 80037b6:	f2c2 0100 	movt	r1, #8192	; 0x2000
 80037ba:	6008      	str	r0, [r1, #0]
 80037bc:	f640 301c 	movw	r0, #2844	; 0xb1c
 80037c0:	f2c2 0000 	movt	r0, #8192	; 0x2000
 80037c4:	f04f 4100 	mov.w	r1, #2147483648	; 0x80000000
 80037c8:	6001      	str	r1, [r0, #0]
 80037ca:	b004      	add	sp, #16
 80037cc:	4770      	bx	lr

080037ce <prvInsertBlockIntoFreeList>:
 80037ce:	b084      	sub	sp, #16
 80037d0:	4601      	mov	r1, r0
 80037d2:	9003      	str	r0, [sp, #12]
 80037d4:	f640 3024 	movw	r0, #2852	; 0xb24
 80037d8:	f2c2 0000 	movt	r0, #8192	; 0x2000
 80037dc:	9002      	str	r0, [sp, #8]
 80037de:	9100      	str	r1, [sp, #0]
 80037e0:	e7ff      	b.n	80037e2 <prvInsertBlockIntoFreeList+0x14>
 80037e2:	9802      	ldr	r0, [sp, #8]
 80037e4:	6800      	ldr	r0, [r0, #0]
 80037e6:	9903      	ldr	r1, [sp, #12]
 80037e8:	4288      	cmp	r0, r1
 80037ea:	d205      	bcs.n	80037f8 <prvInsertBlockIntoFreeList+0x2a>
 80037ec:	e7ff      	b.n	80037ee <prvInsertBlockIntoFreeList+0x20>
 80037ee:	e7ff      	b.n	80037f0 <prvInsertBlockIntoFreeList+0x22>
 80037f0:	9802      	ldr	r0, [sp, #8]
 80037f2:	6800      	ldr	r0, [r0, #0]
 80037f4:	9002      	str	r0, [sp, #8]
 80037f6:	e7f4      	b.n	80037e2 <prvInsertBlockIntoFreeList+0x14>
 80037f8:	9802      	ldr	r0, [sp, #8]
 80037fa:	9001      	str	r0, [sp, #4]
 80037fc:	9801      	ldr	r0, [sp, #4]
 80037fe:	9902      	ldr	r1, [sp, #8]
 8003800:	6849      	ldr	r1, [r1, #4]
 8003802:	4408      	add	r0, r1
 8003804:	9903      	ldr	r1, [sp, #12]
 8003806:	4288      	cmp	r0, r1
 8003808:	d109      	bne.n	800381e <prvInsertBlockIntoFreeList+0x50>
 800380a:	e7ff      	b.n	800380c <prvInsertBlockIntoFreeList+0x3e>
 800380c:	9803      	ldr	r0, [sp, #12]
 800380e:	6840      	ldr	r0, [r0, #4]
 8003810:	9902      	ldr	r1, [sp, #8]
 8003812:	684a      	ldr	r2, [r1, #4]
 8003814:	4410      	add	r0, r2
 8003816:	6048      	str	r0, [r1, #4]
 8003818:	9802      	ldr	r0, [sp, #8]
 800381a:	9003      	str	r0, [sp, #12]
 800381c:	e000      	b.n	8003820 <prvInsertBlockIntoFreeList+0x52>
 800381e:	e7ff      	b.n	8003820 <prvInsertBlockIntoFreeList+0x52>
 8003820:	9803      	ldr	r0, [sp, #12]
 8003822:	9001      	str	r0, [sp, #4]
 8003824:	9801      	ldr	r0, [sp, #4]
 8003826:	9903      	ldr	r1, [sp, #12]
 8003828:	6849      	ldr	r1, [r1, #4]
 800382a:	4408      	add	r0, r1
 800382c:	9902      	ldr	r1, [sp, #8]
 800382e:	6809      	ldr	r1, [r1, #0]
 8003830:	4288      	cmp	r0, r1
 8003832:	d120      	bne.n	8003876 <prvInsertBlockIntoFreeList+0xa8>
 8003834:	e7ff      	b.n	8003836 <prvInsertBlockIntoFreeList+0x68>
 8003836:	9802      	ldr	r0, [sp, #8]
 8003838:	6800      	ldr	r0, [r0, #0]
 800383a:	f640 3118 	movw	r1, #2840	; 0xb18
 800383e:	f2c2 0100 	movt	r1, #8192	; 0x2000
 8003842:	6809      	ldr	r1, [r1, #0]
 8003844:	4288      	cmp	r0, r1
 8003846:	d00d      	beq.n	8003864 <prvInsertBlockIntoFreeList+0x96>
 8003848:	e7ff      	b.n	800384a <prvInsertBlockIntoFreeList+0x7c>
 800384a:	9802      	ldr	r0, [sp, #8]
 800384c:	6800      	ldr	r0, [r0, #0]
 800384e:	6840      	ldr	r0, [r0, #4]
 8003850:	9903      	ldr	r1, [sp, #12]
 8003852:	684a      	ldr	r2, [r1, #4]
 8003854:	4410      	add	r0, r2
 8003856:	6048      	str	r0, [r1, #4]
 8003858:	9802      	ldr	r0, [sp, #8]
 800385a:	6800      	ldr	r0, [r0, #0]
 800385c:	6800      	ldr	r0, [r0, #0]
 800385e:	9903      	ldr	r1, [sp, #12]
 8003860:	6008      	str	r0, [r1, #0]
 8003862:	e007      	b.n	8003874 <prvInsertBlockIntoFreeList+0xa6>
 8003864:	f640 3018 	movw	r0, #2840	; 0xb18
 8003868:	f2c2 0000 	movt	r0, #8192	; 0x2000
 800386c:	6800      	ldr	r0, [r0, #0]
 800386e:	9903      	ldr	r1, [sp, #12]
 8003870:	6008      	str	r0, [r1, #0]
 8003872:	e7ff      	b.n	8003874 <prvInsertBlockIntoFreeList+0xa6>
 8003874:	e004      	b.n	8003880 <prvInsertBlockIntoFreeList+0xb2>
 8003876:	9802      	ldr	r0, [sp, #8]
 8003878:	6800      	ldr	r0, [r0, #0]
 800387a:	9903      	ldr	r1, [sp, #12]
 800387c:	6008      	str	r0, [r1, #0]
 800387e:	e7ff      	b.n	8003880 <prvInsertBlockIntoFreeList+0xb2>
 8003880:	9802      	ldr	r0, [sp, #8]
 8003882:	9903      	ldr	r1, [sp, #12]
 8003884:	4288      	cmp	r0, r1
 8003886:	d004      	beq.n	8003892 <prvInsertBlockIntoFreeList+0xc4>
 8003888:	e7ff      	b.n	800388a <prvInsertBlockIntoFreeList+0xbc>
 800388a:	9803      	ldr	r0, [sp, #12]
 800388c:	9902      	ldr	r1, [sp, #8]
 800388e:	6008      	str	r0, [r1, #0]
 8003890:	e000      	b.n	8003894 <prvInsertBlockIntoFreeList+0xc6>
 8003892:	e7ff      	b.n	8003894 <prvInsertBlockIntoFreeList+0xc6>
 8003894:	b004      	add	sp, #16
 8003896:	4770      	bx	lr

08003898 <vPortFree>:
 8003898:	b580      	push	{r7, lr}
 800389a:	466f      	mov	r7, sp
 800389c:	b088      	sub	sp, #32
 800389e:	4601      	mov	r1, r0
 80038a0:	9005      	str	r0, [sp, #20]
 80038a2:	9805      	ldr	r0, [sp, #20]
 80038a4:	9004      	str	r0, [sp, #16]
 80038a6:	9805      	ldr	r0, [sp, #20]
 80038a8:	2800      	cmp	r0, #0
 80038aa:	9102      	str	r1, [sp, #8]
 80038ac:	d05d      	beq.n	800396a <vPortFree+0xd2>
 80038ae:	e7ff      	b.n	80038b0 <vPortFree+0x18>
 80038b0:	9804      	ldr	r0, [sp, #16]
 80038b2:	3808      	subs	r0, #8
 80038b4:	9004      	str	r0, [sp, #16]
 80038b6:	9804      	ldr	r0, [sp, #16]
 80038b8:	9003      	str	r0, [sp, #12]
 80038ba:	9803      	ldr	r0, [sp, #12]
 80038bc:	6840      	ldr	r0, [r0, #4]
 80038be:	f640 311c 	movw	r1, #2844	; 0xb1c
 80038c2:	f2c2 0100 	movt	r1, #8192	; 0x2000
 80038c6:	6809      	ldr	r1, [r1, #0]
 80038c8:	4008      	ands	r0, r1
 80038ca:	2800      	cmp	r0, #0
 80038cc:	bf18      	it	ne
 80038ce:	2001      	movne	r0, #1
 80038d0:	2800      	cmp	r0, #0
 80038d2:	d10b      	bne.n	80038ec <vPortFree+0x54>
 80038d4:	e7ff      	b.n	80038d6 <vPortFree+0x3e>
 80038d6:	f04f 0050 	mov.w	r0, #80	; 0x50
 80038da:	f380 8811 	msr	BASEPRI, r0
 80038de:	f3bf 8f6f 	isb	sy
 80038e2:	f3bf 8f4f 	dsb	sy
 80038e6:	9006      	str	r0, [sp, #24]
 80038e8:	e7ff      	b.n	80038ea <vPortFree+0x52>
 80038ea:	e7fe      	b.n	80038ea <vPortFree+0x52>
 80038ec:	9803      	ldr	r0, [sp, #12]
 80038ee:	6800      	ldr	r0, [r0, #0]
 80038f0:	2800      	cmp	r0, #0
 80038f2:	d00b      	beq.n	800390c <vPortFree+0x74>
 80038f4:	e7ff      	b.n	80038f6 <vPortFree+0x5e>
 80038f6:	f04f 0050 	mov.w	r0, #80	; 0x50
 80038fa:	f380 8811 	msr	BASEPRI, r0
 80038fe:	f3bf 8f6f 	isb	sy
 8003902:	f3bf 8f4f 	dsb	sy
 8003906:	9007      	str	r0, [sp, #28]
 8003908:	e7ff      	b.n	800390a <vPortFree+0x72>
 800390a:	e7fe      	b.n	800390a <vPortFree+0x72>
 800390c:	9803      	ldr	r0, [sp, #12]
 800390e:	6840      	ldr	r0, [r0, #4]
 8003910:	f640 311c 	movw	r1, #2844	; 0xb1c
 8003914:	f2c2 0100 	movt	r1, #8192	; 0x2000
 8003918:	6809      	ldr	r1, [r1, #0]
 800391a:	4208      	tst	r0, r1
 800391c:	d023      	beq.n	8003966 <vPortFree+0xce>
 800391e:	e7ff      	b.n	8003920 <vPortFree+0x88>
 8003920:	9803      	ldr	r0, [sp, #12]
 8003922:	6800      	ldr	r0, [r0, #0]
 8003924:	2800      	cmp	r0, #0
 8003926:	d11c      	bne.n	8003962 <vPortFree+0xca>
 8003928:	e7ff      	b.n	800392a <vPortFree+0x92>
 800392a:	f640 301c 	movw	r0, #2844	; 0xb1c
 800392e:	f2c2 0000 	movt	r0, #8192	; 0x2000
 8003932:	6800      	ldr	r0, [r0, #0]
 8003934:	9903      	ldr	r1, [sp, #12]
 8003936:	684a      	ldr	r2, [r1, #4]
 8003938:	ea22 0000 	bic.w	r0, r2, r0
 800393c:	6048      	str	r0, [r1, #4]
 800393e:	f7ff f899 	bl	8002a74 <vTaskSuspendAll>
 8003942:	9803      	ldr	r0, [sp, #12]
 8003944:	6840      	ldr	r0, [r0, #4]
 8003946:	f640 3120 	movw	r1, #2848	; 0xb20
 800394a:	f2c2 0100 	movt	r1, #8192	; 0x2000
 800394e:	680a      	ldr	r2, [r1, #0]
 8003950:	4410      	add	r0, r2
 8003952:	6008      	str	r0, [r1, #0]
 8003954:	9803      	ldr	r0, [sp, #12]
 8003956:	f7ff ff3a 	bl	80037ce <prvInsertBlockIntoFreeList>
 800395a:	f7ff f893 	bl	8002a84 <xTaskResumeAll>
 800395e:	9001      	str	r0, [sp, #4]
 8003960:	e000      	b.n	8003964 <vPortFree+0xcc>
 8003962:	e7ff      	b.n	8003964 <vPortFree+0xcc>
 8003964:	e000      	b.n	8003968 <vPortFree+0xd0>
 8003966:	e7ff      	b.n	8003968 <vPortFree+0xd0>
 8003968:	e7ff      	b.n	800396a <vPortFree+0xd2>
 800396a:	b008      	add	sp, #32
 800396c:	bd80      	pop	{r7, pc}

0800396e <BSP_COM_Init>:
 800396e:	b580      	push	{r7, lr}
 8003970:	466f      	mov	r7, sp
 8003972:	b092      	sub	sp, #72	; 0x48
 8003974:	460a      	mov	r2, r1
 8003976:	4603      	mov	r3, r0
 8003978:	9011      	str	r0, [sp, #68]	; 0x44
 800397a:	9110      	str	r1, [sp, #64]	; 0x40
 800397c:	9207      	str	r2, [sp, #28]
 800397e:	9306      	str	r3, [sp, #24]
 8003980:	e7ff      	b.n	8003982 <BSP_COM_Init+0x14>
 8003982:	9811      	ldr	r0, [sp, #68]	; 0x44
 8003984:	2800      	cmp	r0, #0
 8003986:	d111      	bne.n	80039ac <BSP_COM_Init+0x3e>
 8003988:	e7ff      	b.n	800398a <BSP_COM_Init+0x1c>
 800398a:	e7ff      	b.n	800398c <BSP_COM_Init+0x1e>
 800398c:	f241 004c 	movw	r0, #4172	; 0x104c
 8003990:	f2c4 0002 	movt	r0, #16386	; 0x4002
 8003994:	6801      	ldr	r1, [r0, #0]
 8003996:	f041 0102 	orr.w	r1, r1, #2
 800399a:	6001      	str	r1, [r0, #0]
 800399c:	6800      	ldr	r0, [r0, #0]
 800399e:	f000 0002 	and.w	r0, r0, #2
 80039a2:	900a      	str	r0, [sp, #40]	; 0x28
 80039a4:	980a      	ldr	r0, [sp, #40]	; 0x28
 80039a6:	9005      	str	r0, [sp, #20]
 80039a8:	e7ff      	b.n	80039aa <BSP_COM_Init+0x3c>
 80039aa:	e7ff      	b.n	80039ac <BSP_COM_Init+0x3e>
 80039ac:	e7ff      	b.n	80039ae <BSP_COM_Init+0x40>
 80039ae:	e7ff      	b.n	80039b0 <BSP_COM_Init+0x42>
 80039b0:	9811      	ldr	r0, [sp, #68]	; 0x44
 80039b2:	2800      	cmp	r0, #0
 80039b4:	d111      	bne.n	80039da <BSP_COM_Init+0x6c>
 80039b6:	e7ff      	b.n	80039b8 <BSP_COM_Init+0x4a>
 80039b8:	e7ff      	b.n	80039ba <BSP_COM_Init+0x4c>
 80039ba:	f241 004c 	movw	r0, #4172	; 0x104c
 80039be:	f2c4 0002 	movt	r0, #16386	; 0x4002
 80039c2:	6801      	ldr	r1, [r0, #0]
 80039c4:	f041 0102 	orr.w	r1, r1, #2
 80039c8:	6001      	str	r1, [r0, #0]
 80039ca:	6800      	ldr	r0, [r0, #0]
 80039cc:	f000 0002 	and.w	r0, r0, #2
 80039d0:	9009      	str	r0, [sp, #36]	; 0x24
 80039d2:	9809      	ldr	r0, [sp, #36]	; 0x24
 80039d4:	9004      	str	r0, [sp, #16]
 80039d6:	e7ff      	b.n	80039d8 <BSP_COM_Init+0x6a>
 80039d8:	e7ff      	b.n	80039da <BSP_COM_Init+0x6c>
 80039da:	e7ff      	b.n	80039dc <BSP_COM_Init+0x6e>
 80039dc:	e7ff      	b.n	80039de <BSP_COM_Init+0x70>
 80039de:	9811      	ldr	r0, [sp, #68]	; 0x44
 80039e0:	2800      	cmp	r0, #0
 80039e2:	d111      	bne.n	8003a08 <BSP_COM_Init+0x9a>
 80039e4:	e7ff      	b.n	80039e6 <BSP_COM_Init+0x78>
 80039e6:	e7ff      	b.n	80039e8 <BSP_COM_Init+0x7a>
 80039e8:	f241 0060 	movw	r0, #4192	; 0x1060
 80039ec:	f2c4 0002 	movt	r0, #16386	; 0x4002
 80039f0:	6801      	ldr	r1, [r0, #0]
 80039f2:	f441 4180 	orr.w	r1, r1, #16384	; 0x4000
 80039f6:	6001      	str	r1, [r0, #0]
 80039f8:	6800      	ldr	r0, [r0, #0]
 80039fa:	f400 4080 	and.w	r0, r0, #16384	; 0x4000
 80039fe:	9008      	str	r0, [sp, #32]
 8003a00:	9808      	ldr	r0, [sp, #32]
 8003a02:	9003      	str	r0, [sp, #12]
 8003a04:	e7ff      	b.n	8003a06 <BSP_COM_Init+0x98>
 8003a06:	e7ff      	b.n	8003a08 <BSP_COM_Init+0x9a>
 8003a08:	e7ff      	b.n	8003a0a <BSP_COM_Init+0x9c>
 8003a0a:	9811      	ldr	r0, [sp, #68]	; 0x44
 8003a0c:	f648 2188 	movw	r1, #35464	; 0x8a88
 8003a10:	f6c0 0100 	movt	r1, #2048	; 0x800
 8003a14:	f831 0010 	ldrh.w	r0, [r1, r0, lsl #1]
 8003a18:	900b      	str	r0, [sp, #44]	; 0x2c
 8003a1a:	2002      	movs	r0, #2
 8003a1c:	900c      	str	r0, [sp, #48]	; 0x30
 8003a1e:	900e      	str	r0, [sp, #56]	; 0x38
 8003a20:	2100      	movs	r1, #0
 8003a22:	910d      	str	r1, [sp, #52]	; 0x34
 8003a24:	9911      	ldr	r1, [sp, #68]	; 0x44
 8003a26:	f648 228c 	movw	r2, #35468	; 0x8a8c
 8003a2a:	f6c0 0200 	movt	r2, #2048	; 0x800
 8003a2e:	f832 1011 	ldrh.w	r1, [r2, r1, lsl #1]
 8003a32:	910f      	str	r1, [sp, #60]	; 0x3c
 8003a34:	9911      	ldr	r1, [sp, #68]	; 0x44
 8003a36:	f240 0210 	movw	r2, #16
 8003a3a:	f2c2 0200 	movt	r2, #8192	; 0x2000
 8003a3e:	f852 1021 	ldr.w	r1, [r2, r1, lsl #2]
 8003a42:	aa0b      	add	r2, sp, #44	; 0x2c
 8003a44:	9002      	str	r0, [sp, #8]
 8003a46:	4608      	mov	r0, r1
 8003a48:	4611      	mov	r1, r2
 8003a4a:	9201      	str	r2, [sp, #4]
 8003a4c:	f7fd fbc0 	bl	80011d0 <HAL_GPIO_Init>
 8003a50:	9811      	ldr	r0, [sp, #68]	; 0x44
 8003a52:	f648 218a 	movw	r1, #35466	; 0x8a8a
 8003a56:	f6c0 0100 	movt	r1, #2048	; 0x800
 8003a5a:	f831 0010 	ldrh.w	r0, [r1, r0, lsl #1]
 8003a5e:	900b      	str	r0, [sp, #44]	; 0x2c
 8003a60:	9802      	ldr	r0, [sp, #8]
 8003a62:	900c      	str	r0, [sp, #48]	; 0x30
 8003a64:	9911      	ldr	r1, [sp, #68]	; 0x44
 8003a66:	f648 228e 	movw	r2, #35470	; 0x8a8e
 8003a6a:	f6c0 0200 	movt	r2, #2048	; 0x800
 8003a6e:	f832 1011 	ldrh.w	r1, [r2, r1, lsl #1]
 8003a72:	910f      	str	r1, [sp, #60]	; 0x3c
 8003a74:	9911      	ldr	r1, [sp, #68]	; 0x44
 8003a76:	f240 0214 	movw	r2, #20
 8003a7a:	f2c2 0200 	movt	r2, #8192	; 0x2000
 8003a7e:	f852 0021 	ldr.w	r0, [r2, r1, lsl #2]
 8003a82:	9901      	ldr	r1, [sp, #4]
 8003a84:	f7fd fba4 	bl	80011d0 <HAL_GPIO_Init>
 8003a88:	9811      	ldr	r0, [sp, #68]	; 0x44
 8003a8a:	f240 010c 	movw	r1, #12
 8003a8e:	f2c2 0100 	movt	r1, #8192	; 0x2000
 8003a92:	f851 0020 	ldr.w	r0, [r1, r0, lsl #2]
 8003a96:	9910      	ldr	r1, [sp, #64]	; 0x40
 8003a98:	6008      	str	r0, [r1, #0]
 8003a9a:	9810      	ldr	r0, [sp, #64]	; 0x40
 8003a9c:	f7fe f835 	bl	8001b0a <HAL_UART_Init>
 8003aa0:	9000      	str	r0, [sp, #0]
 8003aa2:	b012      	add	sp, #72	; 0x48
 8003aa4:	bd80      	pop	{r7, pc}

08003aa6 <__io_putchar>:
 8003aa6:	b580      	push	{r7, lr}
 8003aa8:	466f      	mov	r7, sp
 8003aaa:	b084      	sub	sp, #16
 8003aac:	4601      	mov	r1, r0
 8003aae:	9003      	str	r0, [sp, #12]
 8003ab0:	f244 7030 	movw	r0, #18224	; 0x4730
 8003ab4:	f2c2 0000 	movt	r0, #8192	; 0x2000
 8003ab8:	aa03      	add	r2, sp, #12
 8003aba:	2301      	movs	r3, #1
 8003abc:	f64f 7cff 	movw	ip, #65535	; 0xffff
 8003ac0:	9102      	str	r1, [sp, #8]
 8003ac2:	4611      	mov	r1, r2
 8003ac4:	461a      	mov	r2, r3
 8003ac6:	4663      	mov	r3, ip
 8003ac8:	f7fe fc97 	bl	80023fa <HAL_UART_Transmit>
 8003acc:	9903      	ldr	r1, [sp, #12]
 8003ace:	9001      	str	r0, [sp, #4]
 8003ad0:	4608      	mov	r0, r1
 8003ad2:	b004      	add	sp, #16
 8003ad4:	bd80      	pop	{r7, pc}

08003ad6 <main>:
 8003ad6:	b580      	push	{r7, lr}
 8003ad8:	466f      	mov	r7, sp
 8003ada:	b084      	sub	sp, #16
 8003adc:	2000      	movs	r0, #0
 8003ade:	9003      	str	r0, [sp, #12]
 8003ae0:	9002      	str	r0, [sp, #8]
 8003ae2:	f000 f815 	bl	8003b10 <Console_UART_Init>
 8003ae6:	f648 20dd 	movw	r0, #35549	; 0x8add
 8003aea:	f6c0 0000 	movt	r0, #2048	; 0x800
 8003aee:	f000 f9c3 	bl	8003e78 <printf>
 8003af2:	9001      	str	r0, [sp, #4]
 8003af4:	f7ff f8fa 	bl	8002cec <vTaskStartScheduler>
 8003af8:	f648 20e4 	movw	r0, #35556	; 0x8ae4
 8003afc:	f6c0 0000 	movt	r0, #2048	; 0x800
 8003b00:	f000 f9ba 	bl	8003e78 <printf>
 8003b04:	f8dd e008 	ldr.w	lr, [sp, #8]
 8003b08:	9000      	str	r0, [sp, #0]
 8003b0a:	4670      	mov	r0, lr
 8003b0c:	b004      	add	sp, #16
 8003b0e:	bd80      	pop	{r7, pc}

08003b10 <Console_UART_Init>:
 8003b10:	b580      	push	{r7, lr}
 8003b12:	466f      	mov	r7, sp
 8003b14:	b082      	sub	sp, #8
 8003b16:	f244 7030 	movw	r0, #18224	; 0x4730
 8003b1a:	f2c2 0000 	movt	r0, #8192	; 0x2000
 8003b1e:	f643 0100 	movw	r1, #14336	; 0x3800
 8003b22:	f2c4 0101 	movt	r1, #16385	; 0x4001
 8003b26:	6001      	str	r1, [r0, #0]
 8003b28:	f44f 31e1 	mov.w	r1, #115200	; 0x1c200
 8003b2c:	6041      	str	r1, [r0, #4]
 8003b2e:	2100      	movs	r1, #0
 8003b30:	6081      	str	r1, [r0, #8]
 8003b32:	60c1      	str	r1, [r0, #12]
 8003b34:	6101      	str	r1, [r0, #16]
 8003b36:	220c      	movs	r2, #12
 8003b38:	6142      	str	r2, [r0, #20]
 8003b3a:	6181      	str	r1, [r0, #24]
 8003b3c:	61c1      	str	r1, [r0, #28]
 8003b3e:	6201      	str	r1, [r0, #32]
 8003b40:	6241      	str	r1, [r0, #36]	; 0x24
 8003b42:	9001      	str	r0, [sp, #4]
 8003b44:	4608      	mov	r0, r1
 8003b46:	9901      	ldr	r1, [sp, #4]
 8003b48:	f7ff ff11 	bl	800396e <BSP_COM_Init>
 8003b4c:	b002      	add	sp, #8
 8003b4e:	bd80      	pop	{r7, pc}

08003b50 <SysTick_Handler>:
 8003b50:	b580      	push	{r7, lr}
 8003b52:	466f      	mov	r7, sp
 8003b54:	f7fd fb28 	bl	80011a8 <HAL_IncTick>
 8003b58:	f7fd fb34 	bl	80011c4 <HAL_SYSTICK_IRQHandler>
 8003b5c:	f7fe fd4c 	bl	80025f8 <osSystickHandler>
 8003b60:	bd80      	pop	{r7, pc}

08003b62 <_read>:
 8003b62:	b580      	push	{r7, lr}
 8003b64:	466f      	mov	r7, sp
 8003b66:	b088      	sub	sp, #32
 8003b68:	4613      	mov	r3, r2
 8003b6a:	468c      	mov	ip, r1
 8003b6c:	4686      	mov	lr, r0
 8003b6e:	9007      	str	r0, [sp, #28]
 8003b70:	9106      	str	r1, [sp, #24]
 8003b72:	9205      	str	r2, [sp, #20]
 8003b74:	2000      	movs	r0, #0
 8003b76:	9004      	str	r0, [sp, #16]
 8003b78:	9303      	str	r3, [sp, #12]
 8003b7a:	f8cd c008 	str.w	ip, [sp, #8]
 8003b7e:	f8cd e004 	str.w	lr, [sp, #4]
 8003b82:	e7ff      	b.n	8003b84 <_read+0x22>
 8003b84:	9804      	ldr	r0, [sp, #16]
 8003b86:	9905      	ldr	r1, [sp, #20]
 8003b88:	4288      	cmp	r0, r1
 8003b8a:	da0e      	bge.n	8003baa <_read+0x48>
 8003b8c:	e7ff      	b.n	8003b8e <_read+0x2c>
 8003b8e:	f3af 8000 	nop.w
 8003b92:	f8dd e018 	ldr.w	lr, [sp, #24]
 8003b96:	f10e 0101 	add.w	r1, lr, #1
 8003b9a:	9106      	str	r1, [sp, #24]
 8003b9c:	f88e 0000 	strb.w	r0, [lr]
 8003ba0:	e7ff      	b.n	8003ba2 <_read+0x40>
 8003ba2:	9804      	ldr	r0, [sp, #16]
 8003ba4:	3001      	adds	r0, #1
 8003ba6:	9004      	str	r0, [sp, #16]
 8003ba8:	e7ec      	b.n	8003b84 <_read+0x22>
 8003baa:	9805      	ldr	r0, [sp, #20]
 8003bac:	b008      	add	sp, #32
 8003bae:	bd80      	pop	{r7, pc}

08003bb0 <_write>:
 8003bb0:	b580      	push	{r7, lr}
 8003bb2:	466f      	mov	r7, sp
 8003bb4:	b088      	sub	sp, #32
 8003bb6:	4613      	mov	r3, r2
 8003bb8:	468c      	mov	ip, r1
 8003bba:	4686      	mov	lr, r0
 8003bbc:	9007      	str	r0, [sp, #28]
 8003bbe:	9106      	str	r1, [sp, #24]
 8003bc0:	9205      	str	r2, [sp, #20]
 8003bc2:	2000      	movs	r0, #0
 8003bc4:	9004      	str	r0, [sp, #16]
 8003bc6:	9303      	str	r3, [sp, #12]
 8003bc8:	f8cd c008 	str.w	ip, [sp, #8]
 8003bcc:	f8cd e004 	str.w	lr, [sp, #4]
 8003bd0:	e7ff      	b.n	8003bd2 <_write+0x22>
 8003bd2:	9804      	ldr	r0, [sp, #16]
 8003bd4:	9905      	ldr	r1, [sp, #20]
 8003bd6:	4288      	cmp	r0, r1
 8003bd8:	da0c      	bge.n	8003bf4 <_write+0x44>
 8003bda:	e7ff      	b.n	8003bdc <_write+0x2c>
 8003bdc:	9806      	ldr	r0, [sp, #24]
 8003bde:	1c41      	adds	r1, r0, #1
 8003be0:	9106      	str	r1, [sp, #24]
 8003be2:	7800      	ldrb	r0, [r0, #0]
 8003be4:	f7ff ff5f 	bl	8003aa6 <__io_putchar>
 8003be8:	9000      	str	r0, [sp, #0]
 8003bea:	e7ff      	b.n	8003bec <_write+0x3c>
 8003bec:	9804      	ldr	r0, [sp, #16]
 8003bee:	3001      	adds	r0, #1
 8003bf0:	9004      	str	r0, [sp, #16]
 8003bf2:	e7ee      	b.n	8003bd2 <_write+0x22>
 8003bf4:	9805      	ldr	r0, [sp, #20]
 8003bf6:	b008      	add	sp, #32
 8003bf8:	bd80      	pop	{r7, pc}

08003bfa <_sbrk>:
 8003bfa:	b580      	push	{r7, lr}
 8003bfc:	466f      	mov	r7, sp
 8003bfe:	b084      	sub	sp, #16
 8003c00:	4601      	mov	r1, r0
 8003c02:	9002      	str	r0, [sp, #8]
 8003c04:	f244 70b4 	movw	r0, #18356	; 0x47b4
 8003c08:	f2c2 0000 	movt	r0, #8192	; 0x2000
 8003c0c:	6800      	ldr	r0, [r0, #0]
 8003c0e:	2800      	cmp	r0, #0
 8003c10:	9100      	str	r1, [sp, #0]
 8003c12:	d10a      	bne.n	8003c2a <_sbrk+0x30>
 8003c14:	e7ff      	b.n	8003c16 <_sbrk+0x1c>
 8003c16:	f244 70b4 	movw	r0, #18356	; 0x47b4
 8003c1a:	f2c2 0000 	movt	r0, #8192	; 0x2000
 8003c1e:	f644 0160 	movw	r1, #18528	; 0x4860
 8003c22:	f2c2 0100 	movt	r1, #8192	; 0x2000
 8003c26:	6001      	str	r1, [r0, #0]
 8003c28:	e7ff      	b.n	8003c2a <_sbrk+0x30>
 8003c2a:	f244 70b4 	movw	r0, #18356	; 0x47b4
 8003c2e:	f2c2 0000 	movt	r0, #8192	; 0x2000
 8003c32:	6801      	ldr	r1, [r0, #0]
 8003c34:	9101      	str	r1, [sp, #4]
 8003c36:	6800      	ldr	r0, [r0, #0]
 8003c38:	9902      	ldr	r1, [sp, #8]
 8003c3a:	4408      	add	r0, r1
 8003c3c:	4669      	mov	r1, sp
 8003c3e:	4288      	cmp	r0, r1
 8003c40:	d90a      	bls.n	8003c58 <_sbrk+0x5e>
 8003c42:	e7ff      	b.n	8003c44 <_sbrk+0x4a>
 8003c44:	f000 f8a4 	bl	8003d90 <__errno>
 8003c48:	f04f 0e0c 	mov.w	lr, #12
 8003c4c:	f8c0 e000 	str.w	lr, [r0]
 8003c50:	f04f 30ff 	mov.w	r0, #4294967295	; 0xffffffff
 8003c54:	9003      	str	r0, [sp, #12]
 8003c56:	e00a      	b.n	8003c6e <_sbrk+0x74>
 8003c58:	9802      	ldr	r0, [sp, #8]
 8003c5a:	f244 71b4 	movw	r1, #18356	; 0x47b4
 8003c5e:	f2c2 0100 	movt	r1, #8192	; 0x2000
 8003c62:	680a      	ldr	r2, [r1, #0]
 8003c64:	4410      	add	r0, r2
 8003c66:	6008      	str	r0, [r1, #0]
 8003c68:	9801      	ldr	r0, [sp, #4]
 8003c6a:	9003      	str	r0, [sp, #12]
 8003c6c:	e7ff      	b.n	8003c6e <_sbrk+0x74>
 8003c6e:	9803      	ldr	r0, [sp, #12]
 8003c70:	b004      	add	sp, #16
 8003c72:	bd80      	pop	{r7, pc}

08003c74 <_close>:
 8003c74:	b082      	sub	sp, #8
 8003c76:	4601      	mov	r1, r0
 8003c78:	9001      	str	r0, [sp, #4]
 8003c7a:	f04f 30ff 	mov.w	r0, #4294967295	; 0xffffffff
 8003c7e:	9100      	str	r1, [sp, #0]
 8003c80:	b002      	add	sp, #8
 8003c82:	4770      	bx	lr

08003c84 <_fstat>:
 8003c84:	b084      	sub	sp, #16
 8003c86:	460a      	mov	r2, r1
 8003c88:	4603      	mov	r3, r0
 8003c8a:	9003      	str	r0, [sp, #12]
 8003c8c:	9102      	str	r1, [sp, #8]
 8003c8e:	9802      	ldr	r0, [sp, #8]
 8003c90:	f44f 5100 	mov.w	r1, #8192	; 0x2000
 8003c94:	6041      	str	r1, [r0, #4]
 8003c96:	2000      	movs	r0, #0
 8003c98:	9201      	str	r2, [sp, #4]
 8003c9a:	9300      	str	r3, [sp, #0]
 8003c9c:	b004      	add	sp, #16
 8003c9e:	4770      	bx	lr

08003ca0 <_isatty>:
 8003ca0:	b082      	sub	sp, #8
 8003ca2:	4601      	mov	r1, r0
 8003ca4:	9001      	str	r0, [sp, #4]
 8003ca6:	2001      	movs	r0, #1
 8003ca8:	9100      	str	r1, [sp, #0]
 8003caa:	b002      	add	sp, #8
 8003cac:	4770      	bx	lr

08003cae <_lseek>:
 8003cae:	b580      	push	{r7, lr}
 8003cb0:	466f      	mov	r7, sp
 8003cb2:	b086      	sub	sp, #24
 8003cb4:	4613      	mov	r3, r2
 8003cb6:	468c      	mov	ip, r1
 8003cb8:	4686      	mov	lr, r0
 8003cba:	9005      	str	r0, [sp, #20]
 8003cbc:	9104      	str	r1, [sp, #16]
 8003cbe:	9203      	str	r2, [sp, #12]
 8003cc0:	2000      	movs	r0, #0
 8003cc2:	9302      	str	r3, [sp, #8]
 8003cc4:	f8cd c004 	str.w	ip, [sp, #4]
 8003cc8:	f8cd e000 	str.w	lr, [sp]
 8003ccc:	b006      	add	sp, #24
 8003cce:	bd80      	pop	{r7, pc}

08003cd0 <SystemInit>:
 8003cd0:	f64e 5088 	movw	r0, #60808	; 0xed88
 8003cd4:	f2ce 0000 	movt	r0, #57344	; 0xe000
 8003cd8:	6801      	ldr	r1, [r0, #0]
 8003cda:	f441 0170 	orr.w	r1, r1, #15728640	; 0xf00000
 8003cde:	6001      	str	r1, [r0, #0]
 8003ce0:	f241 0000 	movw	r0, #4096	; 0x1000
 8003ce4:	f2c4 0002 	movt	r0, #16386	; 0x4002
 8003ce8:	6801      	ldr	r1, [r0, #0]
 8003cea:	f041 0101 	orr.w	r1, r1, #1
 8003cee:	6001      	str	r1, [r0, #0]
 8003cf0:	f241 0108 	movw	r1, #4104	; 0x1008
 8003cf4:	f2c4 0102 	movt	r1, #16386	; 0x4002
 8003cf8:	2200      	movs	r2, #0
 8003cfa:	600a      	str	r2, [r1, #0]
 8003cfc:	6801      	ldr	r1, [r0, #0]
 8003cfe:	f64f 73ff 	movw	r3, #65535	; 0xffff
 8003d02:	f6ce 23f6 	movt	r3, #60150	; 0xeaf6
 8003d06:	4019      	ands	r1, r3
 8003d08:	6001      	str	r1, [r0, #0]
 8003d0a:	f241 010c 	movw	r1, #4108	; 0x100c
 8003d0e:	f2c4 0102 	movt	r1, #16386	; 0x4002
 8003d12:	f44f 5380 	mov.w	r3, #4096	; 0x1000
 8003d16:	600b      	str	r3, [r1, #0]
 8003d18:	6801      	ldr	r1, [r0, #0]
 8003d1a:	f421 2180 	bic.w	r1, r1, #262144	; 0x40000
 8003d1e:	6001      	str	r1, [r0, #0]
 8003d20:	f241 0018 	movw	r0, #4120	; 0x1018
 8003d24:	f2c4 0002 	movt	r0, #16386	; 0x4002
 8003d28:	6002      	str	r2, [r0, #0]
 8003d2a:	f64e 5008 	movw	r0, #60680	; 0xed08
 8003d2e:	f2ce 0000 	movt	r0, #57344	; 0xe000
 8003d32:	f04f 6100 	mov.w	r1, #134217728	; 0x8000000
 8003d36:	6001      	str	r1, [r0, #0]
 8003d38:	4770      	bx	lr
	...

08003d3c <Reset_Handler>:
 8003d3c:	f8df d034 	ldr.w	sp, [pc, #52]	; 8003d74 <LoopForever+0x2>
 8003d40:	2100      	movs	r1, #0
 8003d42:	e003      	b.n	8003d4c <LoopCopyDataInit>

08003d44 <CopyDataInit>:
 8003d44:	4b0c      	ldr	r3, [pc, #48]	; (8003d78 <LoopForever+0x6>)
 8003d46:	585b      	ldr	r3, [r3, r1]
 8003d48:	5043      	str	r3, [r0, r1]
 8003d4a:	3104      	adds	r1, #4

08003d4c <LoopCopyDataInit>:
 8003d4c:	480b      	ldr	r0, [pc, #44]	; (8003d7c <LoopForever+0xa>)
 8003d4e:	4b0c      	ldr	r3, [pc, #48]	; (8003d80 <LoopForever+0xe>)
