
nettle-cast128.elf:     file format elf32-littlearm


Disassembly of section .text:

080001c0 <__do_global_dtors_aux>:
 80001c0:	b510      	push	{r4, lr}
 80001c2:	4c05      	ldr	r4, [pc, #20]	; (80001d8 <__do_global_dtors_aux+0x18>)
 80001c4:	7823      	ldrb	r3, [r4, #0]
 80001c6:	b933      	cbnz	r3, 80001d6 <__do_global_dtors_aux+0x16>
 80001c8:	4b04      	ldr	r3, [pc, #16]	; (80001dc <__do_global_dtors_aux+0x1c>)
 80001ca:	b113      	cbz	r3, 80001d2 <__do_global_dtors_aux+0x12>
 80001cc:	4804      	ldr	r0, [pc, #16]	; (80001e0 <__do_global_dtors_aux+0x20>)
 80001ce:	f3af 8000 	nop.w
 80001d2:	2301      	movs	r3, #1
 80001d4:	7023      	strb	r3, [r4, #0]
 80001d6:	bd10      	pop	{r4, pc}
 80001d8:	200009c8 	.word	0x200009c8
 80001dc:	00000000 	.word	0x00000000
 80001e0:	0800858c 	.word	0x0800858c

080001e4 <frame_dummy>:
 80001e4:	b508      	push	{r3, lr}
 80001e6:	4b03      	ldr	r3, [pc, #12]	; (80001f4 <frame_dummy+0x10>)
 80001e8:	b11b      	cbz	r3, 80001f2 <frame_dummy+0xe>
 80001ea:	4903      	ldr	r1, [pc, #12]	; (80001f8 <frame_dummy+0x14>)
 80001ec:	4803      	ldr	r0, [pc, #12]	; (80001fc <frame_dummy+0x18>)
 80001ee:	f3af 8000 	nop.w
 80001f2:	bd08      	pop	{r3, pc}
 80001f4:	00000000 	.word	0x00000000
 80001f8:	200009cc 	.word	0x200009cc
 80001fc:	0800858c 	.word	0x0800858c

08000200 <__aeabi_uldivmod>:
 8000200:	b953      	cbnz	r3, 8000218 <__aeabi_uldivmod+0x18>
 8000202:	b94a      	cbnz	r2, 8000218 <__aeabi_uldivmod+0x18>
 8000204:	2900      	cmp	r1, #0
 8000206:	bf08      	it	eq
 8000208:	2800      	cmpeq	r0, #0
 800020a:	bf1c      	itt	ne
 800020c:	f04f 31ff 	movne.w	r1, #4294967295	; 0xffffffff
 8000210:	f04f 30ff 	movne.w	r0, #4294967295	; 0xffffffff
 8000214:	f000 b972 	b.w	80004fc <__aeabi_idiv0>
 8000218:	f1ad 0c08 	sub.w	ip, sp, #8
 800021c:	e96d ce04 	strd	ip, lr, [sp, #-16]!
 8000220:	f000 f806 	bl	8000230 <__udivmoddi4>
 8000224:	f8dd e004 	ldr.w	lr, [sp, #4]
 8000228:	e9dd 2302 	ldrd	r2, r3, [sp, #8]
 800022c:	b004      	add	sp, #16
 800022e:	4770      	bx	lr

08000230 <__udivmoddi4>:
 8000230:	e92d 47f0 	stmdb	sp!, {r4, r5, r6, r7, r8, r9, sl, lr}
 8000234:	9e08      	ldr	r6, [sp, #32]
 8000236:	4604      	mov	r4, r0
 8000238:	4688      	mov	r8, r1
 800023a:	2b00      	cmp	r3, #0
 800023c:	d14b      	bne.n	80002d6 <__udivmoddi4+0xa6>
 800023e:	428a      	cmp	r2, r1
 8000240:	4615      	mov	r5, r2
 8000242:	d967      	bls.n	8000314 <__udivmoddi4+0xe4>
 8000244:	fab2 f282 	clz	r2, r2
 8000248:	b14a      	cbz	r2, 800025e <__udivmoddi4+0x2e>
 800024a:	f1c2 0720 	rsb	r7, r2, #32
 800024e:	fa01 f302 	lsl.w	r3, r1, r2
 8000252:	fa20 f707 	lsr.w	r7, r0, r7
 8000256:	4095      	lsls	r5, r2
 8000258:	ea47 0803 	orr.w	r8, r7, r3
 800025c:	4094      	lsls	r4, r2
 800025e:	ea4f 4e15 	mov.w	lr, r5, lsr #16
 8000262:	0c23      	lsrs	r3, r4, #16
 8000264:	fbb8 f7fe 	udiv	r7, r8, lr
 8000268:	fa1f fc85 	uxth.w	ip, r5
 800026c:	fb0e 8817 	mls	r8, lr, r7, r8
 8000270:	ea43 4308 	orr.w	r3, r3, r8, lsl #16
 8000274:	fb07 f10c 	mul.w	r1, r7, ip
 8000278:	4299      	cmp	r1, r3
 800027a:	d909      	bls.n	8000290 <__udivmoddi4+0x60>
 800027c:	18eb      	adds	r3, r5, r3
 800027e:	f107 30ff 	add.w	r0, r7, #4294967295	; 0xffffffff
 8000282:	f080 811b 	bcs.w	80004bc <__udivmoddi4+0x28c>
 8000286:	4299      	cmp	r1, r3
 8000288:	f240 8118 	bls.w	80004bc <__udivmoddi4+0x28c>
 800028c:	3f02      	subs	r7, #2
 800028e:	442b      	add	r3, r5
 8000290:	1a5b      	subs	r3, r3, r1
 8000292:	b2a4      	uxth	r4, r4
 8000294:	fbb3 f0fe 	udiv	r0, r3, lr
 8000298:	fb0e 3310 	mls	r3, lr, r0, r3
 800029c:	ea44 4403 	orr.w	r4, r4, r3, lsl #16
 80002a0:	fb00 fc0c 	mul.w	ip, r0, ip
 80002a4:	45a4      	cmp	ip, r4
 80002a6:	d909      	bls.n	80002bc <__udivmoddi4+0x8c>
 80002a8:	192c      	adds	r4, r5, r4
 80002aa:	f100 33ff 	add.w	r3, r0, #4294967295	; 0xffffffff
 80002ae:	f080 8107 	bcs.w	80004c0 <__udivmoddi4+0x290>
 80002b2:	45a4      	cmp	ip, r4
 80002b4:	f240 8104 	bls.w	80004c0 <__udivmoddi4+0x290>
 80002b8:	3802      	subs	r0, #2
 80002ba:	442c      	add	r4, r5
 80002bc:	ea40 4007 	orr.w	r0, r0, r7, lsl #16
 80002c0:	eba4 040c 	sub.w	r4, r4, ip
 80002c4:	2700      	movs	r7, #0
 80002c6:	b11e      	cbz	r6, 80002d0 <__udivmoddi4+0xa0>
 80002c8:	40d4      	lsrs	r4, r2
 80002ca:	2300      	movs	r3, #0
 80002cc:	e9c6 4300 	strd	r4, r3, [r6]
 80002d0:	4639      	mov	r1, r7
 80002d2:	e8bd 87f0 	ldmia.w	sp!, {r4, r5, r6, r7, r8, r9, sl, pc}
 80002d6:	428b      	cmp	r3, r1
 80002d8:	d909      	bls.n	80002ee <__udivmoddi4+0xbe>
 80002da:	2e00      	cmp	r6, #0
 80002dc:	f000 80eb 	beq.w	80004b6 <__udivmoddi4+0x286>
 80002e0:	2700      	movs	r7, #0
 80002e2:	e9c6 0100 	strd	r0, r1, [r6]
 80002e6:	4638      	mov	r0, r7
 80002e8:	4639      	mov	r1, r7
 80002ea:	e8bd 87f0 	ldmia.w	sp!, {r4, r5, r6, r7, r8, r9, sl, pc}
 80002ee:	fab3 f783 	clz	r7, r3
 80002f2:	2f00      	cmp	r7, #0
 80002f4:	d147      	bne.n	8000386 <__udivmoddi4+0x156>
 80002f6:	428b      	cmp	r3, r1
 80002f8:	d302      	bcc.n	8000300 <__udivmoddi4+0xd0>
 80002fa:	4282      	cmp	r2, r0
 80002fc:	f200 80fa 	bhi.w	80004f4 <__udivmoddi4+0x2c4>
 8000300:	1a84      	subs	r4, r0, r2
 8000302:	eb61 0303 	sbc.w	r3, r1, r3
 8000306:	2001      	movs	r0, #1
 8000308:	4698      	mov	r8, r3
 800030a:	2e00      	cmp	r6, #0
 800030c:	d0e0      	beq.n	80002d0 <__udivmoddi4+0xa0>
 800030e:	e9c6 4800 	strd	r4, r8, [r6]
 8000312:	e7dd      	b.n	80002d0 <__udivmoddi4+0xa0>
 8000314:	b902      	cbnz	r2, 8000318 <__udivmoddi4+0xe8>
 8000316:	deff      	udf	#255	; 0xff
 8000318:	fab2 f282 	clz	r2, r2
 800031c:	2a00      	cmp	r2, #0
 800031e:	f040 808f 	bne.w	8000440 <__udivmoddi4+0x210>
 8000322:	1b49      	subs	r1, r1, r5
 8000324:	ea4f 4e15 	mov.w	lr, r5, lsr #16
 8000328:	fa1f f885 	uxth.w	r8, r5
 800032c:	2701      	movs	r7, #1
 800032e:	fbb1 fcfe 	udiv	ip, r1, lr
 8000332:	0c23      	lsrs	r3, r4, #16
 8000334:	fb0e 111c 	mls	r1, lr, ip, r1
 8000338:	ea43 4301 	orr.w	r3, r3, r1, lsl #16
 800033c:	fb08 f10c 	mul.w	r1, r8, ip
 8000340:	4299      	cmp	r1, r3
 8000342:	d907      	bls.n	8000354 <__udivmoddi4+0x124>
 8000344:	18eb      	adds	r3, r5, r3
 8000346:	f10c 30ff 	add.w	r0, ip, #4294967295	; 0xffffffff
 800034a:	d202      	bcs.n	8000352 <__udivmoddi4+0x122>
 800034c:	4299      	cmp	r1, r3
 800034e:	f200 80cd 	bhi.w	80004ec <__udivmoddi4+0x2bc>
 8000352:	4684      	mov	ip, r0
 8000354:	1a59      	subs	r1, r3, r1
 8000356:	b2a3      	uxth	r3, r4
 8000358:	fbb1 f0fe 	udiv	r0, r1, lr
 800035c:	fb0e 1410 	mls	r4, lr, r0, r1
 8000360:	ea43 4404 	orr.w	r4, r3, r4, lsl #16
 8000364:	fb08 f800 	mul.w	r8, r8, r0
 8000368:	45a0      	cmp	r8, r4
 800036a:	d907      	bls.n	800037c <__udivmoddi4+0x14c>
 800036c:	192c      	adds	r4, r5, r4
 800036e:	f100 33ff 	add.w	r3, r0, #4294967295	; 0xffffffff
 8000372:	d202      	bcs.n	800037a <__udivmoddi4+0x14a>
 8000374:	45a0      	cmp	r8, r4
 8000376:	f200 80b6 	bhi.w	80004e6 <__udivmoddi4+0x2b6>
 800037a:	4618      	mov	r0, r3
 800037c:	eba4 0408 	sub.w	r4, r4, r8
 8000380:	ea40 400c 	orr.w	r0, r0, ip, lsl #16
 8000384:	e79f      	b.n	80002c6 <__udivmoddi4+0x96>
 8000386:	f1c7 0c20 	rsb	ip, r7, #32
 800038a:	40bb      	lsls	r3, r7
 800038c:	fa22 fe0c 	lsr.w	lr, r2, ip
 8000390:	ea4e 0e03 	orr.w	lr, lr, r3
 8000394:	fa01 f407 	lsl.w	r4, r1, r7
 8000398:	fa20 f50c 	lsr.w	r5, r0, ip
 800039c:	fa21 f30c 	lsr.w	r3, r1, ip
 80003a0:	ea4f 481e 	mov.w	r8, lr, lsr #16
 80003a4:	4325      	orrs	r5, r4
 80003a6:	fbb3 f9f8 	udiv	r9, r3, r8
 80003aa:	0c2c      	lsrs	r4, r5, #16
 80003ac:	fb08 3319 	mls	r3, r8, r9, r3
 80003b0:	fa1f fa8e 	uxth.w	sl, lr
 80003b4:	ea44 4303 	orr.w	r3, r4, r3, lsl #16
 80003b8:	fb09 f40a 	mul.w	r4, r9, sl
 80003bc:	429c      	cmp	r4, r3
 80003be:	fa02 f207 	lsl.w	r2, r2, r7
 80003c2:	fa00 f107 	lsl.w	r1, r0, r7
 80003c6:	d90b      	bls.n	80003e0 <__udivmoddi4+0x1b0>
 80003c8:	eb1e 0303 	adds.w	r3, lr, r3
 80003cc:	f109 30ff 	add.w	r0, r9, #4294967295	; 0xffffffff
 80003d0:	f080 8087 	bcs.w	80004e2 <__udivmoddi4+0x2b2>
 80003d4:	429c      	cmp	r4, r3
 80003d6:	f240 8084 	bls.w	80004e2 <__udivmoddi4+0x2b2>
 80003da:	f1a9 0902 	sub.w	r9, r9, #2
 80003de:	4473      	add	r3, lr
 80003e0:	1b1b      	subs	r3, r3, r4
 80003e2:	b2ad      	uxth	r5, r5
 80003e4:	fbb3 f0f8 	udiv	r0, r3, r8
 80003e8:	fb08 3310 	mls	r3, r8, r0, r3
 80003ec:	ea45 4403 	orr.w	r4, r5, r3, lsl #16
 80003f0:	fb00 fa0a 	mul.w	sl, r0, sl
 80003f4:	45a2      	cmp	sl, r4
 80003f6:	d908      	bls.n	800040a <__udivmoddi4+0x1da>
 80003f8:	eb1e 0404 	adds.w	r4, lr, r4
 80003fc:	f100 33ff 	add.w	r3, r0, #4294967295	; 0xffffffff
 8000400:	d26b      	bcs.n	80004da <__udivmoddi4+0x2aa>
 8000402:	45a2      	cmp	sl, r4
 8000404:	d969      	bls.n	80004da <__udivmoddi4+0x2aa>
 8000406:	3802      	subs	r0, #2
 8000408:	4474      	add	r4, lr
 800040a:	ea40 4009 	orr.w	r0, r0, r9, lsl #16
 800040e:	fba0 8902 	umull	r8, r9, r0, r2
 8000412:	eba4 040a 	sub.w	r4, r4, sl
 8000416:	454c      	cmp	r4, r9
 8000418:	46c2      	mov	sl, r8
 800041a:	464b      	mov	r3, r9
 800041c:	d354      	bcc.n	80004c8 <__udivmoddi4+0x298>
 800041e:	d051      	beq.n	80004c4 <__udivmoddi4+0x294>
 8000420:	2e00      	cmp	r6, #0
 8000422:	d069      	beq.n	80004f8 <__udivmoddi4+0x2c8>
 8000424:	ebb1 050a 	subs.w	r5, r1, sl
 8000428:	eb64 0403 	sbc.w	r4, r4, r3
 800042c:	fa04 fc0c 	lsl.w	ip, r4, ip
 8000430:	40fd      	lsrs	r5, r7
 8000432:	40fc      	lsrs	r4, r7
 8000434:	ea4c 0505 	orr.w	r5, ip, r5
 8000438:	e9c6 5400 	strd	r5, r4, [r6]
 800043c:	2700      	movs	r7, #0
 800043e:	e747      	b.n	80002d0 <__udivmoddi4+0xa0>
 8000440:	f1c2 0320 	rsb	r3, r2, #32
 8000444:	fa20 f703 	lsr.w	r7, r0, r3
 8000448:	4095      	lsls	r5, r2
 800044a:	fa01 f002 	lsl.w	r0, r1, r2
 800044e:	fa21 f303 	lsr.w	r3, r1, r3
 8000452:	ea4f 4e15 	mov.w	lr, r5, lsr #16
 8000456:	4338      	orrs	r0, r7
 8000458:	0c01      	lsrs	r1, r0, #16
 800045a:	fbb3 f7fe 	udiv	r7, r3, lr
 800045e:	fa1f f885 	uxth.w	r8, r5
 8000462:	fb0e 3317 	mls	r3, lr, r7, r3
 8000466:	ea41 4103 	orr.w	r1, r1, r3, lsl #16
 800046a:	fb07 f308 	mul.w	r3, r7, r8
 800046e:	428b      	cmp	r3, r1
 8000470:	fa04 f402 	lsl.w	r4, r4, r2
 8000474:	d907      	bls.n	8000486 <__udivmoddi4+0x256>
 8000476:	1869      	adds	r1, r5, r1
 8000478:	f107 3cff 	add.w	ip, r7, #4294967295	; 0xffffffff
 800047c:	d22f      	bcs.n	80004de <__udivmoddi4+0x2ae>
 800047e:	428b      	cmp	r3, r1
 8000480:	d92d      	bls.n	80004de <__udivmoddi4+0x2ae>
 8000482:	3f02      	subs	r7, #2
 8000484:	4429      	add	r1, r5
 8000486:	1acb      	subs	r3, r1, r3
 8000488:	b281      	uxth	r1, r0
 800048a:	fbb3 f0fe 	udiv	r0, r3, lr
 800048e:	fb0e 3310 	mls	r3, lr, r0, r3
 8000492:	ea41 4103 	orr.w	r1, r1, r3, lsl #16
 8000496:	fb00 f308 	mul.w	r3, r0, r8
 800049a:	428b      	cmp	r3, r1
 800049c:	d907      	bls.n	80004ae <__udivmoddi4+0x27e>
 800049e:	1869      	adds	r1, r5, r1
 80004a0:	f100 3cff 	add.w	ip, r0, #4294967295	; 0xffffffff
 80004a4:	d217      	bcs.n	80004d6 <__udivmoddi4+0x2a6>
 80004a6:	428b      	cmp	r3, r1
 80004a8:	d915      	bls.n	80004d6 <__udivmoddi4+0x2a6>
 80004aa:	3802      	subs	r0, #2
 80004ac:	4429      	add	r1, r5
 80004ae:	1ac9      	subs	r1, r1, r3
 80004b0:	ea40 4707 	orr.w	r7, r0, r7, lsl #16
 80004b4:	e73b      	b.n	800032e <__udivmoddi4+0xfe>
 80004b6:	4637      	mov	r7, r6
 80004b8:	4630      	mov	r0, r6
 80004ba:	e709      	b.n	80002d0 <__udivmoddi4+0xa0>
 80004bc:	4607      	mov	r7, r0
 80004be:	e6e7      	b.n	8000290 <__udivmoddi4+0x60>
 80004c0:	4618      	mov	r0, r3
 80004c2:	e6fb      	b.n	80002bc <__udivmoddi4+0x8c>
 80004c4:	4541      	cmp	r1, r8
 80004c6:	d2ab      	bcs.n	8000420 <__udivmoddi4+0x1f0>
 80004c8:	ebb8 0a02 	subs.w	sl, r8, r2
 80004cc:	eb69 020e 	sbc.w	r2, r9, lr
 80004d0:	3801      	subs	r0, #1
 80004d2:	4613      	mov	r3, r2
 80004d4:	e7a4      	b.n	8000420 <__udivmoddi4+0x1f0>
 80004d6:	4660      	mov	r0, ip
 80004d8:	e7e9      	b.n	80004ae <__udivmoddi4+0x27e>
 80004da:	4618      	mov	r0, r3
 80004dc:	e795      	b.n	800040a <__udivmoddi4+0x1da>
 80004de:	4667      	mov	r7, ip
 80004e0:	e7d1      	b.n	8000486 <__udivmoddi4+0x256>
 80004e2:	4681      	mov	r9, r0
 80004e4:	e77c      	b.n	80003e0 <__udivmoddi4+0x1b0>
 80004e6:	3802      	subs	r0, #2
 80004e8:	442c      	add	r4, r5
 80004ea:	e747      	b.n	800037c <__udivmoddi4+0x14c>
 80004ec:	f1ac 0c02 	sub.w	ip, ip, #2
 80004f0:	442b      	add	r3, r5
 80004f2:	e72f      	b.n	8000354 <__udivmoddi4+0x124>
 80004f4:	4638      	mov	r0, r7
 80004f6:	e708      	b.n	800030a <__udivmoddi4+0xda>
 80004f8:	4637      	mov	r7, r6
 80004fa:	e6e9      	b.n	80002d0 <__udivmoddi4+0xa0>

080004fc <__aeabi_idiv0>:
 80004fc:	4770      	bx	lr
 80004fe:	bf00      	nop

08000500 <memcpy>:
 8000500:	4684      	mov	ip, r0
 8000502:	ea41 0300 	orr.w	r3, r1, r0
 8000506:	f013 0303 	ands.w	r3, r3, #3
 800050a:	d16d      	bne.n	80005e8 <memcpy+0xe8>
 800050c:	3a40      	subs	r2, #64	; 0x40
 800050e:	d341      	bcc.n	8000594 <memcpy+0x94>
 8000510:	f851 3b04 	ldr.w	r3, [r1], #4
 8000514:	f840 3b04 	str.w	r3, [r0], #4
 8000518:	f851 3b04 	ldr.w	r3, [r1], #4
 800051c:	f840 3b04 	str.w	r3, [r0], #4
 8000520:	f851 3b04 	ldr.w	r3, [r1], #4
 8000524:	f840 3b04 	str.w	r3, [r0], #4
 8000528:	f851 3b04 	ldr.w	r3, [r1], #4
 800052c:	f840 3b04 	str.w	r3, [r0], #4
 8000530:	f851 3b04 	ldr.w	r3, [r1], #4
 8000534:	f840 3b04 	str.w	r3, [r0], #4
 8000538:	f851 3b04 	ldr.w	r3, [r1], #4
 800053c:	f840 3b04 	str.w	r3, [r0], #4
 8000540:	f851 3b04 	ldr.w	r3, [r1], #4
 8000544:	f840 3b04 	str.w	r3, [r0], #4
 8000548:	f851 3b04 	ldr.w	r3, [r1], #4
 800054c:	f840 3b04 	str.w	r3, [r0], #4
 8000550:	f851 3b04 	ldr.w	r3, [r1], #4
 8000554:	f840 3b04 	str.w	r3, [r0], #4
 8000558:	f851 3b04 	ldr.w	r3, [r1], #4
 800055c:	f840 3b04 	str.w	r3, [r0], #4
 8000560:	f851 3b04 	ldr.w	r3, [r1], #4
 8000564:	f840 3b04 	str.w	r3, [r0], #4
 8000568:	f851 3b04 	ldr.w	r3, [r1], #4
 800056c:	f840 3b04 	str.w	r3, [r0], #4
 8000570:	f851 3b04 	ldr.w	r3, [r1], #4
 8000574:	f840 3b04 	str.w	r3, [r0], #4
 8000578:	f851 3b04 	ldr.w	r3, [r1], #4
 800057c:	f840 3b04 	str.w	r3, [r0], #4
 8000580:	f851 3b04 	ldr.w	r3, [r1], #4
 8000584:	f840 3b04 	str.w	r3, [r0], #4
 8000588:	f851 3b04 	ldr.w	r3, [r1], #4
 800058c:	f840 3b04 	str.w	r3, [r0], #4
 8000590:	3a40      	subs	r2, #64	; 0x40
 8000592:	d2bd      	bcs.n	8000510 <memcpy+0x10>
 8000594:	3230      	adds	r2, #48	; 0x30
 8000596:	d311      	bcc.n	80005bc <memcpy+0xbc>
 8000598:	f851 3b04 	ldr.w	r3, [r1], #4
 800059c:	f840 3b04 	str.w	r3, [r0], #4
 80005a0:	f851 3b04 	ldr.w	r3, [r1], #4
 80005a4:	f840 3b04 	str.w	r3, [r0], #4
 80005a8:	f851 3b04 	ldr.w	r3, [r1], #4
 80005ac:	f840 3b04 	str.w	r3, [r0], #4
 80005b0:	f851 3b04 	ldr.w	r3, [r1], #4
 80005b4:	f840 3b04 	str.w	r3, [r0], #4
 80005b8:	3a10      	subs	r2, #16
 80005ba:	d2ed      	bcs.n	8000598 <memcpy+0x98>
 80005bc:	320c      	adds	r2, #12
 80005be:	d305      	bcc.n	80005cc <memcpy+0xcc>
 80005c0:	f851 3b04 	ldr.w	r3, [r1], #4
 80005c4:	f840 3b04 	str.w	r3, [r0], #4
 80005c8:	3a04      	subs	r2, #4
 80005ca:	d2f9      	bcs.n	80005c0 <memcpy+0xc0>
 80005cc:	3204      	adds	r2, #4
 80005ce:	d008      	beq.n	80005e2 <memcpy+0xe2>
 80005d0:	07d2      	lsls	r2, r2, #31
 80005d2:	bf1c      	itt	ne
 80005d4:	f811 3b01 	ldrbne.w	r3, [r1], #1
 80005d8:	f800 3b01 	strbne.w	r3, [r0], #1
 80005dc:	d301      	bcc.n	80005e2 <memcpy+0xe2>
 80005de:	880b      	ldrh	r3, [r1, #0]
 80005e0:	8003      	strh	r3, [r0, #0]
 80005e2:	4660      	mov	r0, ip
 80005e4:	4770      	bx	lr
 80005e6:	bf00      	nop
 80005e8:	2a08      	cmp	r2, #8
 80005ea:	d313      	bcc.n	8000614 <memcpy+0x114>
 80005ec:	078b      	lsls	r3, r1, #30
 80005ee:	d08d      	beq.n	800050c <memcpy+0xc>
 80005f0:	f010 0303 	ands.w	r3, r0, #3
 80005f4:	d08a      	beq.n	800050c <memcpy+0xc>
 80005f6:	f1c3 0304 	rsb	r3, r3, #4
 80005fa:	1ad2      	subs	r2, r2, r3
 80005fc:	07db      	lsls	r3, r3, #31
 80005fe:	bf1c      	itt	ne
 8000600:	f811 3b01 	ldrbne.w	r3, [r1], #1
 8000604:	f800 3b01 	strbne.w	r3, [r0], #1
 8000608:	d380      	bcc.n	800050c <memcpy+0xc>
 800060a:	f831 3b02 	ldrh.w	r3, [r1], #2
 800060e:	f820 3b02 	strh.w	r3, [r0], #2
 8000612:	e77b      	b.n	800050c <memcpy+0xc>
 8000614:	3a04      	subs	r2, #4
 8000616:	d3d9      	bcc.n	80005cc <memcpy+0xcc>
 8000618:	3a01      	subs	r2, #1
 800061a:	f811 3b01 	ldrb.w	r3, [r1], #1
 800061e:	f800 3b01 	strb.w	r3, [r0], #1
 8000622:	d2f9      	bcs.n	8000618 <memcpy+0x118>
 8000624:	780b      	ldrb	r3, [r1, #0]
 8000626:	7003      	strb	r3, [r0, #0]
 8000628:	784b      	ldrb	r3, [r1, #1]
 800062a:	7043      	strb	r3, [r0, #1]
 800062c:	788b      	ldrb	r3, [r1, #2]
 800062e:	7083      	strb	r3, [r0, #2]
 8000630:	4660      	mov	r0, ip
 8000632:	4770      	bx	lr
	...

08000640 <strlen>:
 8000640:	f890 f000 	pld	[r0]
 8000644:	e96d 4502 	strd	r4, r5, [sp, #-8]!
 8000648:	f020 0107 	bic.w	r1, r0, #7
 800064c:	f06f 0c00 	mvn.w	ip, #0
 8000650:	f010 0407 	ands.w	r4, r0, #7
 8000654:	f891 f020 	pld	[r1, #32]
 8000658:	f040 8049 	bne.w	80006ee <strlen+0xae>
 800065c:	f04f 0400 	mov.w	r4, #0
 8000660:	f06f 0007 	mvn.w	r0, #7
 8000664:	e9d1 2300 	ldrd	r2, r3, [r1]
 8000668:	f891 f040 	pld	[r1, #64]	; 0x40
 800066c:	f100 0008 	add.w	r0, r0, #8
 8000670:	fa82 f24c 	uadd8	r2, r2, ip
 8000674:	faa4 f28c 	sel	r2, r4, ip
 8000678:	fa83 f34c 	uadd8	r3, r3, ip
 800067c:	faa2 f38c 	sel	r3, r2, ip
 8000680:	bb4b      	cbnz	r3, 80006d6 <strlen+0x96>
 8000682:	e9d1 2302 	ldrd	r2, r3, [r1, #8]
 8000686:	fa82 f24c 	uadd8	r2, r2, ip
 800068a:	f100 0008 	add.w	r0, r0, #8
 800068e:	faa4 f28c 	sel	r2, r4, ip
 8000692:	fa83 f34c 	uadd8	r3, r3, ip
 8000696:	faa2 f38c 	sel	r3, r2, ip
 800069a:	b9e3      	cbnz	r3, 80006d6 <strlen+0x96>
 800069c:	e9d1 2304 	ldrd	r2, r3, [r1, #16]
 80006a0:	fa82 f24c 	uadd8	r2, r2, ip
 80006a4:	f100 0008 	add.w	r0, r0, #8
 80006a8:	faa4 f28c 	sel	r2, r4, ip
 80006ac:	fa83 f34c 	uadd8	r3, r3, ip
 80006b0:	faa2 f38c 	sel	r3, r2, ip
 80006b4:	b97b      	cbnz	r3, 80006d6 <strlen+0x96>
 80006b6:	e9d1 2306 	ldrd	r2, r3, [r1, #24]
 80006ba:	f101 0120 	add.w	r1, r1, #32
 80006be:	fa82 f24c 	uadd8	r2, r2, ip
 80006c2:	f100 0008 	add.w	r0, r0, #8
 80006c6:	faa4 f28c 	sel	r2, r4, ip
 80006ca:	fa83 f34c 	uadd8	r3, r3, ip
 80006ce:	faa2 f38c 	sel	r3, r2, ip
 80006d2:	2b00      	cmp	r3, #0
 80006d4:	d0c6      	beq.n	8000664 <strlen+0x24>
 80006d6:	2a00      	cmp	r2, #0
 80006d8:	bf04      	itt	eq
 80006da:	3004      	addeq	r0, #4
 80006dc:	461a      	moveq	r2, r3
 80006de:	ba12      	rev	r2, r2
 80006e0:	fab2 f282 	clz	r2, r2
 80006e4:	e8fd 4502 	ldrd	r4, r5, [sp], #8
 80006e8:	eb00 00d2 	add.w	r0, r0, r2, lsr #3
 80006ec:	4770      	bx	lr
 80006ee:	e9d1 2300 	ldrd	r2, r3, [r1]
 80006f2:	f004 0503 	and.w	r5, r4, #3
 80006f6:	f1c4 0000 	rsb	r0, r4, #0
 80006fa:	ea4f 05c5 	mov.w	r5, r5, lsl #3
 80006fe:	f014 0f04 	tst.w	r4, #4
 8000702:	f891 f040 	pld	[r1, #64]	; 0x40
 8000706:	fa0c f505 	lsl.w	r5, ip, r5
 800070a:	ea62 0205 	orn	r2, r2, r5
 800070e:	bf1c      	itt	ne
 8000710:	ea63 0305 	ornne	r3, r3, r5
 8000714:	4662      	movne	r2, ip
 8000716:	f04f 0400 	mov.w	r4, #0
 800071a:	e7a9      	b.n	8000670 <strlen+0x30>
 800071c:	0000      	movs	r0, r0
	...

08000720 <memchr>:
 8000720:	f001 01ff 	and.w	r1, r1, #255	; 0xff
 8000724:	2a10      	cmp	r2, #16
 8000726:	db2b      	blt.n	8000780 <memchr+0x60>
 8000728:	f010 0f07 	tst.w	r0, #7
 800072c:	d008      	beq.n	8000740 <memchr+0x20>
 800072e:	f810 3b01 	ldrb.w	r3, [r0], #1
 8000732:	3a01      	subs	r2, #1
 8000734:	428b      	cmp	r3, r1
 8000736:	d02d      	beq.n	8000794 <memchr+0x74>
 8000738:	f010 0f07 	tst.w	r0, #7
 800073c:	b342      	cbz	r2, 8000790 <memchr+0x70>
 800073e:	d1f6      	bne.n	800072e <memchr+0xe>
 8000740:	b4f0      	push	{r4, r5, r6, r7}
 8000742:	ea41 2101 	orr.w	r1, r1, r1, lsl #8
 8000746:	ea41 4101 	orr.w	r1, r1, r1, lsl #16
 800074a:	f022 0407 	bic.w	r4, r2, #7
 800074e:	f07f 0700 	mvns.w	r7, #0
 8000752:	2300      	movs	r3, #0
 8000754:	e8f0 5602 	ldrd	r5, r6, [r0], #8
 8000758:	3c08      	subs	r4, #8
 800075a:	ea85 0501 	eor.w	r5, r5, r1
 800075e:	ea86 0601 	eor.w	r6, r6, r1
 8000762:	fa85 f547 	uadd8	r5, r5, r7
 8000766:	faa3 f587 	sel	r5, r3, r7
 800076a:	fa86 f647 	uadd8	r6, r6, r7
 800076e:	faa5 f687 	sel	r6, r5, r7
 8000772:	b98e      	cbnz	r6, 8000798 <memchr+0x78>
 8000774:	d1ee      	bne.n	8000754 <memchr+0x34>
 8000776:	bcf0      	pop	{r4, r5, r6, r7}
 8000778:	f001 01ff 	and.w	r1, r1, #255	; 0xff
 800077c:	f002 0207 	and.w	r2, r2, #7
 8000780:	b132      	cbz	r2, 8000790 <memchr+0x70>
 8000782:	f810 3b01 	ldrb.w	r3, [r0], #1
 8000786:	3a01      	subs	r2, #1
 8000788:	ea83 0301 	eor.w	r3, r3, r1
 800078c:	b113      	cbz	r3, 8000794 <memchr+0x74>
 800078e:	d1f8      	bne.n	8000782 <memchr+0x62>
 8000790:	2000      	movs	r0, #0
 8000792:	4770      	bx	lr
 8000794:	3801      	subs	r0, #1
 8000796:	4770      	bx	lr
 8000798:	2d00      	cmp	r5, #0
 800079a:	bf06      	itte	eq
 800079c:	4635      	moveq	r5, r6
 800079e:	3803      	subeq	r0, #3
 80007a0:	3807      	subne	r0, #7
 80007a2:	f015 0f01 	tst.w	r5, #1
 80007a6:	d107      	bne.n	80007b8 <memchr+0x98>
 80007a8:	3001      	adds	r0, #1
 80007aa:	f415 7f80 	tst.w	r5, #256	; 0x100
 80007ae:	bf02      	ittt	eq
 80007b0:	3001      	addeq	r0, #1
 80007b2:	f415 3fc0 	tsteq.w	r5, #98304	; 0x18000
 80007b6:	3001      	addeq	r0, #1
 80007b8:	bcf0      	pop	{r4, r5, r6, r7}
 80007ba:	3801      	subs	r0, #1
 80007bc:	4770      	bx	lr
 80007be:	bf00      	nop

080007c0 <__aeabi_drsub>:
 80007c0:	f081 4100 	eor.w	r1, r1, #2147483648	; 0x80000000
 80007c4:	e002      	b.n	80007cc <__adddf3>
 80007c6:	bf00      	nop

080007c8 <__aeabi_dsub>:
 80007c8:	f083 4300 	eor.w	r3, r3, #2147483648	; 0x80000000

080007cc <__adddf3>:
 80007cc:	b530      	push	{r4, r5, lr}
 80007ce:	ea4f 0441 	mov.w	r4, r1, lsl #1
 80007d2:	ea4f 0543 	mov.w	r5, r3, lsl #1
 80007d6:	ea94 0f05 	teq	r4, r5
 80007da:	bf08      	it	eq
 80007dc:	ea90 0f02 	teqeq	r0, r2
 80007e0:	bf1f      	itttt	ne
 80007e2:	ea54 0c00 	orrsne.w	ip, r4, r0
 80007e6:	ea55 0c02 	orrsne.w	ip, r5, r2
 80007ea:	ea7f 5c64 	mvnsne.w	ip, r4, asr #21
 80007ee:	ea7f 5c65 	mvnsne.w	ip, r5, asr #21
 80007f2:	f000 80e2 	beq.w	80009ba <__adddf3+0x1ee>
 80007f6:	ea4f 5454 	mov.w	r4, r4, lsr #21
 80007fa:	ebd4 5555 	rsbs	r5, r4, r5, lsr #21
 80007fe:	bfb8      	it	lt
 8000800:	426d      	neglt	r5, r5
 8000802:	dd0c      	ble.n	800081e <__adddf3+0x52>
 8000804:	442c      	add	r4, r5
 8000806:	ea80 0202 	eor.w	r2, r0, r2
 800080a:	ea81 0303 	eor.w	r3, r1, r3
 800080e:	ea82 0000 	eor.w	r0, r2, r0
 8000812:	ea83 0101 	eor.w	r1, r3, r1
 8000816:	ea80 0202 	eor.w	r2, r0, r2
 800081a:	ea81 0303 	eor.w	r3, r1, r3
 800081e:	2d36      	cmp	r5, #54	; 0x36
 8000820:	bf88      	it	hi
 8000822:	bd30      	pophi	{r4, r5, pc}
 8000824:	f011 4f00 	tst.w	r1, #2147483648	; 0x80000000
 8000828:	ea4f 3101 	mov.w	r1, r1, lsl #12
 800082c:	f44f 1c80 	mov.w	ip, #1048576	; 0x100000
 8000830:	ea4c 3111 	orr.w	r1, ip, r1, lsr #12
 8000834:	d002      	beq.n	800083c <__adddf3+0x70>
 8000836:	4240      	negs	r0, r0
 8000838:	eb61 0141 	sbc.w	r1, r1, r1, lsl #1
 800083c:	f013 4f00 	tst.w	r3, #2147483648	; 0x80000000
 8000840:	ea4f 3303 	mov.w	r3, r3, lsl #12
 8000844:	ea4c 3313 	orr.w	r3, ip, r3, lsr #12
 8000848:	d002      	beq.n	8000850 <__adddf3+0x84>
 800084a:	4252      	negs	r2, r2
 800084c:	eb63 0343 	sbc.w	r3, r3, r3, lsl #1
 8000850:	ea94 0f05 	teq	r4, r5
 8000854:	f000 80a7 	beq.w	80009a6 <__adddf3+0x1da>
 8000858:	f1a4 0401 	sub.w	r4, r4, #1
 800085c:	f1d5 0e20 	rsbs	lr, r5, #32
 8000860:	db0d      	blt.n	800087e <__adddf3+0xb2>
 8000862:	fa02 fc0e 	lsl.w	ip, r2, lr
 8000866:	fa22 f205 	lsr.w	r2, r2, r5
 800086a:	1880      	adds	r0, r0, r2
 800086c:	f141 0100 	adc.w	r1, r1, #0
 8000870:	fa03 f20e 	lsl.w	r2, r3, lr
 8000874:	1880      	adds	r0, r0, r2
 8000876:	fa43 f305 	asr.w	r3, r3, r5
 800087a:	4159      	adcs	r1, r3
 800087c:	e00e      	b.n	800089c <__adddf3+0xd0>
 800087e:	f1a5 0520 	sub.w	r5, r5, #32
 8000882:	f10e 0e20 	add.w	lr, lr, #32
 8000886:	2a01      	cmp	r2, #1
 8000888:	fa03 fc0e 	lsl.w	ip, r3, lr
 800088c:	bf28      	it	cs
 800088e:	f04c 0c02 	orrcs.w	ip, ip, #2
 8000892:	fa43 f305 	asr.w	r3, r3, r5
 8000896:	18c0      	adds	r0, r0, r3
 8000898:	eb51 71e3 	adcs.w	r1, r1, r3, asr #31
 800089c:	f001 4500 	and.w	r5, r1, #2147483648	; 0x80000000
 80008a0:	d507      	bpl.n	80008b2 <__adddf3+0xe6>
 80008a2:	f04f 0e00 	mov.w	lr, #0
 80008a6:	f1dc 0c00 	rsbs	ip, ip, #0
 80008aa:	eb7e 0000 	sbcs.w	r0, lr, r0
 80008ae:	eb6e 0101 	sbc.w	r1, lr, r1
 80008b2:	f5b1 1f80 	cmp.w	r1, #1048576	; 0x100000
 80008b6:	d31b      	bcc.n	80008f0 <__adddf3+0x124>
 80008b8:	f5b1 1f00 	cmp.w	r1, #2097152	; 0x200000
 80008bc:	d30c      	bcc.n	80008d8 <__adddf3+0x10c>
 80008be:	0849      	lsrs	r1, r1, #1
 80008c0:	ea5f 0030 	movs.w	r0, r0, rrx
 80008c4:	ea4f 0c3c 	mov.w	ip, ip, rrx
 80008c8:	f104 0401 	add.w	r4, r4, #1
 80008cc:	ea4f 5244 	mov.w	r2, r4, lsl #21
 80008d0:	f512 0f80 	cmn.w	r2, #4194304	; 0x400000
 80008d4:	f080 809a 	bcs.w	8000a0c <__adddf3+0x240>
 80008d8:	f1bc 4f00 	cmp.w	ip, #2147483648	; 0x80000000
 80008dc:	bf08      	it	eq
 80008de:	ea5f 0c50 	movseq.w	ip, r0, lsr #1
 80008e2:	f150 0000 	adcs.w	r0, r0, #0
 80008e6:	eb41 5104 	adc.w	r1, r1, r4, lsl #20
 80008ea:	ea41 0105 	orr.w	r1, r1, r5
 80008ee:	bd30      	pop	{r4, r5, pc}
 80008f0:	ea5f 0c4c 	movs.w	ip, ip, lsl #1
 80008f4:	4140      	adcs	r0, r0
 80008f6:	eb41 0101 	adc.w	r1, r1, r1
 80008fa:	f411 1f80 	tst.w	r1, #1048576	; 0x100000
 80008fe:	f1a4 0401 	sub.w	r4, r4, #1
 8000902:	d1e9      	bne.n	80008d8 <__adddf3+0x10c>
 8000904:	f091 0f00 	teq	r1, #0
 8000908:	bf04      	itt	eq
 800090a:	4601      	moveq	r1, r0
 800090c:	2000      	moveq	r0, #0
 800090e:	fab1 f381 	clz	r3, r1
 8000912:	bf08      	it	eq
 8000914:	3320      	addeq	r3, #32
 8000916:	f1a3 030b 	sub.w	r3, r3, #11
 800091a:	f1b3 0220 	subs.w	r2, r3, #32
 800091e:	da0c      	bge.n	800093a <__adddf3+0x16e>
 8000920:	320c      	adds	r2, #12
 8000922:	dd08      	ble.n	8000936 <__adddf3+0x16a>
 8000924:	f102 0c14 	add.w	ip, r2, #20
 8000928:	f1c2 020c 	rsb	r2, r2, #12
 800092c:	fa01 f00c 	lsl.w	r0, r1, ip
 8000930:	fa21 f102 	lsr.w	r1, r1, r2
 8000934:	e00c      	b.n	8000950 <__adddf3+0x184>
 8000936:	f102 0214 	add.w	r2, r2, #20
 800093a:	bfd8      	it	le
 800093c:	f1c2 0c20 	rsble	ip, r2, #32
 8000940:	fa01 f102 	lsl.w	r1, r1, r2
 8000944:	fa20 fc0c 	lsr.w	ip, r0, ip
 8000948:	bfdc      	itt	le
 800094a:	ea41 010c 	orrle.w	r1, r1, ip
 800094e:	4090      	lslle	r0, r2
 8000950:	1ae4      	subs	r4, r4, r3
 8000952:	bfa2      	ittt	ge
 8000954:	eb01 5104 	addge.w	r1, r1, r4, lsl #20
 8000958:	4329      	orrge	r1, r5
 800095a:	bd30      	popge	{r4, r5, pc}
 800095c:	ea6f 0404 	mvn.w	r4, r4
 8000960:	3c1f      	subs	r4, #31
 8000962:	da1c      	bge.n	800099e <__adddf3+0x1d2>
 8000964:	340c      	adds	r4, #12
 8000966:	dc0e      	bgt.n	8000986 <__adddf3+0x1ba>
 8000968:	f104 0414 	add.w	r4, r4, #20
 800096c:	f1c4 0220 	rsb	r2, r4, #32
 8000970:	fa20 f004 	lsr.w	r0, r0, r4
 8000974:	fa01 f302 	lsl.w	r3, r1, r2
 8000978:	ea40 0003 	orr.w	r0, r0, r3
 800097c:	fa21 f304 	lsr.w	r3, r1, r4
 8000980:	ea45 0103 	orr.w	r1, r5, r3
 8000984:	bd30      	pop	{r4, r5, pc}
 8000986:	f1c4 040c 	rsb	r4, r4, #12
 800098a:	f1c4 0220 	rsb	r2, r4, #32
 800098e:	fa20 f002 	lsr.w	r0, r0, r2
 8000992:	fa01 f304 	lsl.w	r3, r1, r4
 8000996:	ea40 0003 	orr.w	r0, r0, r3
 800099a:	4629      	mov	r1, r5
 800099c:	bd30      	pop	{r4, r5, pc}
 800099e:	fa21 f004 	lsr.w	r0, r1, r4
 80009a2:	4629      	mov	r1, r5
 80009a4:	bd30      	pop	{r4, r5, pc}
 80009a6:	f094 0f00 	teq	r4, #0
 80009aa:	f483 1380 	eor.w	r3, r3, #1048576	; 0x100000
 80009ae:	bf06      	itte	eq
 80009b0:	f481 1180 	eoreq.w	r1, r1, #1048576	; 0x100000
 80009b4:	3401      	addeq	r4, #1
 80009b6:	3d01      	subne	r5, #1
 80009b8:	e74e      	b.n	8000858 <__adddf3+0x8c>
 80009ba:	ea7f 5c64 	mvns.w	ip, r4, asr #21
 80009be:	bf18      	it	ne
 80009c0:	ea7f 5c65 	mvnsne.w	ip, r5, asr #21
 80009c4:	d029      	beq.n	8000a1a <__adddf3+0x24e>
 80009c6:	ea94 0f05 	teq	r4, r5
 80009ca:	bf08      	it	eq
 80009cc:	ea90 0f02 	teqeq	r0, r2
 80009d0:	d005      	beq.n	80009de <__adddf3+0x212>
 80009d2:	ea54 0c00 	orrs.w	ip, r4, r0
 80009d6:	bf04      	itt	eq
 80009d8:	4619      	moveq	r1, r3
 80009da:	4610      	moveq	r0, r2
 80009dc:	bd30      	pop	{r4, r5, pc}
 80009de:	ea91 0f03 	teq	r1, r3
 80009e2:	bf1e      	ittt	ne
 80009e4:	2100      	movne	r1, #0
 80009e6:	2000      	movne	r0, #0
 80009e8:	bd30      	popne	{r4, r5, pc}
 80009ea:	ea5f 5c54 	movs.w	ip, r4, lsr #21
 80009ee:	d105      	bne.n	80009fc <__adddf3+0x230>
 80009f0:	0040      	lsls	r0, r0, #1
 80009f2:	4149      	adcs	r1, r1
 80009f4:	bf28      	it	cs
 80009f6:	f041 4100 	orrcs.w	r1, r1, #2147483648	; 0x80000000
 80009fa:	bd30      	pop	{r4, r5, pc}
 80009fc:	f514 0480 	adds.w	r4, r4, #4194304	; 0x400000
 8000a00:	bf3c      	itt	cc
 8000a02:	f501 1180 	addcc.w	r1, r1, #1048576	; 0x100000
 8000a06:	bd30      	popcc	{r4, r5, pc}
 8000a08:	f001 4500 	and.w	r5, r1, #2147483648	; 0x80000000
 8000a0c:	f045 41fe 	orr.w	r1, r5, #2130706432	; 0x7f000000
 8000a10:	f441 0170 	orr.w	r1, r1, #15728640	; 0xf00000
 8000a14:	f04f 0000 	mov.w	r0, #0
 8000a18:	bd30      	pop	{r4, r5, pc}
 8000a1a:	ea7f 5c64 	mvns.w	ip, r4, asr #21
 8000a1e:	bf1a      	itte	ne
 8000a20:	4619      	movne	r1, r3
 8000a22:	4610      	movne	r0, r2
 8000a24:	ea7f 5c65 	mvnseq.w	ip, r5, asr #21
 8000a28:	bf1c      	itt	ne
 8000a2a:	460b      	movne	r3, r1
 8000a2c:	4602      	movne	r2, r0
 8000a2e:	ea50 3401 	orrs.w	r4, r0, r1, lsl #12
 8000a32:	bf06      	itte	eq
 8000a34:	ea52 3503 	orrseq.w	r5, r2, r3, lsl #12
 8000a38:	ea91 0f03 	teqeq	r1, r3
 8000a3c:	f441 2100 	orrne.w	r1, r1, #524288	; 0x80000
 8000a40:	bd30      	pop	{r4, r5, pc}
 8000a42:	bf00      	nop

08000a44 <__aeabi_ui2d>:
 8000a44:	f090 0f00 	teq	r0, #0
 8000a48:	bf04      	itt	eq
 8000a4a:	2100      	moveq	r1, #0
 8000a4c:	4770      	bxeq	lr
 8000a4e:	b530      	push	{r4, r5, lr}
 8000a50:	f44f 6480 	mov.w	r4, #1024	; 0x400
 8000a54:	f104 0432 	add.w	r4, r4, #50	; 0x32
 8000a58:	f04f 0500 	mov.w	r5, #0
 8000a5c:	f04f 0100 	mov.w	r1, #0
 8000a60:	e750      	b.n	8000904 <__adddf3+0x138>
 8000a62:	bf00      	nop

08000a64 <__aeabi_i2d>:
 8000a64:	f090 0f00 	teq	r0, #0
 8000a68:	bf04      	itt	eq
 8000a6a:	2100      	moveq	r1, #0
 8000a6c:	4770      	bxeq	lr
 8000a6e:	b530      	push	{r4, r5, lr}
 8000a70:	f44f 6480 	mov.w	r4, #1024	; 0x400
 8000a74:	f104 0432 	add.w	r4, r4, #50	; 0x32
 8000a78:	f010 4500 	ands.w	r5, r0, #2147483648	; 0x80000000
 8000a7c:	bf48      	it	mi
 8000a7e:	4240      	negmi	r0, r0
 8000a80:	f04f 0100 	mov.w	r1, #0
 8000a84:	e73e      	b.n	8000904 <__adddf3+0x138>
 8000a86:	bf00      	nop

08000a88 <__aeabi_f2d>:
 8000a88:	0042      	lsls	r2, r0, #1
 8000a8a:	ea4f 01e2 	mov.w	r1, r2, asr #3
 8000a8e:	ea4f 0131 	mov.w	r1, r1, rrx
 8000a92:	ea4f 7002 	mov.w	r0, r2, lsl #28
 8000a96:	bf1f      	itttt	ne
 8000a98:	f012 437f 	andsne.w	r3, r2, #4278190080	; 0xff000000
 8000a9c:	f093 4f7f 	teqne	r3, #4278190080	; 0xff000000
 8000aa0:	f081 5160 	eorne.w	r1, r1, #939524096	; 0x38000000
 8000aa4:	4770      	bxne	lr
 8000aa6:	f032 427f 	bics.w	r2, r2, #4278190080	; 0xff000000
 8000aaa:	bf08      	it	eq
 8000aac:	4770      	bxeq	lr
 8000aae:	f093 4f7f 	teq	r3, #4278190080	; 0xff000000
 8000ab2:	bf04      	itt	eq
 8000ab4:	f441 2100 	orreq.w	r1, r1, #524288	; 0x80000
 8000ab8:	4770      	bxeq	lr
 8000aba:	b530      	push	{r4, r5, lr}
 8000abc:	f44f 7460 	mov.w	r4, #896	; 0x380
 8000ac0:	f001 4500 	and.w	r5, r1, #2147483648	; 0x80000000
 8000ac4:	f021 4100 	bic.w	r1, r1, #2147483648	; 0x80000000
 8000ac8:	e71c      	b.n	8000904 <__adddf3+0x138>
 8000aca:	bf00      	nop

08000acc <__aeabi_ul2d>:
 8000acc:	ea50 0201 	orrs.w	r2, r0, r1
 8000ad0:	bf08      	it	eq
 8000ad2:	4770      	bxeq	lr
 8000ad4:	b530      	push	{r4, r5, lr}
 8000ad6:	f04f 0500 	mov.w	r5, #0
 8000ada:	e00a      	b.n	8000af2 <__aeabi_l2d+0x16>

08000adc <__aeabi_l2d>:
 8000adc:	ea50 0201 	orrs.w	r2, r0, r1
 8000ae0:	bf08      	it	eq
 8000ae2:	4770      	bxeq	lr
 8000ae4:	b530      	push	{r4, r5, lr}
 8000ae6:	f011 4500 	ands.w	r5, r1, #2147483648	; 0x80000000
 8000aea:	d502      	bpl.n	8000af2 <__aeabi_l2d+0x16>
 8000aec:	4240      	negs	r0, r0
 8000aee:	eb61 0141 	sbc.w	r1, r1, r1, lsl #1
 8000af2:	f44f 6480 	mov.w	r4, #1024	; 0x400
 8000af6:	f104 0432 	add.w	r4, r4, #50	; 0x32
 8000afa:	ea5f 5c91 	movs.w	ip, r1, lsr #22
 8000afe:	f43f aed8 	beq.w	80008b2 <__adddf3+0xe6>
 8000b02:	f04f 0203 	mov.w	r2, #3
 8000b06:	ea5f 0cdc 	movs.w	ip, ip, lsr #3
 8000b0a:	bf18      	it	ne
 8000b0c:	3203      	addne	r2, #3
 8000b0e:	ea5f 0cdc 	movs.w	ip, ip, lsr #3
 8000b12:	bf18      	it	ne
 8000b14:	3203      	addne	r2, #3
 8000b16:	eb02 02dc 	add.w	r2, r2, ip, lsr #3
 8000b1a:	f1c2 0320 	rsb	r3, r2, #32
 8000b1e:	fa00 fc03 	lsl.w	ip, r0, r3
 8000b22:	fa20 f002 	lsr.w	r0, r0, r2
 8000b26:	fa01 fe03 	lsl.w	lr, r1, r3
 8000b2a:	ea40 000e 	orr.w	r0, r0, lr
 8000b2e:	fa21 f102 	lsr.w	r1, r1, r2
 8000b32:	4414      	add	r4, r2
 8000b34:	e6bd      	b.n	80008b2 <__adddf3+0xe6>
 8000b36:	bf00      	nop

08000b38 <__aeabi_dmul>:
 8000b38:	b570      	push	{r4, r5, r6, lr}
 8000b3a:	f04f 0cff 	mov.w	ip, #255	; 0xff
 8000b3e:	f44c 6ce0 	orr.w	ip, ip, #1792	; 0x700
 8000b42:	ea1c 5411 	ands.w	r4, ip, r1, lsr #20
 8000b46:	bf1d      	ittte	ne
 8000b48:	ea1c 5513 	andsne.w	r5, ip, r3, lsr #20
 8000b4c:	ea94 0f0c 	teqne	r4, ip
 8000b50:	ea95 0f0c 	teqne	r5, ip
 8000b54:	f000 f8de 	bleq	8000d14 <__aeabi_dmul+0x1dc>
 8000b58:	442c      	add	r4, r5
 8000b5a:	ea81 0603 	eor.w	r6, r1, r3
 8000b5e:	ea21 514c 	bic.w	r1, r1, ip, lsl #21
 8000b62:	ea23 534c 	bic.w	r3, r3, ip, lsl #21
 8000b66:	ea50 3501 	orrs.w	r5, r0, r1, lsl #12
 8000b6a:	bf18      	it	ne
 8000b6c:	ea52 3503 	orrsne.w	r5, r2, r3, lsl #12
 8000b70:	f441 1180 	orr.w	r1, r1, #1048576	; 0x100000
 8000b74:	f443 1380 	orr.w	r3, r3, #1048576	; 0x100000
 8000b78:	d038      	beq.n	8000bec <__aeabi_dmul+0xb4>
 8000b7a:	fba0 ce02 	umull	ip, lr, r0, r2
 8000b7e:	f04f 0500 	mov.w	r5, #0
 8000b82:	fbe1 e502 	umlal	lr, r5, r1, r2
 8000b86:	f006 4200 	and.w	r2, r6, #2147483648	; 0x80000000
 8000b8a:	fbe0 e503 	umlal	lr, r5, r0, r3
 8000b8e:	f04f 0600 	mov.w	r6, #0
 8000b92:	fbe1 5603 	umlal	r5, r6, r1, r3
 8000b96:	f09c 0f00 	teq	ip, #0
 8000b9a:	bf18      	it	ne
 8000b9c:	f04e 0e01 	orrne.w	lr, lr, #1
 8000ba0:	f1a4 04ff 	sub.w	r4, r4, #255	; 0xff
 8000ba4:	f5b6 7f00 	cmp.w	r6, #512	; 0x200
 8000ba8:	f564 7440 	sbc.w	r4, r4, #768	; 0x300
 8000bac:	d204      	bcs.n	8000bb8 <__aeabi_dmul+0x80>
 8000bae:	ea5f 0e4e 	movs.w	lr, lr, lsl #1
 8000bb2:	416d      	adcs	r5, r5
 8000bb4:	eb46 0606 	adc.w	r6, r6, r6
 8000bb8:	ea42 21c6 	orr.w	r1, r2, r6, lsl #11
 8000bbc:	ea41 5155 	orr.w	r1, r1, r5, lsr #21
 8000bc0:	ea4f 20c5 	mov.w	r0, r5, lsl #11
 8000bc4:	ea40 505e 	orr.w	r0, r0, lr, lsr #21
 8000bc8:	ea4f 2ece 	mov.w	lr, lr, lsl #11
 8000bcc:	f1b4 0cfd 	subs.w	ip, r4, #253	; 0xfd
 8000bd0:	bf88      	it	hi
 8000bd2:	f5bc 6fe0 	cmphi.w	ip, #1792	; 0x700
 8000bd6:	d81e      	bhi.n	8000c16 <__aeabi_dmul+0xde>
 8000bd8:	f1be 4f00 	cmp.w	lr, #2147483648	; 0x80000000
 8000bdc:	bf08      	it	eq
 8000bde:	ea5f 0e50 	movseq.w	lr, r0, lsr #1
 8000be2:	f150 0000 	adcs.w	r0, r0, #0
 8000be6:	eb41 5104 	adc.w	r1, r1, r4, lsl #20
 8000bea:	bd70      	pop	{r4, r5, r6, pc}
 8000bec:	f006 4600 	and.w	r6, r6, #2147483648	; 0x80000000
 8000bf0:	ea46 0101 	orr.w	r1, r6, r1
 8000bf4:	ea40 0002 	orr.w	r0, r0, r2
 8000bf8:	ea81 0103 	eor.w	r1, r1, r3
 8000bfc:	ebb4 045c 	subs.w	r4, r4, ip, lsr #1
 8000c00:	bfc2      	ittt	gt
 8000c02:	ebd4 050c 	rsbsgt	r5, r4, ip
 8000c06:	ea41 5104 	orrgt.w	r1, r1, r4, lsl #20
 8000c0a:	bd70      	popgt	{r4, r5, r6, pc}
 8000c0c:	f441 1180 	orr.w	r1, r1, #1048576	; 0x100000
 8000c10:	f04f 0e00 	mov.w	lr, #0
 8000c14:	3c01      	subs	r4, #1
 8000c16:	f300 80ab 	bgt.w	8000d70 <__aeabi_dmul+0x238>
 8000c1a:	f114 0f36 	cmn.w	r4, #54	; 0x36
 8000c1e:	bfde      	ittt	le
 8000c20:	2000      	movle	r0, #0
 8000c22:	f001 4100 	andle.w	r1, r1, #2147483648	; 0x80000000
 8000c26:	bd70      	pople	{r4, r5, r6, pc}
 8000c28:	f1c4 0400 	rsb	r4, r4, #0
 8000c2c:	3c20      	subs	r4, #32
 8000c2e:	da35      	bge.n	8000c9c <__aeabi_dmul+0x164>
 8000c30:	340c      	adds	r4, #12
 8000c32:	dc1b      	bgt.n	8000c6c <__aeabi_dmul+0x134>
 8000c34:	f104 0414 	add.w	r4, r4, #20
 8000c38:	f1c4 0520 	rsb	r5, r4, #32
 8000c3c:	fa00 f305 	lsl.w	r3, r0, r5
 8000c40:	fa20 f004 	lsr.w	r0, r0, r4
 8000c44:	fa01 f205 	lsl.w	r2, r1, r5
 8000c48:	ea40 0002 	orr.w	r0, r0, r2
 8000c4c:	f001 4200 	and.w	r2, r1, #2147483648	; 0x80000000
 8000c50:	f021 4100 	bic.w	r1, r1, #2147483648	; 0x80000000
 8000c54:	eb10 70d3 	adds.w	r0, r0, r3, lsr #31
 8000c58:	fa21 f604 	lsr.w	r6, r1, r4
 8000c5c:	eb42 0106 	adc.w	r1, r2, r6
 8000c60:	ea5e 0e43 	orrs.w	lr, lr, r3, lsl #1
 8000c64:	bf08      	it	eq
 8000c66:	ea20 70d3 	biceq.w	r0, r0, r3, lsr #31
 8000c6a:	bd70      	pop	{r4, r5, r6, pc}
 8000c6c:	f1c4 040c 	rsb	r4, r4, #12
 8000c70:	f1c4 0520 	rsb	r5, r4, #32
 8000c74:	fa00 f304 	lsl.w	r3, r0, r4
 8000c78:	fa20 f005 	lsr.w	r0, r0, r5
 8000c7c:	fa01 f204 	lsl.w	r2, r1, r4
 8000c80:	ea40 0002 	orr.w	r0, r0, r2
 8000c84:	f001 4100 	and.w	r1, r1, #2147483648	; 0x80000000
 8000c88:	eb10 70d3 	adds.w	r0, r0, r3, lsr #31
 8000c8c:	f141 0100 	adc.w	r1, r1, #0
 8000c90:	ea5e 0e43 	orrs.w	lr, lr, r3, lsl #1
 8000c94:	bf08      	it	eq
 8000c96:	ea20 70d3 	biceq.w	r0, r0, r3, lsr #31
 8000c9a:	bd70      	pop	{r4, r5, r6, pc}
 8000c9c:	f1c4 0520 	rsb	r5, r4, #32
 8000ca0:	fa00 f205 	lsl.w	r2, r0, r5
 8000ca4:	ea4e 0e02 	orr.w	lr, lr, r2
 8000ca8:	fa20 f304 	lsr.w	r3, r0, r4
 8000cac:	fa01 f205 	lsl.w	r2, r1, r5
 8000cb0:	ea43 0302 	orr.w	r3, r3, r2
 8000cb4:	fa21 f004 	lsr.w	r0, r1, r4
 8000cb8:	f001 4100 	and.w	r1, r1, #2147483648	; 0x80000000
 8000cbc:	fa21 f204 	lsr.w	r2, r1, r4
 8000cc0:	ea20 0002 	bic.w	r0, r0, r2
 8000cc4:	eb00 70d3 	add.w	r0, r0, r3, lsr #31
 8000cc8:	ea5e 0e43 	orrs.w	lr, lr, r3, lsl #1
 8000ccc:	bf08      	it	eq
 8000cce:	ea20 70d3 	biceq.w	r0, r0, r3, lsr #31
 8000cd2:	bd70      	pop	{r4, r5, r6, pc}
 8000cd4:	f094 0f00 	teq	r4, #0
 8000cd8:	d10f      	bne.n	8000cfa <__aeabi_dmul+0x1c2>
 8000cda:	f001 4600 	and.w	r6, r1, #2147483648	; 0x80000000
 8000cde:	0040      	lsls	r0, r0, #1
 8000ce0:	eb41 0101 	adc.w	r1, r1, r1
 8000ce4:	f411 1f80 	tst.w	r1, #1048576	; 0x100000
 8000ce8:	bf08      	it	eq
 8000cea:	3c01      	subeq	r4, #1
 8000cec:	d0f7      	beq.n	8000cde <__aeabi_dmul+0x1a6>
 8000cee:	ea41 0106 	orr.w	r1, r1, r6
 8000cf2:	f095 0f00 	teq	r5, #0
 8000cf6:	bf18      	it	ne
 8000cf8:	4770      	bxne	lr
 8000cfa:	f003 4600 	and.w	r6, r3, #2147483648	; 0x80000000
 8000cfe:	0052      	lsls	r2, r2, #1
 8000d00:	eb43 0303 	adc.w	r3, r3, r3
 8000d04:	f413 1f80 	tst.w	r3, #1048576	; 0x100000
 8000d08:	bf08      	it	eq
 8000d0a:	3d01      	subeq	r5, #1
 8000d0c:	d0f7      	beq.n	8000cfe <__aeabi_dmul+0x1c6>
 8000d0e:	ea43 0306 	orr.w	r3, r3, r6
 8000d12:	4770      	bx	lr
 8000d14:	ea94 0f0c 	teq	r4, ip
 8000d18:	ea0c 5513 	and.w	r5, ip, r3, lsr #20
 8000d1c:	bf18      	it	ne
 8000d1e:	ea95 0f0c 	teqne	r5, ip
 8000d22:	d00c      	beq.n	8000d3e <__aeabi_dmul+0x206>
 8000d24:	ea50 0641 	orrs.w	r6, r0, r1, lsl #1
 8000d28:	bf18      	it	ne
 8000d2a:	ea52 0643 	orrsne.w	r6, r2, r3, lsl #1
 8000d2e:	d1d1      	bne.n	8000cd4 <__aeabi_dmul+0x19c>
 8000d30:	ea81 0103 	eor.w	r1, r1, r3
 8000d34:	f001 4100 	and.w	r1, r1, #2147483648	; 0x80000000
 8000d38:	f04f 0000 	mov.w	r0, #0
 8000d3c:	bd70      	pop	{r4, r5, r6, pc}
 8000d3e:	ea50 0641 	orrs.w	r6, r0, r1, lsl #1
 8000d42:	bf06      	itte	eq
 8000d44:	4610      	moveq	r0, r2
 8000d46:	4619      	moveq	r1, r3
 8000d48:	ea52 0643 	orrsne.w	r6, r2, r3, lsl #1
 8000d4c:	d019      	beq.n	8000d82 <__aeabi_dmul+0x24a>
 8000d4e:	ea94 0f0c 	teq	r4, ip
 8000d52:	d102      	bne.n	8000d5a <__aeabi_dmul+0x222>
 8000d54:	ea50 3601 	orrs.w	r6, r0, r1, lsl #12
 8000d58:	d113      	bne.n	8000d82 <__aeabi_dmul+0x24a>
 8000d5a:	ea95 0f0c 	teq	r5, ip
 8000d5e:	d105      	bne.n	8000d6c <__aeabi_dmul+0x234>
 8000d60:	ea52 3603 	orrs.w	r6, r2, r3, lsl #12
 8000d64:	bf1c      	itt	ne
 8000d66:	4610      	movne	r0, r2
 8000d68:	4619      	movne	r1, r3
 8000d6a:	d10a      	bne.n	8000d82 <__aeabi_dmul+0x24a>
 8000d6c:	ea81 0103 	eor.w	r1, r1, r3
 8000d70:	f001 4100 	and.w	r1, r1, #2147483648	; 0x80000000
 8000d74:	f041 41fe 	orr.w	r1, r1, #2130706432	; 0x7f000000
 8000d78:	f441 0170 	orr.w	r1, r1, #15728640	; 0xf00000
 8000d7c:	f04f 0000 	mov.w	r0, #0
 8000d80:	bd70      	pop	{r4, r5, r6, pc}
 8000d82:	f041 41fe 	orr.w	r1, r1, #2130706432	; 0x7f000000
 8000d86:	f441 0178 	orr.w	r1, r1, #16252928	; 0xf80000
 8000d8a:	bd70      	pop	{r4, r5, r6, pc}

08000d8c <__aeabi_ddiv>:
 8000d8c:	b570      	push	{r4, r5, r6, lr}
 8000d8e:	f04f 0cff 	mov.w	ip, #255	; 0xff
 8000d92:	f44c 6ce0 	orr.w	ip, ip, #1792	; 0x700
 8000d96:	ea1c 5411 	ands.w	r4, ip, r1, lsr #20
 8000d9a:	bf1d      	ittte	ne
 8000d9c:	ea1c 5513 	andsne.w	r5, ip, r3, lsr #20
 8000da0:	ea94 0f0c 	teqne	r4, ip
 8000da4:	ea95 0f0c 	teqne	r5, ip
 8000da8:	f000 f8a7 	bleq	8000efa <__aeabi_ddiv+0x16e>
 8000dac:	eba4 0405 	sub.w	r4, r4, r5
 8000db0:	ea81 0e03 	eor.w	lr, r1, r3
 8000db4:	ea52 3503 	orrs.w	r5, r2, r3, lsl #12
 8000db8:	ea4f 3101 	mov.w	r1, r1, lsl #12
 8000dbc:	f000 8088 	beq.w	8000ed0 <__aeabi_ddiv+0x144>
 8000dc0:	ea4f 3303 	mov.w	r3, r3, lsl #12
 8000dc4:	f04f 5580 	mov.w	r5, #268435456	; 0x10000000
 8000dc8:	ea45 1313 	orr.w	r3, r5, r3, lsr #4
 8000dcc:	ea43 6312 	orr.w	r3, r3, r2, lsr #24
 8000dd0:	ea4f 2202 	mov.w	r2, r2, lsl #8
 8000dd4:	ea45 1511 	orr.w	r5, r5, r1, lsr #4
 8000dd8:	ea45 6510 	orr.w	r5, r5, r0, lsr #24
 8000ddc:	ea4f 2600 	mov.w	r6, r0, lsl #8
 8000de0:	f00e 4100 	and.w	r1, lr, #2147483648	; 0x80000000
 8000de4:	429d      	cmp	r5, r3
 8000de6:	bf08      	it	eq
 8000de8:	4296      	cmpeq	r6, r2
 8000dea:	f144 04fd 	adc.w	r4, r4, #253	; 0xfd
 8000dee:	f504 7440 	add.w	r4, r4, #768	; 0x300
 8000df2:	d202      	bcs.n	8000dfa <__aeabi_ddiv+0x6e>
 8000df4:	085b      	lsrs	r3, r3, #1
 8000df6:	ea4f 0232 	mov.w	r2, r2, rrx
 8000dfa:	1ab6      	subs	r6, r6, r2
 8000dfc:	eb65 0503 	sbc.w	r5, r5, r3
 8000e00:	085b      	lsrs	r3, r3, #1
 8000e02:	ea4f 0232 	mov.w	r2, r2, rrx
 8000e06:	f44f 1080 	mov.w	r0, #1048576	; 0x100000
 8000e0a:	f44f 2c00 	mov.w	ip, #524288	; 0x80000
 8000e0e:	ebb6 0e02 	subs.w	lr, r6, r2
 8000e12:	eb75 0e03 	sbcs.w	lr, r5, r3
 8000e16:	bf22      	ittt	cs
 8000e18:	1ab6      	subcs	r6, r6, r2
 8000e1a:	4675      	movcs	r5, lr
 8000e1c:	ea40 000c 	orrcs.w	r0, r0, ip
 8000e20:	085b      	lsrs	r3, r3, #1
 8000e22:	ea4f 0232 	mov.w	r2, r2, rrx
 8000e26:	ebb6 0e02 	subs.w	lr, r6, r2
 8000e2a:	eb75 0e03 	sbcs.w	lr, r5, r3
 8000e2e:	bf22      	ittt	cs
 8000e30:	1ab6      	subcs	r6, r6, r2
 8000e32:	4675      	movcs	r5, lr
 8000e34:	ea40 005c 	orrcs.w	r0, r0, ip, lsr #1
 8000e38:	085b      	lsrs	r3, r3, #1
 8000e3a:	ea4f 0232 	mov.w	r2, r2, rrx
 8000e3e:	ebb6 0e02 	subs.w	lr, r6, r2
 8000e42:	eb75 0e03 	sbcs.w	lr, r5, r3
 8000e46:	bf22      	ittt	cs
 8000e48:	1ab6      	subcs	r6, r6, r2
 8000e4a:	4675      	movcs	r5, lr
 8000e4c:	ea40 009c 	orrcs.w	r0, r0, ip, lsr #2
 8000e50:	085b      	lsrs	r3, r3, #1
 8000e52:	ea4f 0232 	mov.w	r2, r2, rrx
 8000e56:	ebb6 0e02 	subs.w	lr, r6, r2
 8000e5a:	eb75 0e03 	sbcs.w	lr, r5, r3
 8000e5e:	bf22      	ittt	cs
 8000e60:	1ab6      	subcs	r6, r6, r2
 8000e62:	4675      	movcs	r5, lr
 8000e64:	ea40 00dc 	orrcs.w	r0, r0, ip, lsr #3
 8000e68:	ea55 0e06 	orrs.w	lr, r5, r6
 8000e6c:	d018      	beq.n	8000ea0 <__aeabi_ddiv+0x114>
 8000e6e:	ea4f 1505 	mov.w	r5, r5, lsl #4
 8000e72:	ea45 7516 	orr.w	r5, r5, r6, lsr #28
 8000e76:	ea4f 1606 	mov.w	r6, r6, lsl #4
 8000e7a:	ea4f 03c3 	mov.w	r3, r3, lsl #3
 8000e7e:	ea43 7352 	orr.w	r3, r3, r2, lsr #29
 8000e82:	ea4f 02c2 	mov.w	r2, r2, lsl #3
 8000e86:	ea5f 1c1c 	movs.w	ip, ip, lsr #4
 8000e8a:	d1c0      	bne.n	8000e0e <__aeabi_ddiv+0x82>
 8000e8c:	f411 1f80 	tst.w	r1, #1048576	; 0x100000
 8000e90:	d10b      	bne.n	8000eaa <__aeabi_ddiv+0x11e>
 8000e92:	ea41 0100 	orr.w	r1, r1, r0
 8000e96:	f04f 0000 	mov.w	r0, #0
 8000e9a:	f04f 4c00 	mov.w	ip, #2147483648	; 0x80000000
 8000e9e:	e7b6      	b.n	8000e0e <__aeabi_ddiv+0x82>
 8000ea0:	f411 1f80 	tst.w	r1, #1048576	; 0x100000
 8000ea4:	bf04      	itt	eq
 8000ea6:	4301      	orreq	r1, r0
 8000ea8:	2000      	moveq	r0, #0
 8000eaa:	f1b4 0cfd 	subs.w	ip, r4, #253	; 0xfd
 8000eae:	bf88      	it	hi
 8000eb0:	f5bc 6fe0 	cmphi.w	ip, #1792	; 0x700
 8000eb4:	f63f aeaf 	bhi.w	8000c16 <__aeabi_dmul+0xde>
 8000eb8:	ebb5 0c03 	subs.w	ip, r5, r3
 8000ebc:	bf04      	itt	eq
 8000ebe:	ebb6 0c02 	subseq.w	ip, r6, r2
 8000ec2:	ea5f 0c50 	movseq.w	ip, r0, lsr #1
 8000ec6:	f150 0000 	adcs.w	r0, r0, #0
 8000eca:	eb41 5104 	adc.w	r1, r1, r4, lsl #20
 8000ece:	bd70      	pop	{r4, r5, r6, pc}
 8000ed0:	f00e 4e00 	and.w	lr, lr, #2147483648	; 0x80000000
 8000ed4:	ea4e 3111 	orr.w	r1, lr, r1, lsr #12
 8000ed8:	eb14 045c 	adds.w	r4, r4, ip, lsr #1
 8000edc:	bfc2      	ittt	gt
 8000ede:	ebd4 050c 	rsbsgt	r5, r4, ip
 8000ee2:	ea41 5104 	orrgt.w	r1, r1, r4, lsl #20
 8000ee6:	bd70      	popgt	{r4, r5, r6, pc}
 8000ee8:	f441 1180 	orr.w	r1, r1, #1048576	; 0x100000
 8000eec:	f04f 0e00 	mov.w	lr, #0
 8000ef0:	3c01      	subs	r4, #1
 8000ef2:	e690      	b.n	8000c16 <__aeabi_dmul+0xde>
 8000ef4:	ea45 0e06 	orr.w	lr, r5, r6
 8000ef8:	e68d      	b.n	8000c16 <__aeabi_dmul+0xde>
 8000efa:	ea0c 5513 	and.w	r5, ip, r3, lsr #20
 8000efe:	ea94 0f0c 	teq	r4, ip
 8000f02:	bf08      	it	eq
 8000f04:	ea95 0f0c 	teqeq	r5, ip
 8000f08:	f43f af3b 	beq.w	8000d82 <__aeabi_dmul+0x24a>
 8000f0c:	ea94 0f0c 	teq	r4, ip
 8000f10:	d10a      	bne.n	8000f28 <__aeabi_ddiv+0x19c>
 8000f12:	ea50 3401 	orrs.w	r4, r0, r1, lsl #12
 8000f16:	f47f af34 	bne.w	8000d82 <__aeabi_dmul+0x24a>
 8000f1a:	ea95 0f0c 	teq	r5, ip
 8000f1e:	f47f af25 	bne.w	8000d6c <__aeabi_dmul+0x234>
 8000f22:	4610      	mov	r0, r2
 8000f24:	4619      	mov	r1, r3
 8000f26:	e72c      	b.n	8000d82 <__aeabi_dmul+0x24a>
 8000f28:	ea95 0f0c 	teq	r5, ip
 8000f2c:	d106      	bne.n	8000f3c <__aeabi_ddiv+0x1b0>
 8000f2e:	ea52 3503 	orrs.w	r5, r2, r3, lsl #12
 8000f32:	f43f aefd 	beq.w	8000d30 <__aeabi_dmul+0x1f8>
 8000f36:	4610      	mov	r0, r2
 8000f38:	4619      	mov	r1, r3
 8000f3a:	e722      	b.n	8000d82 <__aeabi_dmul+0x24a>
 8000f3c:	ea50 0641 	orrs.w	r6, r0, r1, lsl #1
 8000f40:	bf18      	it	ne
 8000f42:	ea52 0643 	orrsne.w	r6, r2, r3, lsl #1
 8000f46:	f47f aec5 	bne.w	8000cd4 <__aeabi_dmul+0x19c>
 8000f4a:	ea50 0441 	orrs.w	r4, r0, r1, lsl #1
 8000f4e:	f47f af0d 	bne.w	8000d6c <__aeabi_dmul+0x234>
 8000f52:	ea52 0543 	orrs.w	r5, r2, r3, lsl #1
 8000f56:	f47f aeeb 	bne.w	8000d30 <__aeabi_dmul+0x1f8>
 8000f5a:	e712      	b.n	8000d82 <__aeabi_dmul+0x24a>

08000f5c <__gedf2>:
 8000f5c:	f04f 3cff 	mov.w	ip, #4294967295	; 0xffffffff
 8000f60:	e006      	b.n	8000f70 <__cmpdf2+0x4>
 8000f62:	bf00      	nop

08000f64 <__ledf2>:
 8000f64:	f04f 0c01 	mov.w	ip, #1
 8000f68:	e002      	b.n	8000f70 <__cmpdf2+0x4>
 8000f6a:	bf00      	nop

08000f6c <__cmpdf2>:
 8000f6c:	f04f 0c01 	mov.w	ip, #1
 8000f70:	f84d cd04 	str.w	ip, [sp, #-4]!
 8000f74:	ea4f 0c41 	mov.w	ip, r1, lsl #1
 8000f78:	ea7f 5c6c 	mvns.w	ip, ip, asr #21
 8000f7c:	ea4f 0c43 	mov.w	ip, r3, lsl #1
 8000f80:	bf18      	it	ne
 8000f82:	ea7f 5c6c 	mvnsne.w	ip, ip, asr #21
 8000f86:	d01b      	beq.n	8000fc0 <__cmpdf2+0x54>
 8000f88:	b001      	add	sp, #4
 8000f8a:	ea50 0c41 	orrs.w	ip, r0, r1, lsl #1
 8000f8e:	bf0c      	ite	eq
 8000f90:	ea52 0c43 	orrseq.w	ip, r2, r3, lsl #1
 8000f94:	ea91 0f03 	teqne	r1, r3
 8000f98:	bf02      	ittt	eq
 8000f9a:	ea90 0f02 	teqeq	r0, r2
 8000f9e:	2000      	moveq	r0, #0
 8000fa0:	4770      	bxeq	lr
 8000fa2:	f110 0f00 	cmn.w	r0, #0
 8000fa6:	ea91 0f03 	teq	r1, r3
 8000faa:	bf58      	it	pl
 8000fac:	4299      	cmppl	r1, r3
 8000fae:	bf08      	it	eq
 8000fb0:	4290      	cmpeq	r0, r2
 8000fb2:	bf2c      	ite	cs
 8000fb4:	17d8      	asrcs	r0, r3, #31
 8000fb6:	ea6f 70e3 	mvncc.w	r0, r3, asr #31
 8000fba:	f040 0001 	orr.w	r0, r0, #1
 8000fbe:	4770      	bx	lr
 8000fc0:	ea4f 0c41 	mov.w	ip, r1, lsl #1
 8000fc4:	ea7f 5c6c 	mvns.w	ip, ip, asr #21
 8000fc8:	d102      	bne.n	8000fd0 <__cmpdf2+0x64>
 8000fca:	ea50 3c01 	orrs.w	ip, r0, r1, lsl #12
 8000fce:	d107      	bne.n	8000fe0 <__cmpdf2+0x74>
 8000fd0:	ea4f 0c43 	mov.w	ip, r3, lsl #1
 8000fd4:	ea7f 5c6c 	mvns.w	ip, ip, asr #21
 8000fd8:	d1d6      	bne.n	8000f88 <__cmpdf2+0x1c>
 8000fda:	ea52 3c03 	orrs.w	ip, r2, r3, lsl #12
 8000fde:	d0d3      	beq.n	8000f88 <__cmpdf2+0x1c>
 8000fe0:	f85d 0b04 	ldr.w	r0, [sp], #4
 8000fe4:	4770      	bx	lr
 8000fe6:	bf00      	nop

08000fe8 <__aeabi_cdrcmple>:
 8000fe8:	4684      	mov	ip, r0
 8000fea:	4610      	mov	r0, r2
 8000fec:	4662      	mov	r2, ip
 8000fee:	468c      	mov	ip, r1
 8000ff0:	4619      	mov	r1, r3
 8000ff2:	4663      	mov	r3, ip
 8000ff4:	e000      	b.n	8000ff8 <__aeabi_cdcmpeq>
 8000ff6:	bf00      	nop

08000ff8 <__aeabi_cdcmpeq>:
 8000ff8:	b501      	push	{r0, lr}
 8000ffa:	f7ff ffb7 	bl	8000f6c <__cmpdf2>
 8000ffe:	2800      	cmp	r0, #0
 8001000:	bf48      	it	mi
 8001002:	f110 0f00 	cmnmi.w	r0, #0
 8001006:	bd01      	pop	{r0, pc}

08001008 <__aeabi_dcmpeq>:
 8001008:	f84d ed08 	str.w	lr, [sp, #-8]!
 800100c:	f7ff fff4 	bl	8000ff8 <__aeabi_cdcmpeq>
 8001010:	bf0c      	ite	eq
 8001012:	2001      	moveq	r0, #1
 8001014:	2000      	movne	r0, #0
 8001016:	f85d fb08 	ldr.w	pc, [sp], #8
 800101a:	bf00      	nop

0800101c <__aeabi_dcmplt>:
 800101c:	f84d ed08 	str.w	lr, [sp, #-8]!
 8001020:	f7ff ffea 	bl	8000ff8 <__aeabi_cdcmpeq>
 8001024:	bf34      	ite	cc
 8001026:	2001      	movcc	r0, #1
 8001028:	2000      	movcs	r0, #0
 800102a:	f85d fb08 	ldr.w	pc, [sp], #8
 800102e:	bf00      	nop

08001030 <__aeabi_dcmple>:
 8001030:	f84d ed08 	str.w	lr, [sp, #-8]!
 8001034:	f7ff ffe0 	bl	8000ff8 <__aeabi_cdcmpeq>
 8001038:	bf94      	ite	ls
 800103a:	2001      	movls	r0, #1
 800103c:	2000      	movhi	r0, #0
 800103e:	f85d fb08 	ldr.w	pc, [sp], #8
 8001042:	bf00      	nop

08001044 <__aeabi_dcmpge>:
 8001044:	f84d ed08 	str.w	lr, [sp, #-8]!
 8001048:	f7ff ffce 	bl	8000fe8 <__aeabi_cdrcmple>
 800104c:	bf94      	ite	ls
 800104e:	2001      	movls	r0, #1
 8001050:	2000      	movhi	r0, #0
 8001052:	f85d fb08 	ldr.w	pc, [sp], #8
 8001056:	bf00      	nop

08001058 <__aeabi_dcmpgt>:
 8001058:	f84d ed08 	str.w	lr, [sp, #-8]!
 800105c:	f7ff ffc4 	bl	8000fe8 <__aeabi_cdrcmple>
 8001060:	bf34      	ite	cc
 8001062:	2001      	movcc	r0, #1
 8001064:	2000      	movcs	r0, #0
 8001066:	f85d fb08 	ldr.w	pc, [sp], #8
 800106a:	bf00      	nop

0800106c <__aeabi_dcmpun>:
 800106c:	ea4f 0c41 	mov.w	ip, r1, lsl #1
 8001070:	ea7f 5c6c 	mvns.w	ip, ip, asr #21
 8001074:	d102      	bne.n	800107c <__aeabi_dcmpun+0x10>
 8001076:	ea50 3c01 	orrs.w	ip, r0, r1, lsl #12
 800107a:	d10a      	bne.n	8001092 <__aeabi_dcmpun+0x26>
 800107c:	ea4f 0c43 	mov.w	ip, r3, lsl #1
 8001080:	ea7f 5c6c 	mvns.w	ip, ip, asr #21
 8001084:	d102      	bne.n	800108c <__aeabi_dcmpun+0x20>
 8001086:	ea52 3c03 	orrs.w	ip, r2, r3, lsl #12
 800108a:	d102      	bne.n	8001092 <__aeabi_dcmpun+0x26>
 800108c:	f04f 0000 	mov.w	r0, #0
 8001090:	4770      	bx	lr
 8001092:	f04f 0001 	mov.w	r0, #1
 8001096:	4770      	bx	lr

08001098 <__aeabi_d2iz>:
 8001098:	ea4f 0241 	mov.w	r2, r1, lsl #1
 800109c:	f512 1200 	adds.w	r2, r2, #2097152	; 0x200000
 80010a0:	d215      	bcs.n	80010ce <__aeabi_d2iz+0x36>
 80010a2:	d511      	bpl.n	80010c8 <__aeabi_d2iz+0x30>
 80010a4:	f46f 7378 	mvn.w	r3, #992	; 0x3e0
 80010a8:	ebb3 5262 	subs.w	r2, r3, r2, asr #21
 80010ac:	d912      	bls.n	80010d4 <__aeabi_d2iz+0x3c>
 80010ae:	ea4f 23c1 	mov.w	r3, r1, lsl #11
 80010b2:	f043 4300 	orr.w	r3, r3, #2147483648	; 0x80000000
 80010b6:	ea43 5350 	orr.w	r3, r3, r0, lsr #21
 80010ba:	f011 4f00 	tst.w	r1, #2147483648	; 0x80000000
 80010be:	fa23 f002 	lsr.w	r0, r3, r2
 80010c2:	bf18      	it	ne
 80010c4:	4240      	negne	r0, r0
 80010c6:	4770      	bx	lr
 80010c8:	f04f 0000 	mov.w	r0, #0
 80010cc:	4770      	bx	lr
 80010ce:	ea50 3001 	orrs.w	r0, r0, r1, lsl #12
 80010d2:	d105      	bne.n	80010e0 <__aeabi_d2iz+0x48>
 80010d4:	f011 4000 	ands.w	r0, r1, #2147483648	; 0x80000000
 80010d8:	bf08      	it	eq
 80010da:	f06f 4000 	mvneq.w	r0, #2147483648	; 0x80000000
 80010de:	4770      	bx	lr
 80010e0:	f04f 0000 	mov.w	r0, #0
 80010e4:	4770      	bx	lr
 80010e6:	bf00      	nop

080010e8 <HAL_Init>:
 80010e8:	b580      	push	{r7, lr}
 80010ea:	466f      	mov	r7, sp
 80010ec:	2003      	movs	r0, #3
 80010ee:	f000 f819 	bl	8001124 <HAL_NVIC_SetPriorityGrouping>
 80010f2:	200f      	movs	r0, #15
 80010f4:	f000 fb84 	bl	8001800 <HAL_InitTick>
 80010f8:	2800      	cmp	r0, #0
 80010fa:	bf1c      	itt	ne
 80010fc:	2001      	movne	r0, #1
 80010fe:	bd80      	popne	{r7, pc}
 8001100:	f000 f94b 	bl	800139a <HAL_MspInit>
 8001104:	2000      	movs	r0, #0
 8001106:	bd80      	pop	{r7, pc}

08001108 <HAL_IncTick>:
 8001108:	f640 20b0 	movw	r0, #2736	; 0xab0
 800110c:	f2c2 0000 	movt	r0, #8192	; 0x2000
 8001110:	6801      	ldr	r1, [r0, #0]
 8001112:	3101      	adds	r1, #1
 8001114:	6001      	str	r1, [r0, #0]
 8001116:	4770      	bx	lr

08001118 <HAL_GetTick>:
 8001118:	f640 20b0 	movw	r0, #2736	; 0xab0
 800111c:	f2c2 0000 	movt	r0, #8192	; 0x2000
 8001120:	6800      	ldr	r0, [r0, #0]
 8001122:	4770      	bx	lr

08001124 <HAL_NVIC_SetPriorityGrouping>:
 8001124:	f64e 510c 	movw	r1, #60684	; 0xed0c
 8001128:	f64f 03ff 	movw	r3, #63743	; 0xf8ff
 800112c:	f2ce 0100 	movt	r1, #57344	; 0xe000
 8001130:	680a      	ldr	r2, [r1, #0]
 8001132:	401a      	ands	r2, r3
 8001134:	f360 220a 	bfi	r2, r0, #8, #3
 8001138:	f042 6080 	orr.w	r0, r2, #67108864	; 0x4000000
 800113c:	f040 70fd 	orr.w	r0, r0, #33161216	; 0x1fa0000
 8001140:	6008      	str	r0, [r1, #0]
 8001142:	4770      	bx	lr

08001144 <HAL_NVIC_SetPriority>:
 8001144:	b580      	push	{r7, lr}
 8001146:	466f      	mov	r7, sp
 8001148:	f100 4360 	add.w	r3, r0, #3758096384	; 0xe0000000
 800114c:	f64e 5e0c 	movw	lr, #60684	; 0xed0c
 8001150:	2800      	cmp	r0, #0
 8001152:	f503 4c64 	add.w	ip, r3, #58368	; 0xe400
 8001156:	f000 030f 	and.w	r3, r0, #15
 800115a:	f2ce 0e00 	movt	lr, #57344	; 0xe000
 800115e:	f1a3 0304 	sub.w	r3, r3, #4
 8001162:	4473      	add	r3, lr
 8001164:	bfb8      	it	lt
 8001166:	f103 0c0c 	addlt.w	ip, r3, #12
 800116a:	f8de 0000 	ldr.w	r0, [lr]
 800116e:	f3c0 2002 	ubfx	r0, r0, #8, #3
 8001172:	f100 0e04 	add.w	lr, r0, #4
 8001176:	1ec3      	subs	r3, r0, #3
 8001178:	f080 0007 	eor.w	r0, r0, #7
 800117c:	f1be 0f07 	cmp.w	lr, #7
 8001180:	f04f 0e01 	mov.w	lr, #1
 8001184:	bf38      	it	cc
 8001186:	2300      	movcc	r3, #0
 8001188:	2804      	cmp	r0, #4
 800118a:	bf28      	it	cs
 800118c:	2004      	movcs	r0, #4
 800118e:	fa0e f000 	lsl.w	r0, lr, r0
 8001192:	3801      	subs	r0, #1
 8001194:	4008      	ands	r0, r1
 8001196:	fa0e f103 	lsl.w	r1, lr, r3
 800119a:	310f      	adds	r1, #15
 800119c:	4098      	lsls	r0, r3
 800119e:	4011      	ands	r1, r2
 80011a0:	4308      	orrs	r0, r1
 80011a2:	0100      	lsls	r0, r0, #4
 80011a4:	f88c 0000 	strb.w	r0, [ip]
 80011a8:	bd80      	pop	{r7, pc}

080011aa <HAL_NVIC_EnableIRQ>:
 80011aa:	f000 011f 	and.w	r1, r0, #31
 80011ae:	2201      	movs	r2, #1
 80011b0:	0940      	lsrs	r0, r0, #5
 80011b2:	fa02 f101 	lsl.w	r1, r2, r1
 80011b6:	f24e 1200 	movw	r2, #57600	; 0xe100
 80011ba:	f2ce 0200 	movt	r2, #57344	; 0xe000
 80011be:	f842 1020 	str.w	r1, [r2, r0, lsl #2]
 80011c2:	4770      	bx	lr

080011c4 <HAL_SYSTICK_IRQHandler>:
 80011c4:	f000 b800 	b.w	80011c8 <HAL_SYSTICK_Callback>

080011c8 <HAL_SYSTICK_Callback>:
 80011c8:	4770      	bx	lr

080011ca <HAL_GPIO_Init>:
 80011ca:	b5f0      	push	{r4, r5, r6, r7, lr}
 80011cc:	af03      	add	r7, sp, #12
 80011ce:	e92d 0f00 	stmdb	sp!, {r8, r9, sl, fp}
 80011d2:	b082      	sub	sp, #8
 80011d4:	680e      	ldr	r6, [r1, #0]
 80011d6:	2e00      	cmp	r6, #0
 80011d8:	f000 80db 	beq.w	8001392 <HAL_GPIO_Init+0x1c8>
 80011dc:	f641 0200 	movw	r2, #6144	; 0x1800
 80011e0:	2507      	movs	r5, #7
 80011e2:	f04f 0801 	mov.w	r8, #1
 80011e6:	f6c4 0200 	movt	r2, #18432	; 0x4800
 80011ea:	4290      	cmp	r0, r2
 80011ec:	f100 4238 	add.w	r2, r0, #3087007744	; 0xb8000000
 80011f0:	ea4f 23b2 	mov.w	r3, r2, ror #10
 80011f4:	bf08      	it	eq
 80011f6:	2506      	moveq	r5, #6
 80011f8:	2b06      	cmp	r3, #6
 80011fa:	bf38      	it	cc
 80011fc:	ea4f 25b2 	movcc.w	r5, r2, ror #10
 8001200:	2200      	movs	r2, #0
 8001202:	9500      	str	r5, [sp, #0]
 8001204:	2500      	movs	r5, #0
 8001206:	f1a8 0a01 	sub.w	sl, r8, #1
 800120a:	2301      	movs	r3, #1
 800120c:	fa03 fb0a 	lsl.w	fp, r3, sl
 8001210:	ea16 090b 	ands.w	r9, r6, fp
 8001214:	f000 80b4 	beq.w	8001380 <HAL_GPIO_Init+0x1b6>
 8001218:	f8d1 e004 	ldr.w	lr, [r1, #4]
 800121c:	f04e 0610 	orr.w	r6, lr, #16
 8001220:	2e12      	cmp	r6, #18
 8001222:	d115      	bne.n	8001250 <HAL_GPIO_Init+0x86>
 8001224:	f005 061c 	and.w	r6, r5, #28
 8001228:	230f      	movs	r3, #15
 800122a:	fa03 fc06 	lsl.w	ip, r3, r6
 800122e:	f64f 73fc 	movw	r3, #65532	; 0xfffc
 8001232:	f6c7 73ff 	movt	r3, #32767	; 0x7fff
 8001236:	ea03 045a 	and.w	r4, r3, sl, lsr #1
 800123a:	4404      	add	r4, r0
 800123c:	6a23      	ldr	r3, [r4, #32]
 800123e:	ea23 0c0c 	bic.w	ip, r3, ip
 8001242:	690b      	ldr	r3, [r1, #16]
 8001244:	40b3      	lsls	r3, r6
 8001246:	ea43 030c 	orr.w	r3, r3, ip
 800124a:	6223      	str	r3, [r4, #32]
 800124c:	f8d1 e004 	ldr.w	lr, [r1, #4]
 8001250:	6806      	ldr	r6, [r0, #0]
 8001252:	2403      	movs	r4, #3
 8001254:	f00e 0c03 	and.w	ip, lr, #3
 8001258:	f1be 0f12 	cmp.w	lr, #18
 800125c:	fa04 f402 	lsl.w	r4, r4, r2
 8001260:	fa0c f302 	lsl.w	r3, ip, r2
 8001264:	ea26 0604 	bic.w	r6, r6, r4
 8001268:	ea43 0306 	orr.w	r3, r3, r6
 800126c:	ea6f 0604 	mvn.w	r6, r4
 8001270:	6003      	str	r3, [r0, #0]
 8001272:	d816      	bhi.n	80012a2 <HAL_GPIO_Init+0xd8>
 8001274:	2301      	movs	r3, #1
 8001276:	fa03 f30e 	lsl.w	r3, r3, lr
 800127a:	f013 1f06 	tst.w	r3, #393222	; 0x60006
 800127e:	bf1f      	itttt	ne
 8001280:	6883      	ldrne	r3, [r0, #8]
 8001282:	4033      	andne	r3, r6
 8001284:	68cc      	ldrne	r4, [r1, #12]
 8001286:	4094      	lslne	r4, r2
 8001288:	bf1f      	itttt	ne
 800128a:	4323      	orrne	r3, r4
 800128c:	6083      	strne	r3, [r0, #8]
 800128e:	f3ce 1300 	ubfxne	r3, lr, #4, #1
 8001292:	fa03 f30a 	lslne.w	r3, r3, sl
 8001296:	bf1f      	itttt	ne
 8001298:	6844      	ldrne	r4, [r0, #4]
 800129a:	ea24 040b 	bicne.w	r4, r4, fp
 800129e:	4323      	orrne	r3, r4
 80012a0:	6043      	strne	r3, [r0, #4]
 80012a2:	f1bc 0f03 	cmp.w	ip, #3
 80012a6:	d108      	bne.n	80012ba <HAL_GPIO_Init+0xf0>
 80012a8:	f3ce 03c0 	ubfx	r3, lr, #3, #1
 80012ac:	6ac4      	ldr	r4, [r0, #44]	; 0x2c
 80012ae:	fa03 f30a 	lsl.w	r3, r3, sl
 80012b2:	ea24 040b 	bic.w	r4, r4, fp
 80012b6:	4323      	orrs	r3, r4
 80012b8:	62c3      	str	r3, [r0, #44]	; 0x2c
 80012ba:	68c3      	ldr	r3, [r0, #12]
 80012bc:	4033      	ands	r3, r6
 80012be:	688e      	ldr	r6, [r1, #8]
 80012c0:	4096      	lsls	r6, r2
 80012c2:	4333      	orrs	r3, r6
 80012c4:	60c3      	str	r3, [r0, #12]
 80012c6:	ea5f 03ce 	movs.w	r3, lr, lsl #3
 80012ca:	d559      	bpl.n	8001380 <HAL_GPIO_Init+0x1b6>
 80012cc:	f241 0360 	movw	r3, #4192	; 0x1060
 80012d0:	f005 040c 	and.w	r4, r5, #12
 80012d4:	f2c4 0302 	movt	r3, #16386	; 0x4002
 80012d8:	461e      	mov	r6, r3
 80012da:	6833      	ldr	r3, [r6, #0]
 80012dc:	f043 0301 	orr.w	r3, r3, #1
 80012e0:	6033      	str	r3, [r6, #0]
 80012e2:	6833      	ldr	r3, [r6, #0]
 80012e4:	f240 4600 	movw	r6, #1024	; 0x400
 80012e8:	f2c4 0601 	movt	r6, #16385	; 0x4001
 80012ec:	46b6      	mov	lr, r6
 80012ee:	f003 0301 	and.w	r3, r3, #1
 80012f2:	9301      	str	r3, [sp, #4]
 80012f4:	f02a 0303 	bic.w	r3, sl, #3
 80012f8:	9e01      	ldr	r6, [sp, #4]
 80012fa:	4473      	add	r3, lr
 80012fc:	f64f 4608 	movw	r6, #64520	; 0xfc08
 8001300:	f6cf 76ff 	movt	r6, #65535	; 0xffff
 8001304:	46b2      	mov	sl, r6
 8001306:	260f      	movs	r6, #15
 8001308:	f853 c00a 	ldr.w	ip, [r3, sl]
 800130c:	40a6      	lsls	r6, r4
 800130e:	ea2c 0c06 	bic.w	ip, ip, r6
 8001312:	9e00      	ldr	r6, [sp, #0]
 8001314:	fa06 f404 	lsl.w	r4, r6, r4
 8001318:	ea4c 0604 	orr.w	r6, ip, r4
 800131c:	f843 600a 	str.w	r6, [r3, sl]
 8001320:	f8de 3000 	ldr.w	r3, [lr]
 8001324:	684e      	ldr	r6, [r1, #4]
 8001326:	ea23 0309 	bic.w	r3, r3, r9
 800132a:	f416 3f80 	tst.w	r6, #65536	; 0x10000
 800132e:	bf18      	it	ne
 8001330:	ea43 0309 	orrne.w	r3, r3, r9
 8001334:	f416 3f00 	tst.w	r6, #131072	; 0x20000
 8001338:	f8ce 3000 	str.w	r3, [lr]
 800133c:	f8de 3004 	ldr.w	r3, [lr, #4]
 8001340:	ea23 0309 	bic.w	r3, r3, r9
 8001344:	bf18      	it	ne
 8001346:	ea43 0309 	orrne.w	r3, r3, r9
 800134a:	f416 1f80 	tst.w	r6, #1048576	; 0x100000
 800134e:	f8ce 3004 	str.w	r3, [lr, #4]
 8001352:	f8de 3008 	ldr.w	r3, [lr, #8]
 8001356:	ea23 0309 	bic.w	r3, r3, r9
 800135a:	bf18      	it	ne
 800135c:	ea43 0309 	orrne.w	r3, r3, r9
 8001360:	f416 1f00 	tst.w	r6, #2097152	; 0x200000
 8001364:	f8ce 3008 	str.w	r3, [lr, #8]
 8001368:	f240 430c 	movw	r3, #1036	; 0x40c
 800136c:	f2c4 0301 	movt	r3, #16385	; 0x4001
 8001370:	461c      	mov	r4, r3
 8001372:	6823      	ldr	r3, [r4, #0]
 8001374:	ea23 0309 	bic.w	r3, r3, r9
 8001378:	bf18      	it	ne
 800137a:	ea43 0309 	orrne.w	r3, r3, r9
 800137e:	6023      	str	r3, [r4, #0]
 8001380:	680e      	ldr	r6, [r1, #0]
 8001382:	3202      	adds	r2, #2
 8001384:	3504      	adds	r5, #4
 8001386:	fa36 f308 	lsrs.w	r3, r6, r8
 800138a:	f108 0801 	add.w	r8, r8, #1
 800138e:	f47f af3a 	bne.w	8001206 <HAL_GPIO_Init+0x3c>
 8001392:	b002      	add	sp, #8
 8001394:	e8bd 0f00 	ldmia.w	sp!, {r8, r9, sl, fp}
 8001398:	bdf0      	pop	{r4, r5, r6, r7, pc}

0800139a <HAL_MspInit>:
 800139a:	4770      	bx	lr

0800139c <HAL_RCC_GetSysClockFreq>:
 800139c:	b580      	push	{r7, lr}
 800139e:	466f      	mov	r7, sp
 80013a0:	f241 010c 	movw	r1, #4108	; 0x100c
 80013a4:	f241 2e00 	movw	lr, #4608	; 0x1200
 80013a8:	f242 4c00 	movw	ip, #9216	; 0x2400
 80013ac:	f2c4 0102 	movt	r1, #16386	; 0x4002
 80013b0:	f2c0 0e7a 	movt	lr, #122	; 0x7a
 80013b4:	f2c0 0cf4 	movt	ip, #244	; 0xf4
 80013b8:	f851 2c04 	ldr.w	r2, [r1, #-4]
 80013bc:	6808      	ldr	r0, [r1, #0]
 80013be:	f012 030c 	ands.w	r3, r2, #12
 80013c2:	d005      	beq.n	80013d0 <HAL_RCC_GetSysClockFreq+0x34>
 80013c4:	2b0c      	cmp	r3, #12
 80013c6:	bf04      	itt	eq
 80013c8:	f000 0003 	andeq.w	r0, r0, #3
 80013cc:	2801      	cmpeq	r0, #1
 80013ce:	d118      	bne.n	8001402 <HAL_RCC_GetSysClockFreq+0x66>
 80013d0:	f851 0c0c 	ldr.w	r0, [r1, #-12]
 80013d4:	f010 0f08 	tst.w	r0, #8
 80013d8:	d103      	bne.n	80013e2 <HAL_RCC_GetSysClockFreq+0x46>
 80013da:	f8d1 0088 	ldr.w	r0, [r1, #136]	; 0x88
 80013de:	0a00      	lsrs	r0, r0, #8
 80013e0:	e002      	b.n	80013e8 <HAL_RCC_GetSysClockFreq+0x4c>
 80013e2:	f851 0c0c 	ldr.w	r0, [r1, #-12]
 80013e6:	0900      	lsrs	r0, r0, #4
 80013e8:	f24a 52e0 	movw	r2, #42464	; 0xa5e0
 80013ec:	f000 000f 	and.w	r0, r0, #15
 80013f0:	2b00      	cmp	r3, #0
 80013f2:	f6c0 0200 	movt	r2, #2048	; 0x800
 80013f6:	f852 2020 	ldr.w	r2, [r2, r0, lsl #2]
 80013fa:	4610      	mov	r0, r2
 80013fc:	bf18      	it	ne
 80013fe:	2000      	movne	r0, #0
 8001400:	e00b      	b.n	800141a <HAL_RCC_GetSysClockFreq+0x7e>
 8001402:	f003 000f 	and.w	r0, r3, #15
 8001406:	2804      	cmp	r0, #4
 8001408:	bf04      	itt	eq
 800140a:	4660      	moveq	r0, ip
 800140c:	bd80      	popeq	{r7, pc}
 800140e:	2808      	cmp	r0, #8
 8001410:	bf04      	itt	eq
 8001412:	4670      	moveq	r0, lr
 8001414:	bd80      	popeq	{r7, pc}
 8001416:	2000      	movs	r0, #0
 8001418:	2200      	movs	r2, #0
 800141a:	2b0c      	cmp	r3, #12
 800141c:	bf18      	it	ne
 800141e:	bd80      	popne	{r7, pc}
 8001420:	6808      	ldr	r0, [r1, #0]
 8001422:	f000 0303 	and.w	r3, r0, #3
 8001426:	6808      	ldr	r0, [r1, #0]
 8001428:	2b03      	cmp	r3, #3
 800142a:	f3c0 1002 	ubfx	r0, r0, #4, #3
 800142e:	f100 0001 	add.w	r0, r0, #1
 8001432:	d003      	beq.n	800143c <HAL_RCC_GetSysClockFreq+0xa0>
 8001434:	2b02      	cmp	r3, #2
 8001436:	46e6      	mov	lr, ip
 8001438:	bf18      	it	ne
 800143a:	4696      	movne	lr, r2
 800143c:	680a      	ldr	r2, [r1, #0]
 800143e:	fbbe f0f0 	udiv	r0, lr, r0
 8001442:	f3c2 2206 	ubfx	r2, r2, #8, #7
 8001446:	6809      	ldr	r1, [r1, #0]
 8001448:	4350      	muls	r0, r2
 800144a:	2202      	movs	r2, #2
 800144c:	f3c1 6141 	ubfx	r1, r1, #25, #2
 8001450:	eb02 0141 	add.w	r1, r2, r1, lsl #1
 8001454:	fbb0 f0f1 	udiv	r0, r0, r1
 8001458:	bd80      	pop	{r7, pc}

0800145a <HAL_RCC_GetPCLK1Freq>:
 800145a:	f240 0014 	movw	r0, #20
 800145e:	f241 0108 	movw	r1, #4104	; 0x1008
 8001462:	f24a 52d8 	movw	r2, #42456	; 0xa5d8
 8001466:	f2c2 0000 	movt	r0, #8192	; 0x2000
 800146a:	f2c4 0102 	movt	r1, #16386	; 0x4002
 800146e:	f6c0 0200 	movt	r2, #2048	; 0x800
 8001472:	6800      	ldr	r0, [r0, #0]
 8001474:	6809      	ldr	r1, [r1, #0]
 8001476:	f3c1 2102 	ubfx	r1, r1, #8, #3
 800147a:	5c51      	ldrb	r1, [r2, r1]
 800147c:	f001 011f 	and.w	r1, r1, #31
 8001480:	40c8      	lsrs	r0, r1
 8001482:	4770      	bx	lr

08001484 <HAL_RCC_GetPCLK2Freq>:
 8001484:	f240 0014 	movw	r0, #20
 8001488:	f241 0108 	movw	r1, #4104	; 0x1008
 800148c:	f24a 52d8 	movw	r2, #42456	; 0xa5d8
 8001490:	f2c2 0000 	movt	r0, #8192	; 0x2000
 8001494:	f2c4 0102 	movt	r1, #16386	; 0x4002
 8001498:	f6c0 0200 	movt	r2, #2048	; 0x800
 800149c:	6800      	ldr	r0, [r0, #0]
 800149e:	6809      	ldr	r1, [r1, #0]
 80014a0:	f3c1 21c2 	ubfx	r1, r1, #11, #3
 80014a4:	5c51      	ldrb	r1, [r2, r1]
 80014a6:	f001 011f 	and.w	r1, r1, #31
 80014aa:	40c8      	lsrs	r0, r1
 80014ac:	4770      	bx	lr

080014ae <HAL_RCC_GetClockConfig>:
 80014ae:	220f      	movs	r2, #15
 80014b0:	6002      	str	r2, [r0, #0]
 80014b2:	f241 0208 	movw	r2, #4104	; 0x1008
 80014b6:	f2c4 0202 	movt	r2, #16386	; 0x4002
 80014ba:	6813      	ldr	r3, [r2, #0]
 80014bc:	f003 0303 	and.w	r3, r3, #3
 80014c0:	6043      	str	r3, [r0, #4]
 80014c2:	6813      	ldr	r3, [r2, #0]
 80014c4:	f003 03f0 	and.w	r3, r3, #240	; 0xf0
 80014c8:	6083      	str	r3, [r0, #8]
 80014ca:	6813      	ldr	r3, [r2, #0]
 80014cc:	f403 63e0 	and.w	r3, r3, #1792	; 0x700
 80014d0:	60c3      	str	r3, [r0, #12]
 80014d2:	f44f 63e0 	mov.w	r3, #1792	; 0x700
 80014d6:	6812      	ldr	r2, [r2, #0]
 80014d8:	ea03 02d2 	and.w	r2, r3, r2, lsr #3
 80014dc:	6102      	str	r2, [r0, #16]
 80014de:	f242 0000 	movw	r0, #8192	; 0x2000
 80014e2:	f2c4 0002 	movt	r0, #16386	; 0x4002
 80014e6:	6800      	ldr	r0, [r0, #0]
 80014e8:	f000 0007 	and.w	r0, r0, #7
 80014ec:	6008      	str	r0, [r1, #0]
 80014ee:	4770      	bx	lr

080014f0 <HAL_TIM_Base_Init>:
 80014f0:	b5d0      	push	{r4, r6, r7, lr}
 80014f2:	af02      	add	r7, sp, #8
 80014f4:	4604      	mov	r4, r0
 80014f6:	2c00      	cmp	r4, #0
 80014f8:	bf04      	itt	eq
 80014fa:	2001      	moveq	r0, #1
 80014fc:	bdd0      	popeq	{r4, r6, r7, pc}
 80014fe:	6c20      	ldr	r0, [r4, #64]	; 0x40
 8001500:	b920      	cbnz	r0, 800150c <HAL_TIM_Base_Init+0x1c>
 8001502:	2000      	movs	r0, #0
 8001504:	63e0      	str	r0, [r4, #60]	; 0x3c
 8001506:	4620      	mov	r0, r4
 8001508:	f000 f892 	bl	8001630 <HAL_TIM_Base_MspInit>
 800150c:	2002      	movs	r0, #2
 800150e:	f640 32ff 	movw	r2, #3071	; 0xbff
 8001512:	6420      	str	r0, [r4, #64]	; 0x40
 8001514:	f2c4 0200 	movt	r2, #16384	; 0x4000
 8001518:	6820      	ldr	r0, [r4, #0]
 800151a:	6801      	ldr	r1, [r0, #0]
 800151c:	4290      	cmp	r0, r2
 800151e:	dc0f      	bgt.n	8001540 <HAL_TIM_Base_Init+0x50>
 8001520:	f1b0 4f80 	cmp.w	r0, #1073741824	; 0x40000000
 8001524:	bf1e      	ittt	ne
 8001526:	f240 4200 	movwne	r2, #1024	; 0x400
 800152a:	f2c4 0200 	movtne	r2, #16384	; 0x4000
 800152e:	4290      	cmpne	r0, r2
 8001530:	d018      	beq.n	8001564 <HAL_TIM_Base_Init+0x74>
 8001532:	f640 0200 	movw	r2, #2048	; 0x800
 8001536:	f2c4 0200 	movt	r2, #16384	; 0x4000
 800153a:	4290      	cmp	r0, r2
 800153c:	d012      	beq.n	8001564 <HAL_TIM_Base_Init+0x74>
 800153e:	e015      	b.n	800156c <HAL_TIM_Base_Init+0x7c>
 8001540:	f640 4200 	movw	r2, #3072	; 0xc00
 8001544:	f2c4 0200 	movt	r2, #16384	; 0x4000
 8001548:	4290      	cmp	r0, r2
 800154a:	bf1e      	ittt	ne
 800154c:	f243 4200 	movwne	r2, #13312	; 0x3400
 8001550:	f2c4 0201 	movtne	r2, #16385	; 0x4001
 8001554:	4290      	cmpne	r0, r2
 8001556:	d005      	beq.n	8001564 <HAL_TIM_Base_Init+0x74>
 8001558:	f642 4200 	movw	r2, #11264	; 0x2c00
 800155c:	f2c4 0201 	movt	r2, #16385	; 0x4001
 8001560:	4290      	cmp	r0, r2
 8001562:	d103      	bne.n	800156c <HAL_TIM_Base_Init+0x7c>
 8001564:	68a2      	ldr	r2, [r4, #8]
 8001566:	f021 0170 	bic.w	r1, r1, #112	; 0x70
 800156a:	4311      	orrs	r1, r2
 800156c:	f642 32ff 	movw	r2, #11263	; 0x2bff
 8001570:	f2c4 0201 	movt	r2, #16385	; 0x4001
 8001574:	4290      	cmp	r0, r2
 8001576:	dd14      	ble.n	80015a2 <HAL_TIM_Base_Init+0xb2>
 8001578:	f643 72ff 	movw	r2, #16383	; 0x3fff
 800157c:	f2c4 0201 	movt	r2, #16385	; 0x4001
 8001580:	4290      	cmp	r0, r2
 8001582:	dd1a      	ble.n	80015ba <HAL_TIM_Base_Init+0xca>
 8001584:	f244 0200 	movw	r2, #16384	; 0x4000
 8001588:	f2c4 0201 	movt	r2, #16385	; 0x4001
 800158c:	4290      	cmp	r0, r2
 800158e:	bf1e      	ittt	ne
 8001590:	f644 0200 	movwne	r2, #18432	; 0x4800
 8001594:	f2c4 0201 	movtne	r2, #16385	; 0x4001
 8001598:	4290      	cmpne	r0, r2
 800159a:	d027      	beq.n	80015ec <HAL_TIM_Base_Init+0xfc>
 800159c:	f244 4200 	movw	r2, #17408	; 0x4400
 80015a0:	e013      	b.n	80015ca <HAL_TIM_Base_Init+0xda>
 80015a2:	f240 72ff 	movw	r2, #2047	; 0x7ff
 80015a6:	f2c4 0200 	movt	r2, #16384	; 0x4000
 80015aa:	4290      	cmp	r0, r2
 80015ac:	dc12      	bgt.n	80015d4 <HAL_TIM_Base_Init+0xe4>
 80015ae:	f1b0 4f80 	cmp.w	r0, #1073741824	; 0x40000000
 80015b2:	d01b      	beq.n	80015ec <HAL_TIM_Base_Init+0xfc>
 80015b4:	f240 4200 	movw	r2, #1024	; 0x400
 80015b8:	e014      	b.n	80015e4 <HAL_TIM_Base_Init+0xf4>
 80015ba:	f642 4200 	movw	r2, #11264	; 0x2c00
 80015be:	f2c4 0201 	movt	r2, #16385	; 0x4001
 80015c2:	4290      	cmp	r0, r2
 80015c4:	d012      	beq.n	80015ec <HAL_TIM_Base_Init+0xfc>
 80015c6:	f243 4200 	movw	r2, #13312	; 0x3400
 80015ca:	f2c4 0201 	movt	r2, #16385	; 0x4001
 80015ce:	4290      	cmp	r0, r2
 80015d0:	d00c      	beq.n	80015ec <HAL_TIM_Base_Init+0xfc>
 80015d2:	e00f      	b.n	80015f4 <HAL_TIM_Base_Init+0x104>
 80015d4:	f640 0200 	movw	r2, #2048	; 0x800
 80015d8:	f2c4 0200 	movt	r2, #16384	; 0x4000
 80015dc:	4290      	cmp	r0, r2
 80015de:	d005      	beq.n	80015ec <HAL_TIM_Base_Init+0xfc>
 80015e0:	f640 4200 	movw	r2, #3072	; 0xc00
 80015e4:	f2c4 0200 	movt	r2, #16384	; 0x4000
 80015e8:	4290      	cmp	r0, r2
 80015ea:	d103      	bne.n	80015f4 <HAL_TIM_Base_Init+0x104>
 80015ec:	6922      	ldr	r2, [r4, #16]
 80015ee:	f421 7140 	bic.w	r1, r1, #768	; 0x300
 80015f2:	4311      	orrs	r1, r2
 80015f4:	69a2      	ldr	r2, [r4, #24]
 80015f6:	f021 0180 	bic.w	r1, r1, #128	; 0x80
 80015fa:	4311      	orrs	r1, r2
 80015fc:	6001      	str	r1, [r0, #0]
 80015fe:	68e1      	ldr	r1, [r4, #12]
 8001600:	62c1      	str	r1, [r0, #44]	; 0x2c
 8001602:	6861      	ldr	r1, [r4, #4]
 8001604:	6281      	str	r1, [r0, #40]	; 0x28
 8001606:	f1a0 4180 	sub.w	r1, r0, #1073741824	; 0x40000000
 800160a:	f5a1 3196 	sub.w	r1, r1, #76800	; 0x12c00
 800160e:	ea4f 21b1 	mov.w	r1, r1, ror #10
 8001612:	2907      	cmp	r1, #7
 8001614:	d807      	bhi.n	8001626 <HAL_TIM_Base_Init+0x136>
 8001616:	2201      	movs	r2, #1
 8001618:	fa02 f101 	lsl.w	r1, r2, r1
 800161c:	f011 0fe5 	tst.w	r1, #229	; 0xe5
 8001620:	bf1c      	itt	ne
 8001622:	6961      	ldrne	r1, [r4, #20]
 8001624:	6301      	strne	r1, [r0, #48]	; 0x30
 8001626:	2101      	movs	r1, #1
 8001628:	6141      	str	r1, [r0, #20]
 800162a:	2000      	movs	r0, #0
 800162c:	6421      	str	r1, [r4, #64]	; 0x40
 800162e:	bdd0      	pop	{r4, r6, r7, pc}

08001630 <HAL_TIM_Base_MspInit>:
 8001630:	4770      	bx	lr

08001632 <HAL_TIM_Base_Start_IT>:
 8001632:	6800      	ldr	r0, [r0, #0]
 8001634:	68c1      	ldr	r1, [r0, #12]
 8001636:	f041 0101 	orr.w	r1, r1, #1
 800163a:	60c1      	str	r1, [r0, #12]
 800163c:	2107      	movs	r1, #7
 800163e:	6882      	ldr	r2, [r0, #8]
 8001640:	f2c0 0101 	movt	r1, #1
 8001644:	400a      	ands	r2, r1
 8001646:	2a06      	cmp	r2, #6
 8001648:	d008      	beq.n	800165c <HAL_TIM_Base_Start_IT+0x2a>
 800164a:	6882      	ldr	r2, [r0, #8]
 800164c:	4011      	ands	r1, r2
 800164e:	f5b1 3f80 	cmp.w	r1, #65536	; 0x10000
 8001652:	bf1e      	ittt	ne
 8001654:	6801      	ldrne	r1, [r0, #0]
 8001656:	f041 0101 	orrne.w	r1, r1, #1
 800165a:	6001      	strne	r1, [r0, #0]
 800165c:	2000      	movs	r0, #0
 800165e:	4770      	bx	lr

08001660 <HAL_TIM_IRQHandler>:
 8001660:	b5d0      	push	{r4, r6, r7, lr}
 8001662:	af02      	add	r7, sp, #8
 8001664:	4604      	mov	r4, r0
 8001666:	6820      	ldr	r0, [r4, #0]
 8001668:	6901      	ldr	r1, [r0, #16]
 800166a:	f011 0f02 	tst.w	r1, #2
 800166e:	bf1c      	itt	ne
 8001670:	68c1      	ldrne	r1, [r0, #12]
 8001672:	f011 0f02 	tstne.w	r1, #2
 8001676:	d015      	beq.n	80016a4 <HAL_TIM_IRQHandler+0x44>
 8001678:	f06f 0102 	mvn.w	r1, #2
 800167c:	6101      	str	r1, [r0, #16]
 800167e:	2101      	movs	r1, #1
 8001680:	61e1      	str	r1, [r4, #28]
 8001682:	6980      	ldr	r0, [r0, #24]
 8001684:	f010 0f03 	tst.w	r0, #3
 8001688:	d003      	beq.n	8001692 <HAL_TIM_IRQHandler+0x32>
 800168a:	4620      	mov	r0, r4
 800168c:	f000 f8b1 	bl	80017f2 <HAL_TIM_IC_CaptureCallback>
 8001690:	e005      	b.n	800169e <HAL_TIM_IRQHandler+0x3e>
 8001692:	4620      	mov	r0, r4
 8001694:	f000 f8ae 	bl	80017f4 <HAL_TIM_OC_DelayElapsedCallback>
 8001698:	4620      	mov	r0, r4
 800169a:	f000 f8ac 	bl	80017f6 <HAL_TIM_PWM_PulseFinishedCallback>
 800169e:	2000      	movs	r0, #0
 80016a0:	61e0      	str	r0, [r4, #28]
 80016a2:	6820      	ldr	r0, [r4, #0]
 80016a4:	6901      	ldr	r1, [r0, #16]
 80016a6:	f011 0f04 	tst.w	r1, #4
 80016aa:	bf1c      	itt	ne
 80016ac:	68c1      	ldrne	r1, [r0, #12]
 80016ae:	f011 0f04 	tstne.w	r1, #4
 80016b2:	d015      	beq.n	80016e0 <HAL_TIM_IRQHandler+0x80>
 80016b4:	f06f 0104 	mvn.w	r1, #4
 80016b8:	6101      	str	r1, [r0, #16]
 80016ba:	2102      	movs	r1, #2
 80016bc:	61e1      	str	r1, [r4, #28]
 80016be:	6980      	ldr	r0, [r0, #24]
 80016c0:	f410 7f40 	tst.w	r0, #768	; 0x300
 80016c4:	d003      	beq.n	80016ce <HAL_TIM_IRQHandler+0x6e>
 80016c6:	4620      	mov	r0, r4
 80016c8:	f000 f893 	bl	80017f2 <HAL_TIM_IC_CaptureCallback>
 80016cc:	e005      	b.n	80016da <HAL_TIM_IRQHandler+0x7a>
 80016ce:	4620      	mov	r0, r4
 80016d0:	f000 f890 	bl	80017f4 <HAL_TIM_OC_DelayElapsedCallback>
 80016d4:	4620      	mov	r0, r4
 80016d6:	f000 f88e 	bl	80017f6 <HAL_TIM_PWM_PulseFinishedCallback>
 80016da:	2000      	movs	r0, #0
 80016dc:	61e0      	str	r0, [r4, #28]
 80016de:	6820      	ldr	r0, [r4, #0]
 80016e0:	6901      	ldr	r1, [r0, #16]
 80016e2:	f011 0f08 	tst.w	r1, #8
 80016e6:	bf1c      	itt	ne
 80016e8:	68c1      	ldrne	r1, [r0, #12]
 80016ea:	f011 0f08 	tstne.w	r1, #8
 80016ee:	d015      	beq.n	800171c <HAL_TIM_IRQHandler+0xbc>
 80016f0:	f06f 0108 	mvn.w	r1, #8
 80016f4:	6101      	str	r1, [r0, #16]
 80016f6:	2104      	movs	r1, #4
 80016f8:	61e1      	str	r1, [r4, #28]
 80016fa:	69c0      	ldr	r0, [r0, #28]
 80016fc:	f010 0f03 	tst.w	r0, #3
 8001700:	d003      	beq.n	800170a <HAL_TIM_IRQHandler+0xaa>
 8001702:	4620      	mov	r0, r4
 8001704:	f000 f875 	bl	80017f2 <HAL_TIM_IC_CaptureCallback>
 8001708:	e005      	b.n	8001716 <HAL_TIM_IRQHandler+0xb6>
 800170a:	4620      	mov	r0, r4
 800170c:	f000 f872 	bl	80017f4 <HAL_TIM_OC_DelayElapsedCallback>
 8001710:	4620      	mov	r0, r4
 8001712:	f000 f870 	bl	80017f6 <HAL_TIM_PWM_PulseFinishedCallback>
 8001716:	2000      	movs	r0, #0
 8001718:	61e0      	str	r0, [r4, #28]
 800171a:	6820      	ldr	r0, [r4, #0]
 800171c:	6901      	ldr	r1, [r0, #16]
 800171e:	f011 0f10 	tst.w	r1, #16
 8001722:	bf1c      	itt	ne
 8001724:	68c1      	ldrne	r1, [r0, #12]
 8001726:	f011 0f10 	tstne.w	r1, #16
 800172a:	d015      	beq.n	8001758 <HAL_TIM_IRQHandler+0xf8>
 800172c:	f06f 0110 	mvn.w	r1, #16
 8001730:	6101      	str	r1, [r0, #16]
 8001732:	2108      	movs	r1, #8
 8001734:	61e1      	str	r1, [r4, #28]
 8001736:	69c0      	ldr	r0, [r0, #28]
 8001738:	f410 7f40 	tst.w	r0, #768	; 0x300
 800173c:	d003      	beq.n	8001746 <HAL_TIM_IRQHandler+0xe6>
 800173e:	4620      	mov	r0, r4
 8001740:	f000 f857 	bl	80017f2 <HAL_TIM_IC_CaptureCallback>
 8001744:	e005      	b.n	8001752 <HAL_TIM_IRQHandler+0xf2>
 8001746:	4620      	mov	r0, r4
 8001748:	f000 f854 	bl	80017f4 <HAL_TIM_OC_DelayElapsedCallback>
 800174c:	4620      	mov	r0, r4
 800174e:	f000 f852 	bl	80017f6 <HAL_TIM_PWM_PulseFinishedCallback>
 8001752:	2000      	movs	r0, #0
 8001754:	61e0      	str	r0, [r4, #28]
 8001756:	6820      	ldr	r0, [r4, #0]
 8001758:	6901      	ldr	r1, [r0, #16]
 800175a:	f011 0f01 	tst.w	r1, #1
 800175e:	bf1c      	itt	ne
 8001760:	68c1      	ldrne	r1, [r0, #12]
 8001762:	f011 0f01 	tstne.w	r1, #1
 8001766:	d006      	beq.n	8001776 <HAL_TIM_IRQHandler+0x116>
 8001768:	f06f 0101 	mvn.w	r1, #1
 800176c:	6101      	str	r1, [r0, #16]
 800176e:	4620      	mov	r0, r4
 8001770:	f000 f894 	bl	800189c <HAL_TIM_PeriodElapsedCallback>
 8001774:	6820      	ldr	r0, [r4, #0]
 8001776:	6901      	ldr	r1, [r0, #16]
 8001778:	f011 0f80 	tst.w	r1, #128	; 0x80
 800177c:	bf1c      	itt	ne
 800177e:	68c1      	ldrne	r1, [r0, #12]
 8001780:	f011 0f80 	tstne.w	r1, #128	; 0x80
 8001784:	d006      	beq.n	8001794 <HAL_TIM_IRQHandler+0x134>
 8001786:	f06f 0180 	mvn.w	r1, #128	; 0x80
 800178a:	6101      	str	r1, [r0, #16]
 800178c:	4620      	mov	r0, r4
 800178e:	f000 f835 	bl	80017fc <HAL_TIMEx_BreakCallback>
 8001792:	6820      	ldr	r0, [r4, #0]
 8001794:	6901      	ldr	r1, [r0, #16]
 8001796:	f411 7f80 	tst.w	r1, #256	; 0x100
 800179a:	bf1c      	itt	ne
 800179c:	68c1      	ldrne	r1, [r0, #12]
 800179e:	f011 0f80 	tstne.w	r1, #128	; 0x80
 80017a2:	d006      	beq.n	80017b2 <HAL_TIM_IRQHandler+0x152>
 80017a4:	f46f 7180 	mvn.w	r1, #256	; 0x100
 80017a8:	6101      	str	r1, [r0, #16]
 80017aa:	4620      	mov	r0, r4
 80017ac:	f000 f827 	bl	80017fe <HAL_TIMEx_Break2Callback>
 80017b0:	6820      	ldr	r0, [r4, #0]
 80017b2:	6901      	ldr	r1, [r0, #16]
 80017b4:	f011 0f40 	tst.w	r1, #64	; 0x40
 80017b8:	bf1c      	itt	ne
 80017ba:	68c1      	ldrne	r1, [r0, #12]
 80017bc:	f011 0f40 	tstne.w	r1, #64	; 0x40
 80017c0:	d006      	beq.n	80017d0 <HAL_TIM_IRQHandler+0x170>
 80017c2:	f06f 0140 	mvn.w	r1, #64	; 0x40
 80017c6:	6101      	str	r1, [r0, #16]
 80017c8:	4620      	mov	r0, r4
 80017ca:	f000 f815 	bl	80017f8 <HAL_TIM_TriggerCallback>
 80017ce:	6820      	ldr	r0, [r4, #0]
 80017d0:	6901      	ldr	r1, [r0, #16]
 80017d2:	f011 0f20 	tst.w	r1, #32
 80017d6:	bf1c      	itt	ne
 80017d8:	68c1      	ldrne	r1, [r0, #12]
 80017da:	f011 0f20 	tstne.w	r1, #32
 80017de:	d100      	bne.n	80017e2 <HAL_TIM_IRQHandler+0x182>
 80017e0:	bdd0      	pop	{r4, r6, r7, pc}
 80017e2:	f06f 0120 	mvn.w	r1, #32
 80017e6:	6101      	str	r1, [r0, #16]
 80017e8:	4620      	mov	r0, r4
 80017ea:	e8bd 40d0 	ldmia.w	sp!, {r4, r6, r7, lr}
 80017ee:	f000 b804 	b.w	80017fa <HAL_TIMEx_CommutationCallback>

080017f2 <HAL_TIM_IC_CaptureCallback>:
 80017f2:	4770      	bx	lr

080017f4 <HAL_TIM_OC_DelayElapsedCallback>:
 80017f4:	4770      	bx	lr

080017f6 <HAL_TIM_PWM_PulseFinishedCallback>:
 80017f6:	4770      	bx	lr

080017f8 <HAL_TIM_TriggerCallback>:
 80017f8:	4770      	bx	lr

080017fa <HAL_TIMEx_CommutationCallback>:
 80017fa:	4770      	bx	lr

080017fc <HAL_TIMEx_BreakCallback>:
 80017fc:	4770      	bx	lr

080017fe <HAL_TIMEx_Break2Callback>:
 80017fe:	4770      	bx	lr

08001800 <HAL_InitTick>:
 8001800:	b5b0      	push	{r4, r5, r7, lr}
 8001802:	af02      	add	r7, sp, #8
 8001804:	b086      	sub	sp, #24
 8001806:	4601      	mov	r1, r0
 8001808:	2036      	movs	r0, #54	; 0x36
 800180a:	2200      	movs	r2, #0
 800180c:	2400      	movs	r4, #0
 800180e:	f7ff fc99 	bl	8001144 <HAL_NVIC_SetPriority>
 8001812:	2036      	movs	r0, #54	; 0x36
 8001814:	f7ff fcc9 	bl	80011aa <HAL_NVIC_EnableIRQ>
 8001818:	f241 0058 	movw	r0, #4184	; 0x1058
 800181c:	f2c4 0002 	movt	r0, #16386	; 0x4002
 8001820:	6801      	ldr	r1, [r0, #0]
 8001822:	f041 0110 	orr.w	r1, r1, #16
 8001826:	6001      	str	r1, [r0, #0]
 8001828:	4669      	mov	r1, sp
 800182a:	6800      	ldr	r0, [r0, #0]
 800182c:	f000 0010 	and.w	r0, r0, #16
 8001830:	9001      	str	r0, [sp, #4]
 8001832:	9801      	ldr	r0, [sp, #4]
 8001834:	a801      	add	r0, sp, #4
 8001836:	f7ff fe3a 	bl	80014ae <HAL_RCC_GetClockConfig>
 800183a:	9d04      	ldr	r5, [sp, #16]
 800183c:	f7ff fe0d 	bl	800145a <HAL_RCC_GetPCLK1Freq>
 8001840:	2d00      	cmp	r5, #0
 8001842:	f640 21b4 	movw	r1, #2740	; 0xab4
 8001846:	f241 0200 	movw	r2, #4096	; 0x1000
 800184a:	f240 33e7 	movw	r3, #999	; 0x3e7
 800184e:	bf18      	it	ne
 8001850:	2501      	movne	r5, #1
 8001852:	f2c2 0100 	movt	r1, #8192	; 0x2000
 8001856:	f2c4 0200 	movt	r2, #16384	; 0x4000
 800185a:	40a8      	lsls	r0, r5
 800185c:	f64d 6583 	movw	r5, #56963	; 0xde83
 8001860:	618c      	str	r4, [r1, #24]
 8001862:	f2c4 351b 	movt	r5, #17179	; 0x431b
 8001866:	fba0 0505 	umull	r0, r5, r0, r5
 800186a:	f04f 30ff 	mov.w	r0, #4294967295	; 0xffffffff
 800186e:	eb00 4095 	add.w	r0, r0, r5, lsr #18
 8001872:	e9c1 2000 	strd	r2, r0, [r1]
 8001876:	4608      	mov	r0, r1
 8001878:	e9c1 4302 	strd	r4, r3, [r1, #8]
 800187c:	610c      	str	r4, [r1, #16]
 800187e:	f7ff fe37 	bl	80014f0 <HAL_TIM_Base_Init>
 8001882:	2800      	cmp	r0, #0
 8001884:	bf1e      	ittt	ne
 8001886:	2001      	movne	r0, #1
 8001888:	b006      	addne	sp, #24
 800188a:	bdb0      	popne	{r4, r5, r7, pc}
 800188c:	f640 20b4 	movw	r0, #2740	; 0xab4
 8001890:	f2c2 0000 	movt	r0, #8192	; 0x2000
 8001894:	f7ff fecd 	bl	8001632 <HAL_TIM_Base_Start_IT>
 8001898:	b006      	add	sp, #24
 800189a:	bdb0      	pop	{r4, r5, r7, pc}

0800189c <HAL_TIM_PeriodElapsedCallback>:
 800189c:	f7ff bc34 	b.w	8001108 <HAL_IncTick>

080018a0 <TIM6_DAC_IRQHandler>:
 80018a0:	f640 20b4 	movw	r0, #2740	; 0xab4
 80018a4:	f2c2 0000 	movt	r0, #8192	; 0x2000
 80018a8:	f7ff beda 	b.w	8001660 <HAL_TIM_IRQHandler>

080018ac <HAL_UART_Init>:
 80018ac:	b5d0      	push	{r4, r6, r7, lr}
 80018ae:	af02      	add	r7, sp, #8
 80018b0:	4604      	mov	r4, r0
 80018b2:	b194      	cbz	r4, 80018da <HAL_UART_Init+0x2e>
 80018b4:	6f60      	ldr	r0, [r4, #116]	; 0x74
 80018b6:	b920      	cbnz	r0, 80018c2 <HAL_UART_Init+0x16>
 80018b8:	2000      	movs	r0, #0
 80018ba:	6720      	str	r0, [r4, #112]	; 0x70
 80018bc:	4620      	mov	r0, r4
 80018be:	f000 f826 	bl	800190e <HAL_UART_MspInit>
 80018c2:	2024      	movs	r0, #36	; 0x24
 80018c4:	6760      	str	r0, [r4, #116]	; 0x74
 80018c6:	6820      	ldr	r0, [r4, #0]
 80018c8:	6801      	ldr	r1, [r0, #0]
 80018ca:	f021 0101 	bic.w	r1, r1, #1
 80018ce:	6001      	str	r1, [r0, #0]
 80018d0:	4620      	mov	r0, r4
 80018d2:	f000 f81d 	bl	8001910 <UART_SetConfig>
 80018d6:	2801      	cmp	r0, #1
 80018d8:	d101      	bne.n	80018de <HAL_UART_Init+0x32>
 80018da:	2001      	movs	r0, #1
 80018dc:	bdd0      	pop	{r4, r6, r7, pc}
 80018de:	6a60      	ldr	r0, [r4, #36]	; 0x24
 80018e0:	2800      	cmp	r0, #0
 80018e2:	bf1c      	itt	ne
 80018e4:	4620      	movne	r0, r4
 80018e6:	f000 f944 	blne	8001b72 <UART_AdvFeatureConfig>
 80018ea:	6820      	ldr	r0, [r4, #0]
 80018ec:	6841      	ldr	r1, [r0, #4]
 80018ee:	f421 4190 	bic.w	r1, r1, #18432	; 0x4800
 80018f2:	6041      	str	r1, [r0, #4]
 80018f4:	6881      	ldr	r1, [r0, #8]
 80018f6:	f021 012a 	bic.w	r1, r1, #42	; 0x2a
 80018fa:	6081      	str	r1, [r0, #8]
 80018fc:	6801      	ldr	r1, [r0, #0]
 80018fe:	f041 0101 	orr.w	r1, r1, #1
 8001902:	6001      	str	r1, [r0, #0]
 8001904:	4620      	mov	r0, r4
 8001906:	e8bd 40d0 	ldmia.w	sp!, {r4, r6, r7, lr}
 800190a:	f000 b99d 	b.w	8001c48 <UART_CheckIdleState>

0800190e <HAL_UART_MspInit>:
 800190e:	4770      	bx	lr

08001910 <UART_SetConfig>:
 8001910:	b5b0      	push	{r4, r5, r7, lr}
 8001912:	af02      	add	r7, sp, #8
 8001914:	4604      	mov	r4, r0
 8001916:	f646 15f3 	movw	r5, #27123	; 0x69f3
 800191a:	f248 0e00 	movw	lr, #32768	; 0x8000
 800191e:	f241 0c88 	movw	ip, #4232	; 0x1088
 8001922:	6821      	ldr	r1, [r4, #0]
 8001924:	68a0      	ldr	r0, [r4, #8]
 8001926:	e9d4 2304 	ldrd	r2, r3, [r4, #16]
 800192a:	f6ce 75ff 	movt	r5, #61439	; 0xefff
 800192e:	f2c4 0e00 	movt	lr, #16384	; 0x4000
 8001932:	f2c4 0c02 	movt	ip, #16386	; 0x4002
 8001936:	4310      	orrs	r0, r2
 8001938:	69e2      	ldr	r2, [r4, #28]
 800193a:	4571      	cmp	r1, lr
 800193c:	ea40 0003 	orr.w	r0, r0, r3
 8001940:	680b      	ldr	r3, [r1, #0]
 8001942:	ea40 0002 	orr.w	r0, r0, r2
 8001946:	ea03 0305 	and.w	r3, r3, r5
 800194a:	f04f 0510 	mov.w	r5, #16
 800194e:	ea40 0003 	orr.w	r0, r0, r3
 8001952:	6008      	str	r0, [r1, #0]
 8001954:	6848      	ldr	r0, [r1, #4]
 8001956:	68e3      	ldr	r3, [r4, #12]
 8001958:	f420 5040 	bic.w	r0, r0, #12288	; 0x3000
 800195c:	ea40 0003 	orr.w	r0, r0, r3
 8001960:	6048      	str	r0, [r1, #4]
 8001962:	69a0      	ldr	r0, [r4, #24]
 8001964:	bf1c      	itt	ne
 8001966:	6a23      	ldrne	r3, [r4, #32]
 8001968:	4318      	orrne	r0, r3
 800196a:	688b      	ldr	r3, [r1, #8]
 800196c:	f423 6330 	bic.w	r3, r3, #2816	; 0xb00
 8001970:	4318      	orrs	r0, r3
 8001972:	f644 73ff 	movw	r3, #20479	; 0x4fff
 8001976:	6088      	str	r0, [r1, #8]
 8001978:	f242 4000 	movw	r0, #9216	; 0x2400
 800197c:	f2c4 0300 	movt	r3, #16384	; 0x4000
 8001980:	f2c0 00f4 	movt	r0, #244	; 0xf4
 8001984:	4299      	cmp	r1, r3
 8001986:	dc15      	bgt.n	80019b4 <UART_SetConfig+0xa4>
 8001988:	f244 4300 	movw	r3, #17408	; 0x4400
 800198c:	f2c4 0300 	movt	r3, #16384	; 0x4000
 8001990:	4299      	cmp	r1, r3
 8001992:	d024      	beq.n	80019de <UART_SetConfig+0xce>
 8001994:	f644 0300 	movw	r3, #18432	; 0x4800
 8001998:	f2c4 0300 	movt	r3, #16384	; 0x4000
 800199c:	4299      	cmp	r1, r3
 800199e:	d022      	beq.n	80019e6 <UART_SetConfig+0xd6>
 80019a0:	f644 4300 	movw	r3, #19456	; 0x4c00
 80019a4:	f2c4 0300 	movt	r3, #16384	; 0x4000
 80019a8:	4299      	cmp	r1, r3
 80019aa:	d131      	bne.n	8001a10 <UART_SetConfig+0x100>
 80019ac:	f8dc 3000 	ldr.w	r3, [ip]
 80019b0:	099d      	lsrs	r5, r3, #6
 80019b2:	e023      	b.n	80019fc <UART_SetConfig+0xec>
 80019b4:	f245 0300 	movw	r3, #20480	; 0x5000
 80019b8:	f2c4 0300 	movt	r3, #16384	; 0x4000
 80019bc:	4299      	cmp	r1, r3
 80019be:	d016      	beq.n	80019ee <UART_SetConfig+0xde>
 80019c0:	4571      	cmp	r1, lr
 80019c2:	d018      	beq.n	80019f6 <UART_SetConfig+0xe6>
 80019c4:	f643 0300 	movw	r3, #14336	; 0x3800
 80019c8:	f2c4 0301 	movt	r3, #16385	; 0x4001
 80019cc:	4299      	cmp	r1, r3
 80019ce:	d11f      	bne.n	8001a10 <UART_SetConfig+0x100>
 80019d0:	f8dc 5000 	ldr.w	r5, [ip]
 80019d4:	f24a 6310 	movw	r3, #42512	; 0xa610
 80019d8:	f6c0 0300 	movt	r3, #2048	; 0x800
 80019dc:	e012      	b.n	8001a04 <UART_SetConfig+0xf4>
 80019de:	f8dc 3000 	ldr.w	r3, [ip]
 80019e2:	089d      	lsrs	r5, r3, #2
 80019e4:	e00a      	b.n	80019fc <UART_SetConfig+0xec>
 80019e6:	f8dc 3000 	ldr.w	r3, [ip]
 80019ea:	091d      	lsrs	r5, r3, #4
 80019ec:	e006      	b.n	80019fc <UART_SetConfig+0xec>
 80019ee:	f8dc 3000 	ldr.w	r3, [ip]
 80019f2:	0a1d      	lsrs	r5, r3, #8
 80019f4:	e002      	b.n	80019fc <UART_SetConfig+0xec>
 80019f6:	f8dc 3000 	ldr.w	r3, [ip]
 80019fa:	0a9d      	lsrs	r5, r3, #10
 80019fc:	f24a 6320 	movw	r3, #42528	; 0xa620
 8001a00:	f6c0 0300 	movt	r3, #2048	; 0x800
 8001a04:	f005 0503 	and.w	r5, r5, #3
 8001a08:	f085 0502 	eor.w	r5, r5, #2
 8001a0c:	f853 5025 	ldr.w	r5, [r3, r5, lsl #2]
 8001a10:	4571      	cmp	r1, lr
 8001a12:	d012      	beq.n	8001a3a <UART_SetConfig+0x12a>
 8001a14:	f5b2 4f00 	cmp.w	r2, #32768	; 0x8000
 8001a18:	d11d      	bne.n	8001a56 <UART_SetConfig+0x146>
 8001a1a:	f005 001f 	and.w	r0, r5, #31
 8001a1e:	2101      	movs	r1, #1
 8001a20:	2808      	cmp	r0, #8
 8001a22:	f200 809f 	bhi.w	8001b64 <UART_SetConfig+0x254>
 8001a26:	e8df f000 	tbb	[pc, r0]
 8001a2a:	4005      	.short	0x4005
 8001a2c:	9d499d43 	.word	0x9d499d43
 8001a30:	004f9d9d 	.word	0x004f9d9d
 8001a34:	f7ff fd11 	bl	800145a <HAL_RCC_GetPCLK1Freq>
 8001a38:	e042      	b.n	8001ac0 <UART_SetConfig+0x1b0>
 8001a3a:	ea4f 0575 	mov.w	r5, r5, ror #1
 8001a3e:	2101      	movs	r1, #1
 8001a40:	2d04      	cmp	r5, #4
 8001a42:	f200 808f 	bhi.w	8001b64 <UART_SetConfig+0x254>
 8001a46:	e8df f005 	tbb	[pc, r5]
 8001a4a:	1c03      	.short	0x1c03
 8001a4c:	001a8d16 	.word	0x001a8d16
 8001a50:	f7ff fd03 	bl	800145a <HAL_RCC_GetPCLK1Freq>
 8001a54:	e011      	b.n	8001a7a <UART_SetConfig+0x16a>
 8001a56:	f005 021f 	and.w	r2, r5, #31
 8001a5a:	2101      	movs	r1, #1
 8001a5c:	2a08      	cmp	r2, #8
 8001a5e:	f200 8081 	bhi.w	8001b64 <UART_SetConfig+0x254>
 8001a62:	e8df f002 	tbb	[pc, r2]
 8001a66:	4305      	.short	0x4305
 8001a68:	7f487f46 	.word	0x7f487f46
 8001a6c:	004e7f7f 	.word	0x004e7f7f
 8001a70:	f7ff fcf3 	bl	800145a <HAL_RCC_GetPCLK1Freq>
 8001a74:	e041      	b.n	8001afa <UART_SetConfig+0x1ea>
 8001a76:	f7ff fc91 	bl	800139c <HAL_RCC_GetSysClockFreq>
 8001a7a:	b910      	cbnz	r0, 8001a82 <UART_SetConfig+0x172>
 8001a7c:	e071      	b.n	8001b62 <UART_SetConfig+0x252>
 8001a7e:	f44f 4000 	mov.w	r0, #32768	; 0x8000
 8001a82:	6862      	ldr	r2, [r4, #4]
 8001a84:	2101      	movs	r1, #1
 8001a86:	eb02 0342 	add.w	r3, r2, r2, lsl #1
 8001a8a:	4298      	cmp	r0, r3
 8001a8c:	d36a      	bcc.n	8001b64 <UART_SetConfig+0x254>
 8001a8e:	0313      	lsls	r3, r2, #12
 8001a90:	4298      	cmp	r0, r3
 8001a92:	bf9c      	itt	ls
 8001a94:	2101      	movls	r1, #1
 8001a96:	2d04      	cmpls	r5, #4
 8001a98:	d864      	bhi.n	8001b64 <UART_SetConfig+0x254>
 8001a9a:	e8df f005 	tbb	[pc, r5]
 8001a9e:	3e03      	.short	0x3e03
 8001aa0:	00526345 	.word	0x00526345
 8001aa4:	f7ff fcd9 	bl	800145a <HAL_RCC_GetPCLK1Freq>
 8001aa8:	e040      	b.n	8001b2c <UART_SetConfig+0x21c>
 8001aaa:	f7ff fceb 	bl	8001484 <HAL_RCC_GetPCLK2Freq>
 8001aae:	e007      	b.n	8001ac0 <UART_SetConfig+0x1b0>
 8001ab0:	6861      	ldr	r1, [r4, #4]
 8001ab2:	f644 0200 	movw	r2, #18432	; 0x4800
 8001ab6:	f2c0 12e8 	movt	r2, #488	; 0x1e8
 8001aba:	e008      	b.n	8001ace <UART_SetConfig+0x1be>
 8001abc:	f7ff fc6e 	bl	800139c <HAL_RCC_GetSysClockFreq>
 8001ac0:	6861      	ldr	r1, [r4, #4]
 8001ac2:	0040      	lsls	r0, r0, #1
 8001ac4:	084a      	lsrs	r2, r1, #1
 8001ac6:	e003      	b.n	8001ad0 <UART_SetConfig+0x1c0>
 8001ac8:	6861      	ldr	r1, [r4, #4]
 8001aca:	f44f 3280 	mov.w	r2, #65536	; 0x10000
 8001ace:	0848      	lsrs	r0, r1, #1
 8001ad0:	4410      	add	r0, r2
 8001ad2:	fbb0 f0f1 	udiv	r0, r0, r1
 8001ad6:	f64f 71f0 	movw	r1, #65520	; 0xfff0
 8001ada:	4001      	ands	r1, r0
 8001adc:	2910      	cmp	r1, #16
 8001ade:	d303      	bcc.n	8001ae8 <UART_SetConfig+0x1d8>
 8001ae0:	f3c0 0042 	ubfx	r0, r0, #1, #3
 8001ae4:	4308      	orrs	r0, r1
 8001ae6:	e03a      	b.n	8001b5e <UART_SetConfig+0x24e>
 8001ae8:	2101      	movs	r1, #1
 8001aea:	e03b      	b.n	8001b64 <UART_SetConfig+0x254>
 8001aec:	f7ff fcca 	bl	8001484 <HAL_RCC_GetPCLK2Freq>
 8001af0:	e003      	b.n	8001afa <UART_SetConfig+0x1ea>
 8001af2:	6862      	ldr	r2, [r4, #4]
 8001af4:	e008      	b.n	8001b08 <UART_SetConfig+0x1f8>
 8001af6:	f7ff fc51 	bl	800139c <HAL_RCC_GetSysClockFreq>
 8001afa:	6862      	ldr	r2, [r4, #4]
 8001afc:	4601      	mov	r1, r0
 8001afe:	0850      	lsrs	r0, r2, #1
 8001b00:	e003      	b.n	8001b0a <UART_SetConfig+0x1fa>
 8001b02:	6862      	ldr	r2, [r4, #4]
 8001b04:	f44f 4000 	mov.w	r0, #32768	; 0x8000
 8001b08:	0851      	lsrs	r1, r2, #1
 8001b0a:	4408      	add	r0, r1
 8001b0c:	fbb0 f0f2 	udiv	r0, r0, r2
 8001b10:	b280      	uxth	r0, r0
 8001b12:	2810      	cmp	r0, #16
 8001b14:	d223      	bcs.n	8001b5e <UART_SetConfig+0x24e>
 8001b16:	2101      	movs	r1, #1
 8001b18:	e024      	b.n	8001b64 <UART_SetConfig+0x254>
 8001b1a:	2000      	movs	r0, #0
 8001b1c:	2100      	movs	r1, #0
 8001b1e:	f2cf 4024 	movt	r0, #62500	; 0xf424
 8001b22:	eb10 0052 	adds.w	r0, r0, r2, lsr #1
 8001b26:	e006      	b.n	8001b36 <UART_SetConfig+0x226>
 8001b28:	f7ff fc38 	bl	800139c <HAL_RCC_GetSysClockFreq>
 8001b2c:	6862      	ldr	r2, [r4, #4]
 8001b2e:	0e01      	lsrs	r1, r0, #24
 8001b30:	0853      	lsrs	r3, r2, #1
 8001b32:	eb13 2000 	adds.w	r0, r3, r0, lsl #8
 8001b36:	f141 0100 	adc.w	r1, r1, #0
 8001b3a:	2300      	movs	r3, #0
 8001b3c:	f7fe fb60 	bl	8000200 <__aeabi_uldivmod>
 8001b40:	e005      	b.n	8001b4e <UART_SetConfig+0x23e>
 8001b42:	f44f 0000 	mov.w	r0, #8388608	; 0x800000
 8001b46:	eb00 0052 	add.w	r0, r0, r2, lsr #1
 8001b4a:	fbb0 f0f2 	udiv	r0, r0, r2
 8001b4e:	f64f 42ff 	movw	r2, #64767	; 0xfcff
 8001b52:	f5a0 7140 	sub.w	r1, r0, #768	; 0x300
 8001b56:	f2c0 020f 	movt	r2, #15
 8001b5a:	4291      	cmp	r1, r2
 8001b5c:	d807      	bhi.n	8001b6e <UART_SetConfig+0x25e>
 8001b5e:	6821      	ldr	r1, [r4, #0]
 8001b60:	60c8      	str	r0, [r1, #12]
 8001b62:	2100      	movs	r1, #0
 8001b64:	2000      	movs	r0, #0
 8001b66:	e9c4 0018 	strd	r0, r0, [r4, #96]	; 0x60
 8001b6a:	4608      	mov	r0, r1
 8001b6c:	bdb0      	pop	{r4, r5, r7, pc}
 8001b6e:	2101      	movs	r1, #1
 8001b70:	e7f8      	b.n	8001b64 <UART_SetConfig+0x254>

08001b72 <UART_AdvFeatureConfig>:
 8001b72:	6a41      	ldr	r1, [r0, #36]	; 0x24
 8001b74:	f011 0f01 	tst.w	r1, #1
 8001b78:	d008      	beq.n	8001b8c <UART_AdvFeatureConfig+0x1a>
 8001b7a:	6802      	ldr	r2, [r0, #0]
 8001b7c:	6853      	ldr	r3, [r2, #4]
 8001b7e:	f8d0 c028 	ldr.w	ip, [r0, #40]	; 0x28
 8001b82:	f423 3300 	bic.w	r3, r3, #131072	; 0x20000
 8001b86:	ea43 030c 	orr.w	r3, r3, ip
 8001b8a:	6053      	str	r3, [r2, #4]
 8001b8c:	078a      	lsls	r2, r1, #30
 8001b8e:	d508      	bpl.n	8001ba2 <UART_AdvFeatureConfig+0x30>
 8001b90:	6802      	ldr	r2, [r0, #0]
 8001b92:	6853      	ldr	r3, [r2, #4]
 8001b94:	f8d0 c02c 	ldr.w	ip, [r0, #44]	; 0x2c
 8001b98:	f423 3380 	bic.w	r3, r3, #65536	; 0x10000
 8001b9c:	ea43 030c 	orr.w	r3, r3, ip
 8001ba0:	6053      	str	r3, [r2, #4]
 8001ba2:	074a      	lsls	r2, r1, #29
 8001ba4:	d508      	bpl.n	8001bb8 <UART_AdvFeatureConfig+0x46>
 8001ba6:	6802      	ldr	r2, [r0, #0]
 8001ba8:	6853      	ldr	r3, [r2, #4]
 8001baa:	f8d0 c030 	ldr.w	ip, [r0, #48]	; 0x30
 8001bae:	f423 2380 	bic.w	r3, r3, #262144	; 0x40000
 8001bb2:	ea43 030c 	orr.w	r3, r3, ip
 8001bb6:	6053      	str	r3, [r2, #4]
 8001bb8:	070a      	lsls	r2, r1, #28
 8001bba:	d508      	bpl.n	8001bce <UART_AdvFeatureConfig+0x5c>
 8001bbc:	6802      	ldr	r2, [r0, #0]
 8001bbe:	6853      	ldr	r3, [r2, #4]
 8001bc0:	f8d0 c034 	ldr.w	ip, [r0, #52]	; 0x34
 8001bc4:	f423 4300 	bic.w	r3, r3, #32768	; 0x8000
 8001bc8:	ea43 030c 	orr.w	r3, r3, ip
 8001bcc:	6053      	str	r3, [r2, #4]
 8001bce:	06ca      	lsls	r2, r1, #27
 8001bd0:	d508      	bpl.n	8001be4 <UART_AdvFeatureConfig+0x72>
 8001bd2:	6802      	ldr	r2, [r0, #0]
 8001bd4:	6893      	ldr	r3, [r2, #8]
 8001bd6:	f8d0 c038 	ldr.w	ip, [r0, #56]	; 0x38
 8001bda:	f423 5380 	bic.w	r3, r3, #4096	; 0x1000
 8001bde:	ea43 030c 	orr.w	r3, r3, ip
 8001be2:	6093      	str	r3, [r2, #8]
 8001be4:	068a      	lsls	r2, r1, #26
 8001be6:	d508      	bpl.n	8001bfa <UART_AdvFeatureConfig+0x88>
 8001be8:	6802      	ldr	r2, [r0, #0]
 8001bea:	6893      	ldr	r3, [r2, #8]
 8001bec:	f8d0 c03c 	ldr.w	ip, [r0, #60]	; 0x3c
 8001bf0:	f423 5300 	bic.w	r3, r3, #8192	; 0x2000
 8001bf4:	ea43 030c 	orr.w	r3, r3, ip
 8001bf8:	6093      	str	r3, [r2, #8]
 8001bfa:	b580      	push	{r7, lr}
 8001bfc:	466f      	mov	r7, sp
 8001bfe:	064a      	lsls	r2, r1, #25
 8001c00:	d515      	bpl.n	8001c2e <UART_AdvFeatureConfig+0xbc>
 8001c02:	f8d0 e000 	ldr.w	lr, [r0]
 8001c06:	f8de c004 	ldr.w	ip, [lr, #4]
 8001c0a:	6c03      	ldr	r3, [r0, #64]	; 0x40
 8001c0c:	f42c 1280 	bic.w	r2, ip, #1048576	; 0x100000
 8001c10:	f5b3 1f80 	cmp.w	r3, #1048576	; 0x100000
 8001c14:	ea42 0203 	orr.w	r2, r2, r3
 8001c18:	f8ce 2004 	str.w	r2, [lr, #4]
 8001c1c:	d107      	bne.n	8001c2e <UART_AdvFeatureConfig+0xbc>
 8001c1e:	f8de 2004 	ldr.w	r2, [lr, #4]
 8001c22:	6c43      	ldr	r3, [r0, #68]	; 0x44
 8001c24:	f422 02c0 	bic.w	r2, r2, #6291456	; 0x600000
 8001c28:	431a      	orrs	r2, r3
 8001c2a:	f8ce 2004 	str.w	r2, [lr, #4]
 8001c2e:	0609      	lsls	r1, r1, #24
 8001c30:	e8bd 4080 	ldmia.w	sp!, {r7, lr}
 8001c34:	bf58      	it	pl
 8001c36:	4770      	bxpl	lr
 8001c38:	6801      	ldr	r1, [r0, #0]
 8001c3a:	684a      	ldr	r2, [r1, #4]
 8001c3c:	6c80      	ldr	r0, [r0, #72]	; 0x48
 8001c3e:	f422 2200 	bic.w	r2, r2, #524288	; 0x80000
 8001c42:	4310      	orrs	r0, r2
 8001c44:	6048      	str	r0, [r1, #4]
 8001c46:	4770      	bx	lr

08001c48 <UART_CheckIdleState>:
 8001c48:	b5f0      	push	{r4, r5, r6, r7, lr}
 8001c4a:	af03      	add	r7, sp, #12
 8001c4c:	f84d bd04 	str.w	fp, [sp, #-4]!
 8001c50:	4604      	mov	r4, r0
 8001c52:	2000      	movs	r0, #0
 8001c54:	67e0      	str	r0, [r4, #124]	; 0x7c
 8001c56:	f7ff fa5f 	bl	8001118 <HAL_GetTick>
 8001c5a:	4605      	mov	r5, r0
 8001c5c:	6820      	ldr	r0, [r4, #0]
 8001c5e:	6801      	ldr	r1, [r0, #0]
 8001c60:	f011 0f08 	tst.w	r1, #8
 8001c64:	d00f      	beq.n	8001c86 <UART_CheckIdleState+0x3e>
 8001c66:	69c1      	ldr	r1, [r0, #28]
 8001c68:	f411 1f00 	tst.w	r1, #2097152	; 0x200000
 8001c6c:	d10b      	bne.n	8001c86 <UART_CheckIdleState+0x3e>
 8001c6e:	2600      	movs	r6, #0
 8001c70:	f7ff fa52 	bl	8001118 <HAL_GetTick>
 8001c74:	1b41      	subs	r1, r0, r5
 8001c76:	6820      	ldr	r0, [r4, #0]
 8001c78:	ebb6 6f51 	cmp.w	r6, r1, lsr #25
 8001c7c:	d11b      	bne.n	8001cb6 <UART_CheckIdleState+0x6e>
 8001c7e:	69c1      	ldr	r1, [r0, #28]
 8001c80:	f411 1f00 	tst.w	r1, #2097152	; 0x200000
 8001c84:	d0f4      	beq.n	8001c70 <UART_CheckIdleState+0x28>
 8001c86:	6801      	ldr	r1, [r0, #0]
 8001c88:	f011 0f04 	tst.w	r1, #4
 8001c8c:	d101      	bne.n	8001c92 <UART_CheckIdleState+0x4a>
 8001c8e:	2600      	movs	r6, #0
 8001c90:	e01a      	b.n	8001cc8 <UART_CheckIdleState+0x80>
 8001c92:	69c0      	ldr	r0, [r0, #28]
 8001c94:	2600      	movs	r6, #0
 8001c96:	f410 0f80 	tst.w	r0, #4194304	; 0x400000
 8001c9a:	d115      	bne.n	8001cc8 <UART_CheckIdleState+0x80>
 8001c9c:	f7ff fa3c 	bl	8001118 <HAL_GetTick>
 8001ca0:	1b41      	subs	r1, r0, r5
 8001ca2:	6820      	ldr	r0, [r4, #0]
 8001ca4:	ebb6 6f51 	cmp.w	r6, r1, lsr #25
 8001ca8:	d105      	bne.n	8001cb6 <UART_CheckIdleState+0x6e>
 8001caa:	69c0      	ldr	r0, [r0, #28]
 8001cac:	f410 0f80 	tst.w	r0, #4194304	; 0x400000
 8001cb0:	d0f4      	beq.n	8001c9c <UART_CheckIdleState+0x54>
 8001cb2:	2600      	movs	r6, #0
 8001cb4:	e008      	b.n	8001cc8 <UART_CheckIdleState+0x80>
 8001cb6:	6801      	ldr	r1, [r0, #0]
 8001cb8:	2603      	movs	r6, #3
 8001cba:	f421 71d0 	bic.w	r1, r1, #416	; 0x1a0
 8001cbe:	6001      	str	r1, [r0, #0]
 8001cc0:	6881      	ldr	r1, [r0, #8]
 8001cc2:	f021 0101 	bic.w	r1, r1, #1
 8001cc6:	6081      	str	r1, [r0, #8]
 8001cc8:	2020      	movs	r0, #32
 8001cca:	6760      	str	r0, [r4, #116]	; 0x74
 8001ccc:	67a0      	str	r0, [r4, #120]	; 0x78
 8001cce:	2000      	movs	r0, #0
 8001cd0:	6720      	str	r0, [r4, #112]	; 0x70
 8001cd2:	4630      	mov	r0, r6
 8001cd4:	f85d bb04 	ldr.w	fp, [sp], #4
 8001cd8:	bdf0      	pop	{r4, r5, r6, r7, pc}

08001cda <HAL_UART_Transmit>:
 8001cda:	b5f0      	push	{r4, r5, r6, r7, lr}
 8001cdc:	af03      	add	r7, sp, #12
 8001cde:	e92d 0f00 	stmdb	sp!, {r8, r9, sl, fp}
 8001ce2:	b081      	sub	sp, #4
 8001ce4:	4604      	mov	r4, r0
 8001ce6:	461d      	mov	r5, r3
 8001ce8:	4616      	mov	r6, r2
 8001cea:	4689      	mov	r9, r1
 8001cec:	6f60      	ldr	r0, [r4, #116]	; 0x74
 8001cee:	2820      	cmp	r0, #32
 8001cf0:	d109      	bne.n	8001d06 <HAL_UART_Transmit+0x2c>
 8001cf2:	f1b9 0f00 	cmp.w	r9, #0
 8001cf6:	f04f 0001 	mov.w	r0, #1
 8001cfa:	bf18      	it	ne
 8001cfc:	2e00      	cmpne	r6, #0
 8001cfe:	d003      	beq.n	8001d08 <HAL_UART_Transmit+0x2e>
 8001d00:	6f20      	ldr	r0, [r4, #112]	; 0x70
 8001d02:	2801      	cmp	r0, #1
 8001d04:	d104      	bne.n	8001d10 <HAL_UART_Transmit+0x36>
 8001d06:	2002      	movs	r0, #2
 8001d08:	b001      	add	sp, #4
 8001d0a:	e8bd 0f00 	ldmia.w	sp!, {r8, r9, sl, fp}
 8001d0e:	bdf0      	pop	{r4, r5, r6, r7, pc}
 8001d10:	2001      	movs	r0, #1
 8001d12:	6720      	str	r0, [r4, #112]	; 0x70
 8001d14:	2000      	movs	r0, #0
 8001d16:	67e0      	str	r0, [r4, #124]	; 0x7c
 8001d18:	2021      	movs	r0, #33	; 0x21
 8001d1a:	6760      	str	r0, [r4, #116]	; 0x74
 8001d1c:	f7ff f9fc 	bl	8001118 <HAL_GetTick>
 8001d20:	f8a4 6050 	strh.w	r6, [r4, #80]	; 0x50
 8001d24:	f8a4 6052 	strh.w	r6, [r4, #82]	; 0x52
 8001d28:	4680      	mov	r8, r0
 8001d2a:	f8b4 1052 	ldrh.w	r1, [r4, #82]	; 0x52
 8001d2e:	f8d4 b000 	ldr.w	fp, [r4]
 8001d32:	f8db 001c 	ldr.w	r0, [fp, #28]
 8001d36:	2900      	cmp	r1, #0
 8001d38:	d040      	beq.n	8001dbc <HAL_UART_Transmit+0xe2>
 8001d3a:	f105 0a01 	add.w	sl, r5, #1
 8001d3e:	0600      	lsls	r0, r0, #24
 8001d40:	d410      	bmi.n	8001d64 <HAL_UART_Transmit+0x8a>
 8001d42:	465e      	mov	r6, fp
 8001d44:	f1ba 0f00 	cmp.w	sl, #0
 8001d48:	d007      	beq.n	8001d5a <HAL_UART_Transmit+0x80>
 8001d4a:	b33d      	cbz	r5, 8001d9c <HAL_UART_Transmit+0xc2>
 8001d4c:	f7ff f9e4 	bl	8001118 <HAL_GetTick>
 8001d50:	6826      	ldr	r6, [r4, #0]
 8001d52:	eba0 0008 	sub.w	r0, r0, r8
 8001d56:	42a8      	cmp	r0, r5
 8001d58:	d821      	bhi.n	8001d9e <HAL_UART_Transmit+0xc4>
 8001d5a:	69f0      	ldr	r0, [r6, #28]
 8001d5c:	f010 0f80 	tst.w	r0, #128	; 0x80
 8001d60:	d0f0      	beq.n	8001d44 <HAL_UART_Transmit+0x6a>
 8001d62:	e000      	b.n	8001d66 <HAL_UART_Transmit+0x8c>
 8001d64:	465e      	mov	r6, fp
 8001d66:	68a0      	ldr	r0, [r4, #8]
 8001d68:	f5b0 5f80 	cmp.w	r0, #4096	; 0x1000
 8001d6c:	bf04      	itt	eq
 8001d6e:	6920      	ldreq	r0, [r4, #16]
 8001d70:	2800      	cmpeq	r0, #0
 8001d72:	d002      	beq.n	8001d7a <HAL_UART_Transmit+0xa0>
 8001d74:	f819 0b01 	ldrb.w	r0, [r9], #1
 8001d78:	e003      	b.n	8001d82 <HAL_UART_Transmit+0xa8>
 8001d7a:	f839 0b02 	ldrh.w	r0, [r9], #2
 8001d7e:	f36f 205f 	bfc	r0, #9, #23
 8001d82:	8530      	strh	r0, [r6, #40]	; 0x28
 8001d84:	46b3      	mov	fp, r6
 8001d86:	f8b4 0052 	ldrh.w	r0, [r4, #82]	; 0x52
 8001d8a:	3801      	subs	r0, #1
 8001d8c:	f8a4 0052 	strh.w	r0, [r4, #82]	; 0x52
 8001d90:	f8b4 1052 	ldrh.w	r1, [r4, #82]	; 0x52
 8001d94:	69f0      	ldr	r0, [r6, #28]
 8001d96:	2900      	cmp	r1, #0
 8001d98:	d1d1      	bne.n	8001d3e <HAL_UART_Transmit+0x64>
 8001d9a:	e010      	b.n	8001dbe <HAL_UART_Transmit+0xe4>
 8001d9c:	465e      	mov	r6, fp
 8001d9e:	6830      	ldr	r0, [r6, #0]
 8001da0:	f420 70d0 	bic.w	r0, r0, #416	; 0x1a0
 8001da4:	6030      	str	r0, [r6, #0]
 8001da6:	68b0      	ldr	r0, [r6, #8]
 8001da8:	f020 0001 	bic.w	r0, r0, #1
 8001dac:	60b0      	str	r0, [r6, #8]
 8001dae:	2020      	movs	r0, #32
 8001db0:	6760      	str	r0, [r4, #116]	; 0x74
 8001db2:	67a0      	str	r0, [r4, #120]	; 0x78
 8001db4:	2000      	movs	r0, #0
 8001db6:	6720      	str	r0, [r4, #112]	; 0x70
 8001db8:	2003      	movs	r0, #3
 8001dba:	e7a5      	b.n	8001d08 <HAL_UART_Transmit+0x2e>
 8001dbc:	465e      	mov	r6, fp
 8001dbe:	0640      	lsls	r0, r0, #25
 8001dc0:	d411      	bmi.n	8001de6 <HAL_UART_Transmit+0x10c>
 8001dc2:	f105 0901 	add.w	r9, r5, #1
 8001dc6:	4630      	mov	r0, r6
 8001dc8:	f1b9 0f00 	cmp.w	r9, #0
 8001dcc:	d007      	beq.n	8001dde <HAL_UART_Transmit+0x104>
 8001dce:	b17d      	cbz	r5, 8001df0 <HAL_UART_Transmit+0x116>
 8001dd0:	f7ff f9a2 	bl	8001118 <HAL_GetTick>
 8001dd4:	eba0 0108 	sub.w	r1, r0, r8
 8001dd8:	6820      	ldr	r0, [r4, #0]
 8001dda:	42a9      	cmp	r1, r5
 8001ddc:	d809      	bhi.n	8001df2 <HAL_UART_Transmit+0x118>
 8001dde:	69c1      	ldr	r1, [r0, #28]
 8001de0:	f011 0f40 	tst.w	r1, #64	; 0x40
 8001de4:	d0f0      	beq.n	8001dc8 <HAL_UART_Transmit+0xee>
 8001de6:	2020      	movs	r0, #32
 8001de8:	6760      	str	r0, [r4, #116]	; 0x74
 8001dea:	2000      	movs	r0, #0
 8001dec:	6720      	str	r0, [r4, #112]	; 0x70
 8001dee:	e78b      	b.n	8001d08 <HAL_UART_Transmit+0x2e>
 8001df0:	4630      	mov	r0, r6
 8001df2:	6801      	ldr	r1, [r0, #0]
 8001df4:	f421 71d0 	bic.w	r1, r1, #416	; 0x1a0
 8001df8:	6001      	str	r1, [r0, #0]
 8001dfa:	6881      	ldr	r1, [r0, #8]
 8001dfc:	f021 0101 	bic.w	r1, r1, #1
 8001e00:	6081      	str	r1, [r0, #8]
 8001e02:	e7d4      	b.n	8001dae <HAL_UART_Transmit+0xd4>

08001e04 <BSP_COM_Init>:
 8001e04:	b5f0      	push	{r4, r5, r6, r7, lr}
 8001e06:	af03      	add	r7, sp, #12
 8001e08:	e92d 0b00 	stmdb	sp!, {r8, r9, fp}
 8001e0c:	b086      	sub	sp, #24
 8001e0e:	4605      	mov	r5, r0
 8001e10:	4688      	mov	r8, r1
 8001e12:	b9f5      	cbnz	r5, 8001e52 <BSP_COM_Init+0x4e>
 8001e14:	f241 004c 	movw	r0, #4172	; 0x104c
 8001e18:	f2c4 0002 	movt	r0, #16386	; 0x4002
 8001e1c:	6801      	ldr	r1, [r0, #0]
 8001e1e:	f041 0102 	orr.w	r1, r1, #2
 8001e22:	6001      	str	r1, [r0, #0]
 8001e24:	6801      	ldr	r1, [r0, #0]
 8001e26:	f001 0102 	and.w	r1, r1, #2
 8001e2a:	9101      	str	r1, [sp, #4]
 8001e2c:	9901      	ldr	r1, [sp, #4]
 8001e2e:	6801      	ldr	r1, [r0, #0]
 8001e30:	f041 0102 	orr.w	r1, r1, #2
 8001e34:	6001      	str	r1, [r0, #0]
 8001e36:	6801      	ldr	r1, [r0, #0]
 8001e38:	f001 0102 	and.w	r1, r1, #2
 8001e3c:	9101      	str	r1, [sp, #4]
 8001e3e:	9901      	ldr	r1, [sp, #4]
 8001e40:	6941      	ldr	r1, [r0, #20]
 8001e42:	f441 4180 	orr.w	r1, r1, #16384	; 0x4000
 8001e46:	6141      	str	r1, [r0, #20]
 8001e48:	6940      	ldr	r0, [r0, #20]
 8001e4a:	f400 4080 	and.w	r0, r0, #16384	; 0x4000
 8001e4e:	9001      	str	r0, [sp, #4]
 8001e50:	9801      	ldr	r0, [sp, #4]
 8001e52:	2040      	movs	r0, #64	; 0x40
 8001e54:	2402      	movs	r4, #2
 8001e56:	ae01      	add	r6, sp, #4
 8001e58:	f04f 0907 	mov.w	r9, #7
 8001e5c:	9001      	str	r0, [sp, #4]
 8001e5e:	2000      	movs	r0, #0
 8001e60:	9402      	str	r4, [sp, #8]
 8001e62:	9404      	str	r4, [sp, #16]
 8001e64:	4631      	mov	r1, r6
 8001e66:	9003      	str	r0, [sp, #12]
 8001e68:	f240 000c 	movw	r0, #12
 8001e6c:	f8cd 9014 	str.w	r9, [sp, #20]
 8001e70:	f2c2 0000 	movt	r0, #8192	; 0x2000
 8001e74:	f850 0025 	ldr.w	r0, [r0, r5, lsl #2]
 8001e78:	f7ff f9a7 	bl	80011ca <HAL_GPIO_Init>
 8001e7c:	2080      	movs	r0, #128	; 0x80
 8001e7e:	4631      	mov	r1, r6
 8001e80:	e9cd 0401 	strd	r0, r4, [sp, #4]
 8001e84:	f240 0010 	movw	r0, #16
 8001e88:	f8cd 9014 	str.w	r9, [sp, #20]
 8001e8c:	f2c2 0000 	movt	r0, #8192	; 0x2000
 8001e90:	f850 0025 	ldr.w	r0, [r0, r5, lsl #2]
 8001e94:	f7ff f999 	bl	80011ca <HAL_GPIO_Init>
 8001e98:	f240 0008 	movw	r0, #8
 8001e9c:	f2c2 0000 	movt	r0, #8192	; 0x2000
 8001ea0:	f850 0025 	ldr.w	r0, [r0, r5, lsl #2]
 8001ea4:	f8c8 0000 	str.w	r0, [r8]
 8001ea8:	4640      	mov	r0, r8
 8001eaa:	f7ff fcff 	bl	80018ac <HAL_UART_Init>
 8001eae:	b006      	add	sp, #24
 8001eb0:	e8bd 0b00 	ldmia.w	sp!, {r8, r9, fp}
 8001eb4:	bdf0      	pop	{r4, r5, r6, r7, pc}

08001eb6 <cast128_encrypt>:
 8001eb6:	b5f0      	push	{r4, r5, r6, r7, lr}
 8001eb8:	af03      	add	r7, sp, #12
 8001eba:	e92d 0f00 	stmdb	sp!, {r8, r9, sl, fp}
 8001ebe:	b084      	sub	sp, #16
 8001ec0:	2900      	cmp	r1, #0
 8001ec2:	f000 81f8 	beq.w	80022b6 <cast128_encrypt+0x400>
 8001ec6:	f248 58a8 	movw	r8, #34216	; 0x85a8
 8001eca:	f648 1ea8 	movw	lr, #35240	; 0x89a8
 8001ece:	f648 5aa8 	movw	sl, #36264	; 0x8da8
 8001ed2:	f249 1ba8 	movw	fp, #37288	; 0x91a8
 8001ed6:	f6c0 0800 	movt	r8, #2048	; 0x800
 8001eda:	f6c0 0e00 	movt	lr, #2048	; 0x800
 8001ede:	f6c0 0a00 	movt	sl, #2048	; 0x800
 8001ee2:	f6c0 0b00 	movt	fp, #2048	; 0x800
 8001ee6:	9101      	str	r1, [sp, #4]
 8001ee8:	795d      	ldrb	r5, [r3, #5]
 8001eea:	791c      	ldrb	r4, [r3, #4]
 8001eec:	7801      	ldrb	r1, [r0, #0]
 8001eee:	042d      	lsls	r5, r5, #16
 8001ef0:	ea45 6404 	orr.w	r4, r5, r4, lsl #24
 8001ef4:	799d      	ldrb	r5, [r3, #6]
 8001ef6:	ea44 2405 	orr.w	r4, r4, r5, lsl #8
 8001efa:	79dd      	ldrb	r5, [r3, #7]
 8001efc:	ea44 0905 	orr.w	r9, r4, r5
 8001f00:	6945      	ldr	r5, [r0, #20]
 8001f02:	9103      	str	r1, [sp, #12]
 8001f04:	461c      	mov	r4, r3
 8001f06:	7906      	ldrb	r6, [r0, #4]
 8001f08:	7981      	ldrb	r1, [r0, #6]
 8001f0a:	f890 c005 	ldrb.w	ip, [r0, #5]
 8001f0e:	444d      	add	r5, r9
 8001f10:	4276      	negs	r6, r6
 8001f12:	9102      	str	r1, [sp, #8]
 8001f14:	41f5      	rors	r5, r6
 8001f16:	0e2e      	lsrs	r6, r5, #24
 8001f18:	f858 6026 	ldr.w	r6, [r8, r6, lsl #2]
 8001f1c:	f3c5 4807 	ubfx	r8, r5, #16, #8
 8001f20:	f85e 1028 	ldr.w	r1, [lr, r8, lsl #2]
 8001f24:	4071      	eors	r1, r6
 8001f26:	f3c5 2607 	ubfx	r6, r5, #8, #8
 8001f2a:	b2ed      	uxtb	r5, r5
 8001f2c:	f85a 6026 	ldr.w	r6, [sl, r6, lsl #2]
 8001f30:	f85b 5025 	ldr.w	r5, [fp, r5, lsl #2]
 8001f34:	1b89      	subs	r1, r1, r6
 8001f36:	785e      	ldrb	r6, [r3, #1]
 8001f38:	eb01 0805 	add.w	r8, r1, r5
 8001f3c:	781d      	ldrb	r5, [r3, #0]
 8001f3e:	7899      	ldrb	r1, [r3, #2]
 8001f40:	9400      	str	r4, [sp, #0]
 8001f42:	4673      	mov	r3, lr
 8001f44:	f894 e003 	ldrb.w	lr, [r4, #3]
 8001f48:	0436      	lsls	r6, r6, #16
 8001f4a:	ea46 6505 	orr.w	r5, r6, r5, lsl #24
 8001f4e:	f1cc 0600 	rsb	r6, ip, #0
 8001f52:	ea45 2101 	orr.w	r1, r5, r1, lsl #8
 8001f56:	ea41 010e 	orr.w	r1, r1, lr
 8001f5a:	ea88 0501 	eor.w	r5, r8, r1
 8001f5e:	6981      	ldr	r1, [r0, #24]
 8001f60:	f248 58a8 	movw	r8, #34216	; 0x85a8
 8001f64:	f6c0 0800 	movt	r8, #2048	; 0x800
 8001f68:	4069      	eors	r1, r5
 8001f6a:	41f1      	rors	r1, r6
 8001f6c:	f3c1 4607 	ubfx	r6, r1, #16, #8
 8001f70:	0e0c      	lsrs	r4, r1, #24
 8001f72:	f853 6026 	ldr.w	r6, [r3, r6, lsl #2]
 8001f76:	f858 4024 	ldr.w	r4, [r8, r4, lsl #2]
 8001f7a:	1ba6      	subs	r6, r4, r6
 8001f7c:	f3c1 2407 	ubfx	r4, r1, #8, #8
 8001f80:	b2c9      	uxtb	r1, r1
 8001f82:	f85b 1021 	ldr.w	r1, [fp, r1, lsl #2]
 8001f86:	f85a 4024 	ldr.w	r4, [sl, r4, lsl #2]
 8001f8a:	4426      	add	r6, r4
 8001f8c:	ea81 0109 	eor.w	r1, r1, r9
 8001f90:	ea81 0c06 	eor.w	ip, r1, r6
 8001f94:	69c1      	ldr	r1, [r0, #28]
 8001f96:	9e02      	ldr	r6, [sp, #8]
 8001f98:	eba1 010c 	sub.w	r1, r1, ip
 8001f9c:	4276      	negs	r6, r6
 8001f9e:	41f1      	rors	r1, r6
 8001fa0:	0e0e      	lsrs	r6, r1, #24
 8001fa2:	f3c1 4407 	ubfx	r4, r1, #16, #8
 8001fa6:	f858 6026 	ldr.w	r6, [r8, r6, lsl #2]
 8001faa:	f853 4024 	ldr.w	r4, [r3, r4, lsl #2]
 8001fae:	4426      	add	r6, r4
 8001fb0:	f3c1 2407 	ubfx	r4, r1, #8, #8
 8001fb4:	b2c9      	uxtb	r1, r1
 8001fb6:	f85a 4024 	ldr.w	r4, [sl, r4, lsl #2]
 8001fba:	f85b 1021 	ldr.w	r1, [fp, r1, lsl #2]
 8001fbe:	4066      	eors	r6, r4
 8001fc0:	1a71      	subs	r1, r6, r1
 8001fc2:	ea81 0605 	eor.w	r6, r1, r5
 8001fc6:	6a01      	ldr	r1, [r0, #32]
 8001fc8:	79c5      	ldrb	r5, [r0, #7]
 8001fca:	4431      	add	r1, r6
 8001fcc:	426d      	negs	r5, r5
 8001fce:	41e9      	rors	r1, r5
 8001fd0:	0e0d      	lsrs	r5, r1, #24
 8001fd2:	f3c1 4407 	ubfx	r4, r1, #16, #8
 8001fd6:	f858 5025 	ldr.w	r5, [r8, r5, lsl #2]
 8001fda:	f853 4024 	ldr.w	r4, [r3, r4, lsl #2]
 8001fde:	4065      	eors	r5, r4
 8001fe0:	f3c1 2407 	ubfx	r4, r1, #8, #8
 8001fe4:	b2c9      	uxtb	r1, r1
 8001fe6:	f85a 4024 	ldr.w	r4, [sl, r4, lsl #2]
 8001fea:	f85b 1021 	ldr.w	r1, [fp, r1, lsl #2]
 8001fee:	1b2d      	subs	r5, r5, r4
 8001ff0:	4429      	add	r1, r5
 8001ff2:	7a05      	ldrb	r5, [r0, #8]
 8001ff4:	ea8c 0c01 	eor.w	ip, ip, r1
 8001ff8:	6a41      	ldr	r1, [r0, #36]	; 0x24
 8001ffa:	426d      	negs	r5, r5
 8001ffc:	ea81 010c 	eor.w	r1, r1, ip
 8002000:	41e9      	rors	r1, r5
 8002002:	f3c1 4507 	ubfx	r5, r1, #16, #8
 8002006:	0e0c      	lsrs	r4, r1, #24
 8002008:	f853 5025 	ldr.w	r5, [r3, r5, lsl #2]
 800200c:	f858 4024 	ldr.w	r4, [r8, r4, lsl #2]
 8002010:	1b65      	subs	r5, r4, r5
 8002012:	f3c1 2407 	ubfx	r4, r1, #8, #8
 8002016:	b2c9      	uxtb	r1, r1
 8002018:	f85b 1021 	ldr.w	r1, [fp, r1, lsl #2]
 800201c:	f85a 4024 	ldr.w	r4, [sl, r4, lsl #2]
 8002020:	4425      	add	r5, r4
 8002022:	4071      	eors	r1, r6
 8002024:	ea81 0e05 	eor.w	lr, r1, r5
 8002028:	6a81      	ldr	r1, [r0, #40]	; 0x28
 800202a:	7a45      	ldrb	r5, [r0, #9]
 800202c:	eba1 010e 	sub.w	r1, r1, lr
 8002030:	426d      	negs	r5, r5
 8002032:	41e9      	rors	r1, r5
 8002034:	0e0d      	lsrs	r5, r1, #24
 8002036:	f3c1 4407 	ubfx	r4, r1, #16, #8
 800203a:	f858 5025 	ldr.w	r5, [r8, r5, lsl #2]
 800203e:	f853 4024 	ldr.w	r4, [r3, r4, lsl #2]
 8002042:	4425      	add	r5, r4
 8002044:	f3c1 2407 	ubfx	r4, r1, #8, #8
 8002048:	b2c9      	uxtb	r1, r1
 800204a:	f85a 4024 	ldr.w	r4, [sl, r4, lsl #2]
 800204e:	f85b 1021 	ldr.w	r1, [fp, r1, lsl #2]
 8002052:	4065      	eors	r5, r4
 8002054:	7a84      	ldrb	r4, [r0, #10]
 8002056:	1a69      	subs	r1, r5, r1
 8002058:	ea81 050c 	eor.w	r5, r1, ip
 800205c:	6ac1      	ldr	r1, [r0, #44]	; 0x2c
 800205e:	4264      	negs	r4, r4
 8002060:	4429      	add	r1, r5
 8002062:	41e1      	rors	r1, r4
 8002064:	0e0c      	lsrs	r4, r1, #24
 8002066:	f3c1 4607 	ubfx	r6, r1, #16, #8
 800206a:	f858 4024 	ldr.w	r4, [r8, r4, lsl #2]
 800206e:	f853 6026 	ldr.w	r6, [r3, r6, lsl #2]
 8002072:	4066      	eors	r6, r4
 8002074:	f3c1 2407 	ubfx	r4, r1, #8, #8
 8002078:	b2c9      	uxtb	r1, r1
 800207a:	f85a 4024 	ldr.w	r4, [sl, r4, lsl #2]
 800207e:	f85b 1021 	ldr.w	r1, [fp, r1, lsl #2]
 8002082:	1b36      	subs	r6, r6, r4
 8002084:	4431      	add	r1, r6
 8002086:	7ac6      	ldrb	r6, [r0, #11]
 8002088:	ea81 0c0e 	eor.w	ip, r1, lr
 800208c:	6b01      	ldr	r1, [r0, #48]	; 0x30
 800208e:	4276      	negs	r6, r6
 8002090:	ea81 010c 	eor.w	r1, r1, ip
 8002094:	41f1      	rors	r1, r6
 8002096:	f3c1 4607 	ubfx	r6, r1, #16, #8
 800209a:	0e0c      	lsrs	r4, r1, #24
 800209c:	f853 6026 	ldr.w	r6, [r3, r6, lsl #2]
 80020a0:	f858 4024 	ldr.w	r4, [r8, r4, lsl #2]
 80020a4:	1ba6      	subs	r6, r4, r6
 80020a6:	f3c1 2407 	ubfx	r4, r1, #8, #8
 80020aa:	b2c9      	uxtb	r1, r1
 80020ac:	f85b 1021 	ldr.w	r1, [fp, r1, lsl #2]
 80020b0:	f85a 4024 	ldr.w	r4, [sl, r4, lsl #2]
 80020b4:	4069      	eors	r1, r5
 80020b6:	4426      	add	r6, r4
 80020b8:	7b05      	ldrb	r5, [r0, #12]
 80020ba:	ea81 0e06 	eor.w	lr, r1, r6
 80020be:	6b41      	ldr	r1, [r0, #52]	; 0x34
 80020c0:	426d      	negs	r5, r5
 80020c2:	eba1 010e 	sub.w	r1, r1, lr
 80020c6:	41e9      	rors	r1, r5
 80020c8:	0e0d      	lsrs	r5, r1, #24
 80020ca:	f3c1 4407 	ubfx	r4, r1, #16, #8
 80020ce:	f858 5025 	ldr.w	r5, [r8, r5, lsl #2]
 80020d2:	f853 4024 	ldr.w	r4, [r3, r4, lsl #2]
 80020d6:	4425      	add	r5, r4
 80020d8:	f3c1 2407 	ubfx	r4, r1, #8, #8
 80020dc:	b2c9      	uxtb	r1, r1
 80020de:	f85a 4024 	ldr.w	r4, [sl, r4, lsl #2]
 80020e2:	f85b 1021 	ldr.w	r1, [fp, r1, lsl #2]
 80020e6:	4065      	eors	r5, r4
 80020e8:	7b44      	ldrb	r4, [r0, #13]
 80020ea:	1a69      	subs	r1, r5, r1
 80020ec:	ea81 050c 	eor.w	r5, r1, ip
 80020f0:	6b81      	ldr	r1, [r0, #56]	; 0x38
 80020f2:	4264      	negs	r4, r4
 80020f4:	4429      	add	r1, r5
 80020f6:	41e1      	rors	r1, r4
 80020f8:	0e0c      	lsrs	r4, r1, #24
 80020fa:	f3c1 4607 	ubfx	r6, r1, #16, #8
 80020fe:	f858 4024 	ldr.w	r4, [r8, r4, lsl #2]
 8002102:	f853 6026 	ldr.w	r6, [r3, r6, lsl #2]
 8002106:	4066      	eors	r6, r4
 8002108:	f3c1 2407 	ubfx	r4, r1, #8, #8
 800210c:	b2c9      	uxtb	r1, r1
 800210e:	f85a 4024 	ldr.w	r4, [sl, r4, lsl #2]
 8002112:	f85b 1021 	ldr.w	r1, [fp, r1, lsl #2]
 8002116:	1b36      	subs	r6, r6, r4
 8002118:	4431      	add	r1, r6
 800211a:	7b86      	ldrb	r6, [r0, #14]
 800211c:	ea81 0c0e 	eor.w	ip, r1, lr
 8002120:	6bc1      	ldr	r1, [r0, #60]	; 0x3c
 8002122:	469e      	mov	lr, r3
 8002124:	4276      	negs	r6, r6
 8002126:	ea81 010c 	eor.w	r1, r1, ip
 800212a:	41f1      	rors	r1, r6
 800212c:	f3c1 4607 	ubfx	r6, r1, #16, #8
 8002130:	0e0c      	lsrs	r4, r1, #24
 8002132:	f85e 6026 	ldr.w	r6, [lr, r6, lsl #2]
 8002136:	f858 4024 	ldr.w	r4, [r8, r4, lsl #2]
 800213a:	1ba6      	subs	r6, r4, r6
 800213c:	f3c1 2407 	ubfx	r4, r1, #8, #8
 8002140:	b2c9      	uxtb	r1, r1
 8002142:	f85b 1021 	ldr.w	r1, [fp, r1, lsl #2]
 8002146:	f85a 4024 	ldr.w	r4, [sl, r4, lsl #2]
 800214a:	4069      	eors	r1, r5
 800214c:	4426      	add	r6, r4
 800214e:	7bc5      	ldrb	r5, [r0, #15]
 8002150:	ea81 0906 	eor.w	r9, r1, r6
 8002154:	6c01      	ldr	r1, [r0, #64]	; 0x40
 8002156:	426d      	negs	r5, r5
 8002158:	eba1 0109 	sub.w	r1, r1, r9
 800215c:	41e9      	rors	r1, r5
 800215e:	0e0d      	lsrs	r5, r1, #24
 8002160:	f3c1 4407 	ubfx	r4, r1, #16, #8
 8002164:	f858 5025 	ldr.w	r5, [r8, r5, lsl #2]
 8002168:	f85e 4024 	ldr.w	r4, [lr, r4, lsl #2]
 800216c:	4425      	add	r5, r4
 800216e:	f3c1 2407 	ubfx	r4, r1, #8, #8
 8002172:	b2c9      	uxtb	r1, r1
 8002174:	f85a 4024 	ldr.w	r4, [sl, r4, lsl #2]
 8002178:	f85b 1021 	ldr.w	r1, [fp, r1, lsl #2]
 800217c:	4065      	eors	r5, r4
 800217e:	1a69      	subs	r1, r5, r1
 8002180:	ea81 040c 	eor.w	r4, r1, ip
 8002184:	9903      	ldr	r1, [sp, #12]
 8002186:	06c9      	lsls	r1, r1, #27
 8002188:	d57b      	bpl.n	8002282 <cast128_encrypt+0x3cc>
 800218a:	6c41      	ldr	r1, [r0, #68]	; 0x44
 800218c:	7c05      	ldrb	r5, [r0, #16]
 800218e:	7cc6      	ldrb	r6, [r0, #19]
 8002190:	f890 e011 	ldrb.w	lr, [r0, #17]
 8002194:	f890 c012 	ldrb.w	ip, [r0, #18]
 8002198:	4421      	add	r1, r4
 800219a:	426d      	negs	r5, r5
 800219c:	9603      	str	r6, [sp, #12]
 800219e:	f248 56a8 	movw	r6, #34216	; 0x85a8
 80021a2:	41e9      	rors	r1, r5
 80021a4:	f6c0 0600 	movt	r6, #2048	; 0x800
 80021a8:	0e0d      	lsrs	r5, r1, #24
 80021aa:	f856 8025 	ldr.w	r8, [r6, r5, lsl #2]
 80021ae:	f3c1 4507 	ubfx	r5, r1, #16, #8
 80021b2:	f1ce 0600 	rsb	r6, lr, #0
 80021b6:	f853 5025 	ldr.w	r5, [r3, r5, lsl #2]
 80021ba:	ea88 0805 	eor.w	r8, r8, r5
 80021be:	f3c1 2507 	ubfx	r5, r1, #8, #8
 80021c2:	b2c9      	uxtb	r1, r1
 80021c4:	f85a 5025 	ldr.w	r5, [sl, r5, lsl #2]
 80021c8:	f85b 1021 	ldr.w	r1, [fp, r1, lsl #2]
 80021cc:	eba8 0505 	sub.w	r5, r8, r5
 80021d0:	4429      	add	r1, r5
 80021d2:	ea81 0809 	eor.w	r8, r1, r9
 80021d6:	6c81      	ldr	r1, [r0, #72]	; 0x48
 80021d8:	ea81 0108 	eor.w	r1, r1, r8
 80021dc:	41f1      	rors	r1, r6
 80021de:	f3c1 4607 	ubfx	r6, r1, #16, #8
 80021e2:	0e0d      	lsrs	r5, r1, #24
 80021e4:	f853 e026 	ldr.w	lr, [r3, r6, lsl #2]
 80021e8:	f248 56a8 	movw	r6, #34216	; 0x85a8
 80021ec:	f6c0 0600 	movt	r6, #2048	; 0x800
 80021f0:	f856 5025 	ldr.w	r5, [r6, r5, lsl #2]
 80021f4:	eba5 060e 	sub.w	r6, r5, lr
 80021f8:	f3c1 2507 	ubfx	r5, r1, #8, #8
 80021fc:	b2c9      	uxtb	r1, r1
 80021fe:	f85b 1021 	ldr.w	r1, [fp, r1, lsl #2]
 8002202:	f85a 5025 	ldr.w	r5, [sl, r5, lsl #2]
 8002206:	4061      	eors	r1, r4
 8002208:	442e      	add	r6, r5
 800220a:	f248 54a8 	movw	r4, #34216	; 0x85a8
 800220e:	ea81 0e06 	eor.w	lr, r1, r6
 8002212:	6cc1      	ldr	r1, [r0, #76]	; 0x4c
 8002214:	f1cc 0600 	rsb	r6, ip, #0
 8002218:	f6c0 0400 	movt	r4, #2048	; 0x800
 800221c:	eba1 010e 	sub.w	r1, r1, lr
 8002220:	41f1      	rors	r1, r6
 8002222:	0e0e      	lsrs	r6, r1, #24
 8002224:	f3c1 4507 	ubfx	r5, r1, #16, #8
 8002228:	f854 6026 	ldr.w	r6, [r4, r6, lsl #2]
 800222c:	f853 5025 	ldr.w	r5, [r3, r5, lsl #2]
 8002230:	442e      	add	r6, r5
 8002232:	f3c1 2507 	ubfx	r5, r1, #8, #8
 8002236:	b2c9      	uxtb	r1, r1
 8002238:	f85a 5025 	ldr.w	r5, [sl, r5, lsl #2]
 800223c:	f85b 1021 	ldr.w	r1, [fp, r1, lsl #2]
 8002240:	406e      	eors	r6, r5
 8002242:	1a71      	subs	r1, r6, r1
 8002244:	9e03      	ldr	r6, [sp, #12]
 8002246:	ea81 0908 	eor.w	r9, r1, r8
 800224a:	6d01      	ldr	r1, [r0, #80]	; 0x50
 800224c:	f248 58a8 	movw	r8, #34216	; 0x85a8
 8002250:	f6c0 0800 	movt	r8, #2048	; 0x800
 8002254:	4275      	negs	r5, r6
 8002256:	4449      	add	r1, r9
 8002258:	41e9      	rors	r1, r5
 800225a:	0e0d      	lsrs	r5, r1, #24
 800225c:	f3c1 4407 	ubfx	r4, r1, #16, #8
 8002260:	f858 5025 	ldr.w	r5, [r8, r5, lsl #2]
 8002264:	f853 4024 	ldr.w	r4, [r3, r4, lsl #2]
 8002268:	4065      	eors	r5, r4
 800226a:	f3c1 2407 	ubfx	r4, r1, #8, #8
 800226e:	b2c9      	uxtb	r1, r1
 8002270:	f85a 4024 	ldr.w	r4, [sl, r4, lsl #2]
 8002274:	f85b 1021 	ldr.w	r1, [fp, r1, lsl #2]
 8002278:	1b2d      	subs	r5, r5, r4
 800227a:	4429      	add	r1, r5
 800227c:	ea81 040e 	eor.w	r4, r1, lr
 8002280:	469e      	mov	lr, r3
 8002282:	0e25      	lsrs	r5, r4, #24
 8002284:	e9dd 3100 	ldrd	r3, r1, [sp]
 8002288:	7015      	strb	r5, [r2, #0]
 800228a:	0c25      	lsrs	r5, r4, #16
 800228c:	7055      	strb	r5, [r2, #1]
 800228e:	0a25      	lsrs	r5, r4, #8
 8002290:	7095      	strb	r5, [r2, #2]
 8002292:	ea4f 6519 	mov.w	r5, r9, lsr #24
 8002296:	70d4      	strb	r4, [r2, #3]
 8002298:	7115      	strb	r5, [r2, #4]
 800229a:	ea4f 4519 	mov.w	r5, r9, lsr #16
 800229e:	3308      	adds	r3, #8
 80022a0:	3908      	subs	r1, #8
 80022a2:	7155      	strb	r5, [r2, #5]
 80022a4:	ea4f 2519 	mov.w	r5, r9, lsr #8
 80022a8:	7195      	strb	r5, [r2, #6]
 80022aa:	f882 9007 	strb.w	r9, [r2, #7]
 80022ae:	f102 0208 	add.w	r2, r2, #8
 80022b2:	f47f ae18 	bne.w	8001ee6 <cast128_encrypt+0x30>
 80022b6:	b004      	add	sp, #16
 80022b8:	e8bd 0f00 	ldmia.w	sp!, {r8, r9, sl, fp}
 80022bc:	bdf0      	pop	{r4, r5, r6, r7, pc}

080022be <cast128_decrypt>:
 80022be:	b5f0      	push	{r4, r5, r6, r7, lr}
 80022c0:	af03      	add	r7, sp, #12
 80022c2:	e92d 0f00 	stmdb	sp!, {r8, r9, sl, fp}
 80022c6:	b084      	sub	sp, #16
 80022c8:	461e      	mov	r6, r3
 80022ca:	2900      	cmp	r1, #0
 80022cc:	f000 81d7 	beq.w	800267e <cast128_decrypt+0x3c0>
 80022d0:	f248 5ea8 	movw	lr, #34216	; 0x85a8
 80022d4:	f648 18a8 	movw	r8, #35240	; 0x89a8
 80022d8:	f648 53a8 	movw	r3, #36264	; 0x8da8
 80022dc:	f249 1ba8 	movw	fp, #37288	; 0x91a8
 80022e0:	f6c0 0e00 	movt	lr, #2048	; 0x800
 80022e4:	f6c0 0800 	movt	r8, #2048	; 0x800
 80022e8:	f6c0 0300 	movt	r3, #2048	; 0x800
 80022ec:	f6c0 0b00 	movt	fp, #2048	; 0x800
 80022f0:	7975      	ldrb	r5, [r6, #5]
 80022f2:	7934      	ldrb	r4, [r6, #4]
 80022f4:	f896 9000 	ldrb.w	r9, [r6]
 80022f8:	f896 c002 	ldrb.w	ip, [r6, #2]
 80022fc:	042d      	lsls	r5, r5, #16
 80022fe:	ea45 6404 	orr.w	r4, r5, r4, lsl #24
 8002302:	79b5      	ldrb	r5, [r6, #6]
 8002304:	ea44 2405 	orr.w	r4, r4, r5, lsl #8
 8002308:	79f5      	ldrb	r5, [r6, #7]
 800230a:	ea44 0a05 	orr.w	sl, r4, r5
 800230e:	7875      	ldrb	r5, [r6, #1]
 8002310:	78f4      	ldrb	r4, [r6, #3]
 8002312:	042d      	lsls	r5, r5, #16
 8002314:	ea45 6509 	orr.w	r5, r5, r9, lsl #24
 8002318:	ea45 250c 	orr.w	r5, r5, ip, lsl #8
 800231c:	432c      	orrs	r4, r5
 800231e:	7805      	ldrb	r5, [r0, #0]
 8002320:	9103      	str	r1, [sp, #12]
 8002322:	e9cd 2601 	strd	r2, r6, [sp, #4]
 8002326:	06ed      	lsls	r5, r5, #27
 8002328:	d567      	bpl.n	80023fa <cast128_decrypt+0x13c>
 800232a:	7c41      	ldrb	r1, [r0, #17]
 800232c:	6d05      	ldr	r5, [r0, #80]	; 0x50
 800232e:	7c02      	ldrb	r2, [r0, #16]
 8002330:	9100      	str	r1, [sp, #0]
 8002332:	eb05 060a 	add.w	r6, r5, sl
 8002336:	f890 9013 	ldrb.w	r9, [r0, #19]
 800233a:	f890 c012 	ldrb.w	ip, [r0, #18]
 800233e:	f1c9 0500 	rsb	r5, r9, #0
 8002342:	fa66 f505 	ror.w	r5, r6, r5
 8002346:	0e2e      	lsrs	r6, r5, #24
 8002348:	f3c5 4107 	ubfx	r1, r5, #16, #8
 800234c:	f85e 6026 	ldr.w	r6, [lr, r6, lsl #2]
 8002350:	f858 1021 	ldr.w	r1, [r8, r1, lsl #2]
 8002354:	4071      	eors	r1, r6
 8002356:	f3c5 2607 	ubfx	r6, r5, #8, #8
 800235a:	b2ed      	uxtb	r5, r5
 800235c:	f853 6026 	ldr.w	r6, [r3, r6, lsl #2]
 8002360:	f85b 5025 	ldr.w	r5, [fp, r5, lsl #2]
 8002364:	1b89      	subs	r1, r1, r6
 8002366:	f1cc 0600 	rsb	r6, ip, #0
 800236a:	4429      	add	r1, r5
 800236c:	404c      	eors	r4, r1
 800236e:	6cc1      	ldr	r1, [r0, #76]	; 0x4c
 8002370:	1b09      	subs	r1, r1, r4
 8002372:	41f1      	rors	r1, r6
 8002374:	0e0e      	lsrs	r6, r1, #24
 8002376:	f3c1 4507 	ubfx	r5, r1, #16, #8
 800237a:	f85e 6026 	ldr.w	r6, [lr, r6, lsl #2]
 800237e:	f858 5025 	ldr.w	r5, [r8, r5, lsl #2]
 8002382:	442e      	add	r6, r5
 8002384:	f3c1 2507 	ubfx	r5, r1, #8, #8
 8002388:	b2c9      	uxtb	r1, r1
 800238a:	f853 5025 	ldr.w	r5, [r3, r5, lsl #2]
 800238e:	f85b 1021 	ldr.w	r1, [fp, r1, lsl #2]
 8002392:	406e      	eors	r6, r5
 8002394:	9d00      	ldr	r5, [sp, #0]
 8002396:	1a71      	subs	r1, r6, r1
 8002398:	ea81 0c0a 	eor.w	ip, r1, sl
 800239c:	6c81      	ldr	r1, [r0, #72]	; 0x48
 800239e:	426d      	negs	r5, r5
 80023a0:	ea81 010c 	eor.w	r1, r1, ip
 80023a4:	41e9      	rors	r1, r5
 80023a6:	f3c1 4507 	ubfx	r5, r1, #16, #8
 80023aa:	0e0e      	lsrs	r6, r1, #24
 80023ac:	f858 5025 	ldr.w	r5, [r8, r5, lsl #2]
 80023b0:	f85e 6026 	ldr.w	r6, [lr, r6, lsl #2]
 80023b4:	1b75      	subs	r5, r6, r5
 80023b6:	f3c1 2607 	ubfx	r6, r1, #8, #8
 80023ba:	b2c9      	uxtb	r1, r1
 80023bc:	f85b 1021 	ldr.w	r1, [fp, r1, lsl #2]
 80023c0:	f853 6026 	ldr.w	r6, [r3, r6, lsl #2]
 80023c4:	4435      	add	r5, r6
 80023c6:	4061      	eors	r1, r4
 80023c8:	ea81 0405 	eor.w	r4, r1, r5
 80023cc:	6c41      	ldr	r1, [r0, #68]	; 0x44
 80023ce:	4255      	negs	r5, r2
 80023d0:	4421      	add	r1, r4
 80023d2:	41e9      	rors	r1, r5
 80023d4:	0e0d      	lsrs	r5, r1, #24
 80023d6:	f3c1 4607 	ubfx	r6, r1, #16, #8
 80023da:	f85e 5025 	ldr.w	r5, [lr, r5, lsl #2]
 80023de:	f858 6026 	ldr.w	r6, [r8, r6, lsl #2]
 80023e2:	4075      	eors	r5, r6
 80023e4:	f3c1 2607 	ubfx	r6, r1, #8, #8
 80023e8:	b2c9      	uxtb	r1, r1
 80023ea:	f853 6026 	ldr.w	r6, [r3, r6, lsl #2]
 80023ee:	f85b 1021 	ldr.w	r1, [fp, r1, lsl #2]
 80023f2:	1bad      	subs	r5, r5, r6
 80023f4:	4429      	add	r1, r5
 80023f6:	ea81 0a0c 	eor.w	sl, r1, ip
 80023fa:	6c01      	ldr	r1, [r0, #64]	; 0x40
 80023fc:	7bc6      	ldrb	r6, [r0, #15]
 80023fe:	eba1 010a 	sub.w	r1, r1, sl
 8002402:	4276      	negs	r6, r6
 8002404:	41f1      	rors	r1, r6
 8002406:	0e0e      	lsrs	r6, r1, #24
 8002408:	f3c1 4507 	ubfx	r5, r1, #16, #8
 800240c:	f85e 6026 	ldr.w	r6, [lr, r6, lsl #2]
 8002410:	f858 5025 	ldr.w	r5, [r8, r5, lsl #2]
 8002414:	442e      	add	r6, r5
 8002416:	f3c1 2507 	ubfx	r5, r1, #8, #8
 800241a:	b2c9      	uxtb	r1, r1
 800241c:	f853 5025 	ldr.w	r5, [r3, r5, lsl #2]
 8002420:	f85b 1021 	ldr.w	r1, [fp, r1, lsl #2]
 8002424:	406e      	eors	r6, r5
 8002426:	1a71      	subs	r1, r6, r1
 8002428:	7b86      	ldrb	r6, [r0, #14]
 800242a:	ea81 0c04 	eor.w	ip, r1, r4
 800242e:	6bc1      	ldr	r1, [r0, #60]	; 0x3c
 8002430:	4276      	negs	r6, r6
 8002432:	ea81 010c 	eor.w	r1, r1, ip
 8002436:	41f1      	rors	r1, r6
 8002438:	f3c1 4607 	ubfx	r6, r1, #16, #8
 800243c:	0e0d      	lsrs	r5, r1, #24
 800243e:	f858 6026 	ldr.w	r6, [r8, r6, lsl #2]
 8002442:	f85e 5025 	ldr.w	r5, [lr, r5, lsl #2]
 8002446:	1bae      	subs	r6, r5, r6
 8002448:	f3c1 2507 	ubfx	r5, r1, #8, #8
 800244c:	b2c9      	uxtb	r1, r1
 800244e:	f85b 1021 	ldr.w	r1, [fp, r1, lsl #2]
 8002452:	f853 5025 	ldr.w	r5, [r3, r5, lsl #2]
 8002456:	442e      	add	r6, r5
 8002458:	ea81 010a 	eor.w	r1, r1, sl
 800245c:	ea81 0906 	eor.w	r9, r1, r6
 8002460:	6b81      	ldr	r1, [r0, #56]	; 0x38
 8002462:	7b46      	ldrb	r6, [r0, #13]
 8002464:	4449      	add	r1, r9
 8002466:	4276      	negs	r6, r6
 8002468:	41f1      	rors	r1, r6
 800246a:	0e0e      	lsrs	r6, r1, #24
 800246c:	f3c1 4407 	ubfx	r4, r1, #16, #8
 8002470:	f85e 6026 	ldr.w	r6, [lr, r6, lsl #2]
 8002474:	f858 4024 	ldr.w	r4, [r8, r4, lsl #2]
 8002478:	4074      	eors	r4, r6
 800247a:	f3c1 2607 	ubfx	r6, r1, #8, #8
 800247e:	b2c9      	uxtb	r1, r1
 8002480:	f853 6026 	ldr.w	r6, [r3, r6, lsl #2]
 8002484:	f85b 1021 	ldr.w	r1, [fp, r1, lsl #2]
 8002488:	1ba4      	subs	r4, r4, r6
 800248a:	4421      	add	r1, r4
 800248c:	7b04      	ldrb	r4, [r0, #12]
 800248e:	ea81 060c 	eor.w	r6, r1, ip
 8002492:	6b41      	ldr	r1, [r0, #52]	; 0x34
 8002494:	4264      	negs	r4, r4
 8002496:	1b89      	subs	r1, r1, r6
 8002498:	41e1      	rors	r1, r4
 800249a:	0e0c      	lsrs	r4, r1, #24
 800249c:	f3c1 4507 	ubfx	r5, r1, #16, #8
 80024a0:	f85e 4024 	ldr.w	r4, [lr, r4, lsl #2]
 80024a4:	f858 5025 	ldr.w	r5, [r8, r5, lsl #2]
 80024a8:	4425      	add	r5, r4
 80024aa:	f3c1 2407 	ubfx	r4, r1, #8, #8
 80024ae:	b2c9      	uxtb	r1, r1
 80024b0:	f853 4024 	ldr.w	r4, [r3, r4, lsl #2]
 80024b4:	f85b 1021 	ldr.w	r1, [fp, r1, lsl #2]
 80024b8:	4065      	eors	r5, r4
 80024ba:	1a69      	subs	r1, r5, r1
 80024bc:	7ac5      	ldrb	r5, [r0, #11]
 80024be:	ea81 0c09 	eor.w	ip, r1, r9
 80024c2:	6b01      	ldr	r1, [r0, #48]	; 0x30
 80024c4:	426d      	negs	r5, r5
 80024c6:	ea81 010c 	eor.w	r1, r1, ip
 80024ca:	41e9      	rors	r1, r5
 80024cc:	f3c1 4507 	ubfx	r5, r1, #16, #8
 80024d0:	0e0c      	lsrs	r4, r1, #24
 80024d2:	f858 5025 	ldr.w	r5, [r8, r5, lsl #2]
 80024d6:	f85e 4024 	ldr.w	r4, [lr, r4, lsl #2]
 80024da:	1b64      	subs	r4, r4, r5
 80024dc:	f3c1 2507 	ubfx	r5, r1, #8, #8
 80024e0:	b2c9      	uxtb	r1, r1
 80024e2:	f85b 1021 	ldr.w	r1, [fp, r1, lsl #2]
 80024e6:	f853 5025 	ldr.w	r5, [r3, r5, lsl #2]
 80024ea:	442c      	add	r4, r5
 80024ec:	4071      	eors	r1, r6
 80024ee:	ea81 0904 	eor.w	r9, r1, r4
 80024f2:	6ac1      	ldr	r1, [r0, #44]	; 0x2c
 80024f4:	7a84      	ldrb	r4, [r0, #10]
 80024f6:	4449      	add	r1, r9
 80024f8:	4264      	negs	r4, r4
 80024fa:	41e1      	rors	r1, r4
 80024fc:	0e0c      	lsrs	r4, r1, #24
 80024fe:	f3c1 4607 	ubfx	r6, r1, #16, #8
 8002502:	f85e 4024 	ldr.w	r4, [lr, r4, lsl #2]
 8002506:	f858 6026 	ldr.w	r6, [r8, r6, lsl #2]
 800250a:	4074      	eors	r4, r6
 800250c:	f3c1 2607 	ubfx	r6, r1, #8, #8
 8002510:	b2c9      	uxtb	r1, r1
 8002512:	f853 6026 	ldr.w	r6, [r3, r6, lsl #2]
 8002516:	f85b 1021 	ldr.w	r1, [fp, r1, lsl #2]
 800251a:	1ba4      	subs	r4, r4, r6
 800251c:	7a46      	ldrb	r6, [r0, #9]
 800251e:	4421      	add	r1, r4
 8002520:	ea81 040c 	eor.w	r4, r1, ip
 8002524:	6a81      	ldr	r1, [r0, #40]	; 0x28
 8002526:	4276      	negs	r6, r6
 8002528:	1b09      	subs	r1, r1, r4
 800252a:	41f1      	rors	r1, r6
 800252c:	0e0e      	lsrs	r6, r1, #24
 800252e:	f3c1 4507 	ubfx	r5, r1, #16, #8
 8002532:	f85e 6026 	ldr.w	r6, [lr, r6, lsl #2]
 8002536:	f858 5025 	ldr.w	r5, [r8, r5, lsl #2]
 800253a:	442e      	add	r6, r5
 800253c:	f3c1 2507 	ubfx	r5, r1, #8, #8
 8002540:	b2c9      	uxtb	r1, r1
 8002542:	f853 5025 	ldr.w	r5, [r3, r5, lsl #2]
 8002546:	f85b 1021 	ldr.w	r1, [fp, r1, lsl #2]
 800254a:	406e      	eors	r6, r5
 800254c:	7a05      	ldrb	r5, [r0, #8]
 800254e:	1a71      	subs	r1, r6, r1
 8002550:	ea81 0c09 	eor.w	ip, r1, r9
 8002554:	6a41      	ldr	r1, [r0, #36]	; 0x24
 8002556:	426d      	negs	r5, r5
 8002558:	ea81 010c 	eor.w	r1, r1, ip
 800255c:	41e9      	rors	r1, r5
 800255e:	f3c1 4507 	ubfx	r5, r1, #16, #8
 8002562:	0e0e      	lsrs	r6, r1, #24
 8002564:	f858 5025 	ldr.w	r5, [r8, r5, lsl #2]
 8002568:	f85e 6026 	ldr.w	r6, [lr, r6, lsl #2]
 800256c:	1b75      	subs	r5, r6, r5
 800256e:	f3c1 2607 	ubfx	r6, r1, #8, #8
 8002572:	b2c9      	uxtb	r1, r1
 8002574:	7902      	ldrb	r2, [r0, #4]
 8002576:	f85b 1021 	ldr.w	r1, [fp, r1, lsl #2]
 800257a:	f853 6026 	ldr.w	r6, [r3, r6, lsl #2]
 800257e:	4435      	add	r5, r6
 8002580:	4061      	eors	r1, r4
 8002582:	ea81 0a05 	eor.w	sl, r1, r5
 8002586:	6a01      	ldr	r1, [r0, #32]
 8002588:	9200      	str	r2, [sp, #0]
 800258a:	4675      	mov	r5, lr
 800258c:	79c6      	ldrb	r6, [r0, #7]
 800258e:	f890 9005 	ldrb.w	r9, [r0, #5]
 8002592:	7982      	ldrb	r2, [r0, #6]
 8002594:	4451      	add	r1, sl
 8002596:	4276      	negs	r6, r6
 8002598:	41f1      	rors	r1, r6
 800259a:	0e0e      	lsrs	r6, r1, #24
 800259c:	f85e 6026 	ldr.w	r6, [lr, r6, lsl #2]
 80025a0:	f3c1 4e07 	ubfx	lr, r1, #16, #8
 80025a4:	f858 402e 	ldr.w	r4, [r8, lr, lsl #2]
 80025a8:	46ae      	mov	lr, r5
 80025aa:	4066      	eors	r6, r4
 80025ac:	f3c1 2407 	ubfx	r4, r1, #8, #8
 80025b0:	b2c9      	uxtb	r1, r1
 80025b2:	f853 4024 	ldr.w	r4, [r3, r4, lsl #2]
 80025b6:	f85b 1021 	ldr.w	r1, [fp, r1, lsl #2]
 80025ba:	1b36      	subs	r6, r6, r4
 80025bc:	4254      	negs	r4, r2
 80025be:	4431      	add	r1, r6
 80025c0:	ea81 060c 	eor.w	r6, r1, ip
 80025c4:	69c1      	ldr	r1, [r0, #28]
 80025c6:	1b89      	subs	r1, r1, r6
 80025c8:	41e1      	rors	r1, r4
 80025ca:	0e0c      	lsrs	r4, r1, #24
 80025cc:	f3c1 4507 	ubfx	r5, r1, #16, #8
 80025d0:	f85e 4024 	ldr.w	r4, [lr, r4, lsl #2]
 80025d4:	f858 5025 	ldr.w	r5, [r8, r5, lsl #2]
 80025d8:	4425      	add	r5, r4
 80025da:	f3c1 2407 	ubfx	r4, r1, #8, #8
 80025de:	b2c9      	uxtb	r1, r1
 80025e0:	f853 4024 	ldr.w	r4, [r3, r4, lsl #2]
 80025e4:	f85b 1021 	ldr.w	r1, [fp, r1, lsl #2]
 80025e8:	4065      	eors	r5, r4
 80025ea:	f1c9 0400 	rsb	r4, r9, #0
 80025ee:	1a69      	subs	r1, r5, r1
 80025f0:	ea81 0c0a 	eor.w	ip, r1, sl
 80025f4:	6981      	ldr	r1, [r0, #24]
 80025f6:	ea81 010c 	eor.w	r1, r1, ip
 80025fa:	41e1      	rors	r1, r4
 80025fc:	f3c1 4407 	ubfx	r4, r1, #16, #8
 8002600:	0e0d      	lsrs	r5, r1, #24
 8002602:	f858 4024 	ldr.w	r4, [r8, r4, lsl #2]
 8002606:	f85e 5025 	ldr.w	r5, [lr, r5, lsl #2]
 800260a:	1b2d      	subs	r5, r5, r4
 800260c:	f3c1 2407 	ubfx	r4, r1, #8, #8
 8002610:	b2c9      	uxtb	r1, r1
 8002612:	9a00      	ldr	r2, [sp, #0]
 8002614:	f85b 1021 	ldr.w	r1, [fp, r1, lsl #2]
 8002618:	f853 4024 	ldr.w	r4, [r3, r4, lsl #2]
 800261c:	4071      	eors	r1, r6
 800261e:	4425      	add	r5, r4
 8002620:	4256      	negs	r6, r2
 8002622:	ea81 0405 	eor.w	r4, r1, r5
 8002626:	6941      	ldr	r1, [r0, #20]
 8002628:	4421      	add	r1, r4
 800262a:	41f1      	rors	r1, r6
 800262c:	0e0e      	lsrs	r6, r1, #24
 800262e:	f3c1 4507 	ubfx	r5, r1, #16, #8
 8002632:	f85e 6026 	ldr.w	r6, [lr, r6, lsl #2]
 8002636:	f858 5025 	ldr.w	r5, [r8, r5, lsl #2]
 800263a:	406e      	eors	r6, r5
 800263c:	f3c1 2507 	ubfx	r5, r1, #8, #8
 8002640:	b2c9      	uxtb	r1, r1
 8002642:	9a01      	ldr	r2, [sp, #4]
 8002644:	f853 5025 	ldr.w	r5, [r3, r5, lsl #2]
 8002648:	f85b 1021 	ldr.w	r1, [fp, r1, lsl #2]
 800264c:	1b76      	subs	r6, r6, r5
 800264e:	4431      	add	r1, r6
 8002650:	ea81 010c 	eor.w	r1, r1, ip
 8002654:	0e0e      	lsrs	r6, r1, #24
 8002656:	7016      	strb	r6, [r2, #0]
 8002658:	0c0e      	lsrs	r6, r1, #16
 800265a:	7056      	strb	r6, [r2, #1]
 800265c:	0a0e      	lsrs	r6, r1, #8
 800265e:	7096      	strb	r6, [r2, #2]
 8002660:	70d1      	strb	r1, [r2, #3]
 8002662:	0e21      	lsrs	r1, r4, #24
 8002664:	7111      	strb	r1, [r2, #4]
 8002666:	0c21      	lsrs	r1, r4, #16
 8002668:	7151      	strb	r1, [r2, #5]
 800266a:	0a21      	lsrs	r1, r4, #8
 800266c:	7191      	strb	r1, [r2, #6]
 800266e:	71d4      	strb	r4, [r2, #7]
 8002670:	3208      	adds	r2, #8
 8002672:	9e02      	ldr	r6, [sp, #8]
 8002674:	9903      	ldr	r1, [sp, #12]
 8002676:	3608      	adds	r6, #8
 8002678:	3908      	subs	r1, #8
 800267a:	f47f ae39 	bne.w	80022f0 <cast128_decrypt+0x32>
 800267e:	b004      	add	sp, #16
 8002680:	e8bd 0f00 	ldmia.w	sp!, {r8, r9, sl, fp}
 8002684:	bdf0      	pop	{r4, r5, r6, r7, pc}

08002686 <cast128_set_key>:
 8002686:	b5f0      	push	{r4, r5, r6, r7, lr}
 8002688:	af03      	add	r7, sp, #12
 800268a:	e92d 0f00 	stmdb	sp!, {r8, r9, sl, fp}
 800268e:	b092      	sub	sp, #72	; 0x48
 8002690:	7853      	ldrb	r3, [r2, #1]
 8002692:	7815      	ldrb	r5, [r2, #0]
 8002694:	7896      	ldrb	r6, [r2, #2]
 8002696:	f892 e003 	ldrb.w	lr, [r2, #3]
 800269a:	041b      	lsls	r3, r3, #16
 800269c:	ea43 6305 	orr.w	r3, r3, r5, lsl #24
 80026a0:	ea43 2406 	orr.w	r4, r3, r6, lsl #8
 80026a4:	f001 0303 	and.w	r3, r1, #3
 80026a8:	2b01      	cmp	r3, #1
 80026aa:	d010      	beq.n	80026ce <cast128_set_key+0x48>
 80026ac:	2b02      	cmp	r3, #2
 80026ae:	d013      	beq.n	80026d8 <cast128_set_key+0x52>
 80026b0:	2b03      	cmp	r3, #3
 80026b2:	d11a      	bne.n	80026ea <cast128_set_key+0x64>
 80026b4:	1853      	adds	r3, r2, r1
 80026b6:	f813 5c02 	ldrb.w	r5, [r3, #-2]
 80026ba:	f813 6c03 	ldrb.w	r6, [r3, #-3]
 80026be:	f813 3c01 	ldrb.w	r3, [r3, #-1]
 80026c2:	022d      	lsls	r5, r5, #8
 80026c4:	ea45 4606 	orr.w	r6, r5, r6, lsl #16
 80026c8:	4333      	orrs	r3, r6
 80026ca:	021b      	lsls	r3, r3, #8
 80026cc:	e01c      	b.n	8002708 <cast128_set_key+0x82>
 80026ce:	1853      	adds	r3, r2, r1
 80026d0:	f813 3c01 	ldrb.w	r3, [r3, #-1]
 80026d4:	061b      	lsls	r3, r3, #24
 80026d6:	e017      	b.n	8002708 <cast128_set_key+0x82>
 80026d8:	1853      	adds	r3, r2, r1
 80026da:	f813 6c02 	ldrb.w	r6, [r3, #-2]
 80026de:	f813 3c01 	ldrb.w	r3, [r3, #-1]
 80026e2:	ea43 2306 	orr.w	r3, r3, r6, lsl #8
 80026e6:	041b      	lsls	r3, r3, #16
 80026e8:	e00e      	b.n	8002708 <cast128_set_key+0x82>
 80026ea:	1853      	adds	r3, r2, r1
 80026ec:	f813 5c03 	ldrb.w	r5, [r3, #-3]
 80026f0:	f813 6c04 	ldrb.w	r6, [r3, #-4]
 80026f4:	f813 cc02 	ldrb.w	ip, [r3, #-2]
 80026f8:	f813 3c01 	ldrb.w	r3, [r3, #-1]
 80026fc:	042d      	lsls	r5, r5, #16
 80026fe:	ea45 6606 	orr.w	r6, r5, r6, lsl #24
 8002702:	ea46 260c 	orr.w	r6, r6, ip, lsl #8
 8002706:	4333      	orrs	r3, r6
 8002708:	ea4e 0e04 	orr.w	lr, lr, r4
 800270c:	2909      	cmp	r1, #9
 800270e:	e9cd 1010 	strd	r1, r0, [sp, #64]	; 0x40
 8002712:	da04      	bge.n	800271e <cast128_set_key+0x98>
 8002714:	f04f 0c00 	mov.w	ip, #0
 8002718:	930c      	str	r3, [sp, #48]	; 0x30
 800271a:	2100      	movs	r1, #0
 800271c:	e01d      	b.n	800275a <cast128_set_key+0xd4>
 800271e:	7956      	ldrb	r6, [r2, #5]
 8002720:	7910      	ldrb	r0, [r2, #4]
 8002722:	7995      	ldrb	r5, [r2, #6]
 8002724:	79d4      	ldrb	r4, [r2, #7]
 8002726:	290d      	cmp	r1, #13
 8002728:	ea4f 4606 	mov.w	r6, r6, lsl #16
 800272c:	ea46 6000 	orr.w	r0, r6, r0, lsl #24
 8002730:	ea40 2005 	orr.w	r0, r0, r5, lsl #8
 8002734:	ea40 0004 	orr.w	r0, r0, r4
 8002738:	900c      	str	r0, [sp, #48]	; 0x30
 800273a:	da02      	bge.n	8002742 <cast128_set_key+0xbc>
 800273c:	2100      	movs	r1, #0
 800273e:	469c      	mov	ip, r3
 8002740:	e00b      	b.n	800275a <cast128_set_key+0xd4>
 8002742:	7a56      	ldrb	r6, [r2, #9]
 8002744:	7a11      	ldrb	r1, [r2, #8]
 8002746:	7a95      	ldrb	r5, [r2, #10]
 8002748:	7ad2      	ldrb	r2, [r2, #11]
 800274a:	0436      	lsls	r6, r6, #16
 800274c:	ea46 6101 	orr.w	r1, r6, r1, lsl #24
 8002750:	ea41 2105 	orr.w	r1, r1, r5, lsl #8
 8002754:	ea41 0c02 	orr.w	ip, r1, r2
 8002758:	4619      	mov	r1, r3
 800275a:	f249 5aa8 	movw	sl, #38312	; 0x95a8
 800275e:	f649 10a8 	movw	r0, #39336	; 0x99a8
 8002762:	f3c1 4307 	ubfx	r3, r1, #16, #8
 8002766:	b2ca      	uxtb	r2, r1
 8002768:	f649 54a8 	movw	r4, #40360	; 0x9da8
 800276c:	f24a 16a8 	movw	r6, #41384	; 0xa1a8
 8002770:	f6c0 0a00 	movt	sl, #2048	; 0x800
 8002774:	f6c0 0000 	movt	r0, #2048	; 0x800
 8002778:	f6c0 0400 	movt	r4, #2048	; 0x800
 800277c:	f6c0 0600 	movt	r6, #2048	; 0x800
 8002780:	f85a 3023 	ldr.w	r3, [sl, r3, lsl #2]
 8002784:	f850 2022 	ldr.w	r2, [r0, r2, lsl #2]
 8002788:	4680      	mov	r8, r0
 800278a:	46b1      	mov	r9, r6
 800278c:	ea83 000e 	eor.w	r0, r3, lr
 8002790:	4050      	eors	r0, r2
 8002792:	0e0a      	lsrs	r2, r1, #24
 8002794:	f854 2022 	ldr.w	r2, [r4, r2, lsl #2]
 8002798:	4050      	eors	r0, r2
 800279a:	f3c1 2207 	ubfx	r2, r1, #8, #8
 800279e:	f856 2022 	ldr.w	r2, [r6, r2, lsl #2]
 80027a2:	4050      	eors	r0, r2
 80027a4:	ea4f 621c 	mov.w	r2, ip, lsr #24
 80027a8:	f854 2022 	ldr.w	r2, [r4, r2, lsl #2]
 80027ac:	ea80 0502 	eor.w	r5, r0, r2
 80027b0:	0e28      	lsrs	r0, r5, #24
 80027b2:	950d      	str	r5, [sp, #52]	; 0x34
 80027b4:	900a      	str	r0, [sp, #40]	; 0x28
 80027b6:	f85a 0020 	ldr.w	r0, [sl, r0, lsl #2]
 80027ba:	ea80 020c 	eor.w	r2, r0, ip
 80027be:	f3c5 2007 	ubfx	r0, r5, #8, #8
 80027c2:	f858 3020 	ldr.w	r3, [r8, r0, lsl #2]
 80027c6:	9004      	str	r0, [sp, #16]
 80027c8:	f3c5 4007 	ubfx	r0, r5, #16, #8
 80027cc:	900e      	str	r0, [sp, #56]	; 0x38
 80027ce:	f854 0020 	ldr.w	r0, [r4, r0, lsl #2]
 80027d2:	405a      	eors	r2, r3
 80027d4:	9009      	str	r0, [sp, #36]	; 0x24
 80027d6:	4042      	eors	r2, r0
 80027d8:	b2e8      	uxtb	r0, r5
 80027da:	f856 3020 	ldr.w	r3, [r6, r0, lsl #2]
 80027de:	900f      	str	r0, [sp, #60]	; 0x3c
 80027e0:	405a      	eors	r2, r3
 80027e2:	f3cc 2307 	ubfx	r3, ip, #8, #8
 80027e6:	f856 3023 	ldr.w	r3, [r6, r3, lsl #2]
 80027ea:	4666      	mov	r6, ip
 80027ec:	46a4      	mov	ip, r4
 80027ee:	9603      	str	r6, [sp, #12]
 80027f0:	ea82 0003 	eor.w	r0, r2, r3
 80027f4:	fa5f fb80 	uxtb.w	fp, r0
 80027f8:	900b      	str	r0, [sp, #44]	; 0x2c
 80027fa:	f85a 202b 	ldr.w	r2, [sl, fp, lsl #2]
 80027fe:	f8cd b018 	str.w	fp, [sp, #24]
 8002802:	f85c b02b 	ldr.w	fp, [ip, fp, lsl #2]
 8002806:	404a      	eors	r2, r1
 8002808:	f3c0 2107 	ubfx	r1, r0, #8, #8
 800280c:	f3c0 4307 	ubfx	r3, r0, #16, #8
 8002810:	0e00      	lsrs	r0, r0, #24
 8002812:	f858 e021 	ldr.w	lr, [r8, r1, lsl #2]
 8002816:	f85c 5023 	ldr.w	r5, [ip, r3, lsl #2]
 800281a:	9307      	str	r3, [sp, #28]
 800281c:	9008      	str	r0, [sp, #32]
 800281e:	f3c6 4307 	ubfx	r3, r6, #16, #8
 8002822:	f859 4020 	ldr.w	r4, [r9, r0, lsl #2]
 8002826:	f85a 3023 	ldr.w	r3, [sl, r3, lsl #2]
 800282a:	ea82 020e 	eor.w	r2, r2, lr
 800282e:	406a      	eors	r2, r5
 8002830:	4062      	eors	r2, r4
 8002832:	4053      	eors	r3, r2
 8002834:	f24a 12a8 	movw	r2, #41384	; 0xa1a8
 8002838:	f3c3 4007 	ubfx	r0, r3, #16, #8
 800283c:	ea4f 6913 	mov.w	r9, r3, lsr #24
 8002840:	f8dd c010 	ldr.w	ip, [sp, #16]
 8002844:	f6c0 0200 	movt	r2, #2048	; 0x800
 8002848:	9005      	str	r0, [sp, #20]
 800284a:	f858 0020 	ldr.w	r0, [r8, r0, lsl #2]
 800284e:	f85a 8029 	ldr.w	r8, [sl, r9, lsl #2]
 8002852:	ea88 0800 	eor.w	r8, r8, r0
 8002856:	ea88 080b 	eor.w	r8, r8, fp
 800285a:	f852 b021 	ldr.w	fp, [r2, r1, lsl #2]
 800285e:	f85a 202c 	ldr.w	r2, [sl, ip, lsl #2]
 8002862:	ea88 060b 	eor.w	r6, r8, fp
 8002866:	f649 18a8 	movw	r8, #39336	; 0x99a8
 800286a:	4072      	eors	r2, r6
 800286c:	9e11      	ldr	r6, [sp, #68]	; 0x44
 800286e:	f6c0 0800 	movt	r8, #2048	; 0x800
 8002872:	6172      	str	r2, [r6, #20]
 8002874:	f3c3 2207 	ubfx	r2, r3, #8, #8
 8002878:	f85a 2022 	ldr.w	r2, [sl, r2, lsl #2]
 800287c:	fa5f fa83 	uxtb.w	sl, r3
 8002880:	f858 102a 	ldr.w	r1, [r8, sl, lsl #2]
 8002884:	4051      	eors	r1, r2
 8002886:	4069      	eors	r1, r5
 8002888:	f649 55a8 	movw	r5, #40360	; 0x9da8
 800288c:	4061      	eors	r1, r4
 800288e:	f6c0 0500 	movt	r5, #2048	; 0x800
 8002892:	ea81 010e 	eor.w	r1, r1, lr
 8002896:	46b6      	mov	lr, r6
 8002898:	61b1      	str	r1, [r6, #24]
 800289a:	f24a 16a8 	movw	r6, #41384	; 0xa1a8
 800289e:	990c      	ldr	r1, [sp, #48]	; 0x30
 80028a0:	f6c0 0600 	movt	r6, #2048	; 0x800
 80028a4:	f856 402c 	ldr.w	r4, [r6, ip, lsl #2]
 80028a8:	4051      	eors	r1, r2
 80028aa:	4048      	eors	r0, r1
 80028ac:	f855 102a 	ldr.w	r1, [r5, sl, lsl #2]
 80028b0:	46c2      	mov	sl, r8
 80028b2:	4048      	eors	r0, r1
 80028b4:	f856 1029 	ldr.w	r1, [r6, r9, lsl #2]
 80028b8:	4048      	eors	r0, r1
 80028ba:	9903      	ldr	r1, [sp, #12]
 80028bc:	b2c9      	uxtb	r1, r1
 80028be:	f858 1021 	ldr.w	r1, [r8, r1, lsl #2]
 80028c2:	ea80 0901 	eor.w	r9, r0, r1
 80028c6:	f3c9 4007 	ubfx	r0, r9, #16, #8
 80028ca:	ea4f 6119 	mov.w	r1, r9, lsr #24
 80028ce:	f858 0020 	ldr.w	r0, [r8, r0, lsl #2]
 80028d2:	f249 58a8 	movw	r8, #38312	; 0x95a8
 80028d6:	f6c0 0800 	movt	r8, #2048	; 0x800
 80028da:	f858 2021 	ldr.w	r2, [r8, r1, lsl #2]
 80028de:	f856 1021 	ldr.w	r1, [r6, r1, lsl #2]
 80028e2:	46c4      	mov	ip, r8
 80028e4:	4050      	eors	r0, r2
 80028e6:	9a0f      	ldr	r2, [sp, #60]	; 0x3c
 80028e8:	f855 2022 	ldr.w	r2, [r5, r2, lsl #2]
 80028ec:	4050      	eors	r0, r2
 80028ee:	9a05      	ldr	r2, [sp, #20]
 80028f0:	4060      	eors	r0, r4
 80028f2:	f855 2022 	ldr.w	r2, [r5, r2, lsl #2]
 80028f6:	4050      	eors	r0, r2
 80028f8:	fa5f f289 	uxtb.w	r2, r9
 80028fc:	f8ce 001c 	str.w	r0, [lr, #28]
 8002900:	f3c9 2007 	ubfx	r0, r9, #8, #8
 8002904:	f85a 2022 	ldr.w	r2, [sl, r2, lsl #2]
 8002908:	9d0a      	ldr	r5, [sp, #40]	; 0x28
 800290a:	f858 0020 	ldr.w	r0, [r8, r0, lsl #2]
 800290e:	4050      	eors	r0, r2
 8002910:	9a09      	ldr	r2, [sp, #36]	; 0x24
 8002912:	4050      	eors	r0, r2
 8002914:	f856 2025 	ldr.w	r2, [r6, r5, lsl #2]
 8002918:	4050      	eors	r0, r2
 800291a:	f649 52a8 	movw	r2, #40360	; 0x9da8
 800291e:	4048      	eors	r0, r1
 8002920:	f6c0 0200 	movt	r2, #2048	; 0x800
 8002924:	f8ce 0020 	str.w	r0, [lr, #32]
 8002928:	9807      	ldr	r0, [sp, #28]
 800292a:	9906      	ldr	r1, [sp, #24]
 800292c:	f85c 0020 	ldr.w	r0, [ip, r0, lsl #2]
 8002930:	f85a 1021 	ldr.w	r1, [sl, r1, lsl #2]
 8002934:	4058      	eors	r0, r3
 8002936:	4048      	eors	r0, r1
 8002938:	9908      	ldr	r1, [sp, #32]
 800293a:	f852 1021 	ldr.w	r1, [r2, r1, lsl #2]
 800293e:	4048      	eors	r0, r1
 8002940:	f852 1025 	ldr.w	r1, [r2, r5, lsl #2]
 8002944:	ea80 000b 	eor.w	r0, r0, fp
 8002948:	ea80 0301 	eor.w	r3, r0, r1
 800294c:	9309      	str	r3, [sp, #36]	; 0x24
 800294e:	f3c3 2007 	ubfx	r0, r3, #8, #8
 8002952:	ea4f 6e13 	mov.w	lr, r3, lsr #24
 8002956:	990d      	ldr	r1, [sp, #52]	; 0x34
 8002958:	f3c3 4807 	ubfx	r8, r3, #16, #8
 800295c:	b2dd      	uxtb	r5, r3
 800295e:	f85a b020 	ldr.w	fp, [sl, r0, lsl #2]
 8002962:	f85c 002e 	ldr.w	r0, [ip, lr, lsl #2]
 8002966:	9505      	str	r5, [sp, #20]
 8002968:	4048      	eors	r0, r1
 800296a:	4611      	mov	r1, r2
 800296c:	f851 2028 	ldr.w	r2, [r1, r8, lsl #2]
 8002970:	ea80 000b 	eor.w	r0, r0, fp
 8002974:	4050      	eors	r0, r2
 8002976:	f856 2025 	ldr.w	r2, [r6, r5, lsl #2]
 800297a:	4050      	eors	r0, r2
 800297c:	ea80 0304 	eor.w	r3, r0, r4
 8002980:	930c      	str	r3, [sp, #48]	; 0x30
 8002982:	f3c3 2007 	ubfx	r0, r3, #8, #8
 8002986:	f85a 2020 	ldr.w	r2, [sl, r0, lsl #2]
 800298a:	b2d8      	uxtb	r0, r3
 800298c:	f85c 4020 	ldr.w	r4, [ip, r0, lsl #2]
 8002990:	900a      	str	r0, [sp, #40]	; 0x28
 8002992:	980b      	ldr	r0, [sp, #44]	; 0x2c
 8002994:	9206      	str	r2, [sp, #24]
 8002996:	4060      	eors	r0, r4
 8002998:	9407      	str	r4, [sp, #28]
 800299a:	460c      	mov	r4, r1
 800299c:	4050      	eors	r0, r2
 800299e:	f3c3 4207 	ubfx	r2, r3, #16, #8
 80029a2:	920b      	str	r2, [sp, #44]	; 0x2c
 80029a4:	f851 2022 	ldr.w	r2, [r1, r2, lsl #2]
 80029a8:	0e19      	lsrs	r1, r3, #24
 80029aa:	4663      	mov	r3, ip
 80029ac:	9108      	str	r1, [sp, #32]
 80029ae:	4050      	eors	r0, r2
 80029b0:	f856 2021 	ldr.w	r2, [r6, r1, lsl #2]
 80029b4:	990e      	ldr	r1, [sp, #56]	; 0x38
 80029b6:	4050      	eors	r0, r2
 80029b8:	f853 2021 	ldr.w	r2, [r3, r1, lsl #2]
 80029bc:	4631      	mov	r1, r6
 80029be:	ea80 0c02 	eor.w	ip, r0, r2
 80029c2:	f3cc 2007 	ubfx	r0, ip, #8, #8
 80029c6:	f853 2020 	ldr.w	r2, [r3, r0, lsl #2]
 80029ca:	9004      	str	r0, [sp, #16]
 80029cc:	f3cc 4007 	ubfx	r0, ip, #16, #8
 80029d0:	f85a 3020 	ldr.w	r3, [sl, r0, lsl #2]
 80029d4:	900d      	str	r0, [sp, #52]	; 0x34
 80029d6:	fa5f f08c 	uxtb.w	r0, ip
 80029da:	900e      	str	r0, [sp, #56]	; 0x38
 80029dc:	ea82 0209 	eor.w	r2, r2, r9
 80029e0:	405a      	eors	r2, r3
 80029e2:	f854 3020 	ldr.w	r3, [r4, r0, lsl #2]
 80029e6:	ea4f 601c 	mov.w	r0, ip, lsr #24
 80029ea:	405a      	eors	r2, r3
 80029ec:	f851 3020 	ldr.w	r3, [r1, r0, lsl #2]
 80029f0:	405a      	eors	r2, r3
 80029f2:	9b0f      	ldr	r3, [sp, #60]	; 0x3c
 80029f4:	f85a 3023 	ldr.w	r3, [sl, r3, lsl #2]
 80029f8:	ea82 0a03 	eor.w	sl, r2, r3
 80029fc:	ea4f 631a 	mov.w	r3, sl, lsr #24
 8002a00:	f854 2023 	ldr.w	r2, [r4, r3, lsl #2]
 8002a04:	f249 53a8 	movw	r3, #38312	; 0x95a8
 8002a08:	f6c0 0300 	movt	r3, #2048	; 0x800
 8002a0c:	f853 9025 	ldr.w	r9, [r3, r5, lsl #2]
 8002a10:	460d      	mov	r5, r1
 8002a12:	920f      	str	r2, [sp, #60]	; 0x3c
 8002a14:	ea89 040b 	eor.w	r4, r9, fp
 8002a18:	f3ca 4b07 	ubfx	fp, sl, #16, #8
 8002a1c:	f649 19a8 	movw	r9, #39336	; 0x99a8
 8002a20:	f851 602b 	ldr.w	r6, [r1, fp, lsl #2]
 8002a24:	4054      	eors	r4, r2
 8002a26:	9a11      	ldr	r2, [sp, #68]	; 0x44
 8002a28:	f6c0 0900 	movt	r9, #2048	; 0x800
 8002a2c:	f649 51a8 	movw	r1, #40360	; 0x9da8
 8002a30:	f6c0 0100 	movt	r1, #2048	; 0x800
 8002a34:	4074      	eors	r4, r6
 8002a36:	f853 6020 	ldr.w	r6, [r3, r0, lsl #2]
 8002a3a:	f851 0020 	ldr.w	r0, [r1, r0, lsl #2]
 8002a3e:	4074      	eors	r4, r6
 8002a40:	f859 602e 	ldr.w	r6, [r9, lr, lsl #2]
 8002a44:	46ae      	mov	lr, r5
 8002a46:	6254      	str	r4, [r2, #36]	; 0x24
 8002a48:	f853 4028 	ldr.w	r4, [r3, r8, lsl #2]
 8002a4c:	4698      	mov	r8, r3
 8002a4e:	4074      	eors	r4, r6
 8002a50:	f3ca 2607 	ubfx	r6, sl, #8, #8
 8002a54:	f851 3026 	ldr.w	r3, [r1, r6, lsl #2]
 8002a58:	f85e 6026 	ldr.w	r6, [lr, r6, lsl #2]
 8002a5c:	4063      	eors	r3, r4
 8002a5e:	fa5f f48a 	uxtb.w	r4, sl
 8002a62:	f85e 5024 	ldr.w	r5, [lr, r4, lsl #2]
 8002a66:	406b      	eors	r3, r5
 8002a68:	f859 502b 	ldr.w	r5, [r9, fp, lsl #2]
 8002a6c:	406b      	eors	r3, r5
 8002a6e:	6293      	str	r3, [r2, #40]	; 0x28
 8002a70:	e9dd 5306 	ldrd	r5, r3, [sp, #24]
 8002a74:	406b      	eors	r3, r5
 8002a76:	9d0d      	ldr	r5, [sp, #52]	; 0x34
 8002a78:	4043      	eors	r3, r0
 8002a7a:	f85e 5025 	ldr.w	r5, [lr, r5, lsl #2]
 8002a7e:	406b      	eors	r3, r5
 8002a80:	9d05      	ldr	r5, [sp, #20]
 8002a82:	f851 5025 	ldr.w	r5, [r1, r5, lsl #2]
 8002a86:	406b      	eors	r3, r5
 8002a88:	62d3      	str	r3, [r2, #44]	; 0x2c
 8002a8a:	9b0b      	ldr	r3, [sp, #44]	; 0x2c
 8002a8c:	9d08      	ldr	r5, [sp, #32]
 8002a8e:	f858 3023 	ldr.w	r3, [r8, r3, lsl #2]
 8002a92:	f859 5025 	ldr.w	r5, [r9, r5, lsl #2]
 8002a96:	f8dd 8010 	ldr.w	r8, [sp, #16]
 8002a9a:	406b      	eors	r3, r5
 8002a9c:	f851 5028 	ldr.w	r5, [r1, r8, lsl #2]
 8002aa0:	990a      	ldr	r1, [sp, #40]	; 0x28
 8002aa2:	406b      	eors	r3, r5
 8002aa4:	9d0e      	ldr	r5, [sp, #56]	; 0x38
 8002aa6:	f85e 5025 	ldr.w	r5, [lr, r5, lsl #2]
 8002aaa:	406b      	eors	r3, r5
 8002aac:	f85e 5021 	ldr.w	r5, [lr, r1, lsl #2]
 8002ab0:	f249 51a8 	movw	r1, #38312	; 0x95a8
 8002ab4:	f6c0 0100 	movt	r1, #2048	; 0x800
 8002ab8:	406b      	eors	r3, r5
 8002aba:	6313      	str	r3, [r2, #48]	; 0x30
 8002abc:	f859 3024 	ldr.w	r3, [r9, r4, lsl #2]
 8002ac0:	f851 402b 	ldr.w	r4, [r1, fp, lsl #2]
 8002ac4:	9a09      	ldr	r2, [sp, #36]	; 0x24
 8002ac6:	ea84 0502 	eor.w	r5, r4, r2
 8002aca:	9a0f      	ldr	r2, [sp, #60]	; 0x3c
 8002acc:	406b      	eors	r3, r5
 8002ace:	f649 55a8 	movw	r5, #40360	; 0x9da8
 8002ad2:	f6c0 0500 	movt	r5, #2048	; 0x800
 8002ad6:	4053      	eors	r3, r2
 8002ad8:	4073      	eors	r3, r6
 8002ada:	460e      	mov	r6, r1
 8002adc:	ea83 0200 	eor.w	r2, r3, r0
 8002ae0:	0e10      	lsrs	r0, r2, #24
 8002ae2:	9207      	str	r2, [sp, #28]
 8002ae4:	b2d4      	uxtb	r4, r2
 8002ae6:	9005      	str	r0, [sp, #20]
 8002ae8:	f851 0020 	ldr.w	r0, [r1, r0, lsl #2]
 8002aec:	f3c2 2107 	ubfx	r1, r2, #8, #8
 8002af0:	910b      	str	r1, [sp, #44]	; 0x2c
 8002af2:	f859 b021 	ldr.w	fp, [r9, r1, lsl #2]
 8002af6:	f3c2 4107 	ubfx	r1, r2, #16, #8
 8002afa:	9409      	str	r4, [sp, #36]	; 0x24
 8002afc:	9101      	str	r1, [sp, #4]
 8002afe:	f855 1021 	ldr.w	r1, [r5, r1, lsl #2]
 8002b02:	ea80 000c 	eor.w	r0, r0, ip
 8002b06:	46b4      	mov	ip, r6
 8002b08:	ea80 000b 	eor.w	r0, r0, fp
 8002b0c:	4048      	eors	r0, r1
 8002b0e:	f85e 1024 	ldr.w	r1, [lr, r4, lsl #2]
 8002b12:	4048      	eors	r0, r1
 8002b14:	f85e 1028 	ldr.w	r1, [lr, r8, lsl #2]
 8002b18:	46c8      	mov	r8, r9
 8002b1a:	ea80 0301 	eor.w	r3, r0, r1
 8002b1e:	b2d8      	uxtb	r0, r3
 8002b20:	930a      	str	r3, [sp, #40]	; 0x28
 8002b22:	900f      	str	r0, [sp, #60]	; 0x3c
 8002b24:	f856 0020 	ldr.w	r0, [r6, r0, lsl #2]
 8002b28:	462e      	mov	r6, r5
 8002b2a:	9003      	str	r0, [sp, #12]
 8002b2c:	f3c3 2207 	ubfx	r2, r3, #8, #8
 8002b30:	ea80 000a 	eor.w	r0, r0, sl
 8002b34:	f859 1022 	ldr.w	r1, [r9, r2, lsl #2]
 8002b38:	9208      	str	r2, [sp, #32]
 8002b3a:	9102      	str	r1, [sp, #8]
 8002b3c:	4048      	eors	r0, r1
 8002b3e:	f3c3 4107 	ubfx	r1, r3, #16, #8
 8002b42:	f855 2021 	ldr.w	r2, [r5, r1, lsl #2]
 8002b46:	9106      	str	r1, [sp, #24]
 8002b48:	990d      	ldr	r1, [sp, #52]	; 0x34
 8002b4a:	4042      	eors	r2, r0
 8002b4c:	0e18      	lsrs	r0, r3, #24
 8002b4e:	f85e 3020 	ldr.w	r3, [lr, r0, lsl #2]
 8002b52:	9004      	str	r0, [sp, #16]
 8002b54:	4670      	mov	r0, lr
 8002b56:	405a      	eors	r2, r3
 8002b58:	f85c 3021 	ldr.w	r3, [ip, r1, lsl #2]
 8002b5c:	ea82 0e03 	eor.w	lr, r2, r3
 8002b60:	f3ce 2107 	ubfx	r1, lr, #8, #8
 8002b64:	9a0c      	ldr	r2, [sp, #48]	; 0x30
 8002b66:	f85c 3021 	ldr.w	r3, [ip, r1, lsl #2]
 8002b6a:	910d      	str	r1, [sp, #52]	; 0x34
 8002b6c:	f3ce 4907 	ubfx	r9, lr, #16, #8
 8002b70:	fa5f f18e 	uxtb.w	r1, lr
 8002b74:	f858 5029 	ldr.w	r5, [r8, r9, lsl #2]
 8002b78:	910c      	str	r1, [sp, #48]	; 0x30
 8002b7a:	4053      	eors	r3, r2
 8002b7c:	f856 2021 	ldr.w	r2, [r6, r1, lsl #2]
 8002b80:	406b      	eors	r3, r5
 8002b82:	ea4f 651e 	mov.w	r5, lr, lsr #24
 8002b86:	405a      	eors	r2, r3
 8002b88:	f850 3025 	ldr.w	r3, [r0, r5, lsl #2]
 8002b8c:	405a      	eors	r2, r3
 8002b8e:	9b0e      	ldr	r3, [sp, #56]	; 0x38
 8002b90:	f858 3023 	ldr.w	r3, [r8, r3, lsl #2]
 8002b94:	f85c 8024 	ldr.w	r8, [ip, r4, lsl #2]
 8002b98:	ea82 0a03 	eor.w	sl, r2, r3
 8002b9c:	ea88 040b 	eor.w	r4, r8, fp
 8002ba0:	4633      	mov	r3, r6
 8002ba2:	ea4f 681a 	mov.w	r8, sl, lsr #24
 8002ba6:	f3ca 4207 	ubfx	r2, sl, #16, #8
 8002baa:	9911      	ldr	r1, [sp, #68]	; 0x44
 8002bac:	f856 b028 	ldr.w	fp, [r6, r8, lsl #2]
 8002bb0:	f850 2022 	ldr.w	r2, [r0, r2, lsl #2]
 8002bb4:	ea84 040b 	eor.w	r4, r4, fp
 8002bb8:	4062      	eors	r2, r4
 8002bba:	f85c 4029 	ldr.w	r4, [ip, r9, lsl #2]
 8002bbe:	4062      	eors	r2, r4
 8002bc0:	634a      	str	r2, [r1, #52]	; 0x34
 8002bc2:	fa5f f28a 	uxtb.w	r2, sl
 8002bc6:	f3ca 2407 	ubfx	r4, sl, #8, #8
 8002bca:	9e05      	ldr	r6, [sp, #20]
 8002bcc:	f850 b022 	ldr.w	fp, [r0, r2, lsl #2]
 8002bd0:	9801      	ldr	r0, [sp, #4]
 8002bd2:	f853 2024 	ldr.w	r2, [r3, r4, lsl #2]
 8002bd6:	f85c 0020 	ldr.w	r0, [ip, r0, lsl #2]
 8002bda:	f649 1ca8 	movw	ip, #39336	; 0x99a8
 8002bde:	f6c0 0c00 	movt	ip, #2048	; 0x800
 8002be2:	f85c 4026 	ldr.w	r4, [ip, r6, lsl #2]
 8002be6:	900e      	str	r0, [sp, #56]	; 0x38
 8002be8:	4044      	eors	r4, r0
 8002bea:	4062      	eors	r2, r4
 8002bec:	f85c 4028 	ldr.w	r4, [ip, r8, lsl #2]
 8002bf0:	4688      	mov	r8, r1
 8002bf2:	ea82 020b 	eor.w	r2, r2, fp
 8002bf6:	46e3      	mov	fp, ip
 8002bf8:	f24a 1ca8 	movw	ip, #41384	; 0xa1a8
 8002bfc:	f6c0 0c00 	movt	ip, #2048	; 0x800
 8002c00:	4062      	eors	r2, r4
 8002c02:	f8c8 2038 	str.w	r2, [r8, #56]	; 0x38
 8002c06:	f853 2025 	ldr.w	r2, [r3, r5, lsl #2]
 8002c0a:	e9dd 5102 	ldrd	r5, r1, [sp, #8]
 8002c0e:	ea85 0401 	eor.w	r4, r5, r1
 8002c12:	f24a 11a8 	movw	r1, #41384	; 0xa1a8
 8002c16:	f6c0 0100 	movt	r1, #2048	; 0x800
 8002c1a:	4062      	eors	r2, r4
 8002c1c:	f851 4029 	ldr.w	r4, [r1, r9, lsl #2]
 8002c20:	f8dd 902c 	ldr.w	r9, [sp, #44]	; 0x2c
 8002c24:	4062      	eors	r2, r4
 8002c26:	f853 4029 	ldr.w	r4, [r3, r9, lsl #2]
 8002c2a:	4062      	eors	r2, r4
 8002c2c:	f8c8 203c 	str.w	r2, [r8, #60]	; 0x3c
 8002c30:	980d      	ldr	r0, [sp, #52]	; 0x34
 8002c32:	9904      	ldr	r1, [sp, #16]
 8002c34:	f853 2020 	ldr.w	r2, [r3, r0, lsl #2]
 8002c38:	9806      	ldr	r0, [sp, #24]
 8002c3a:	f249 53a8 	movw	r3, #38312	; 0x95a8
 8002c3e:	f85b 4021 	ldr.w	r4, [fp, r1, lsl #2]
 8002c42:	f6c0 0300 	movt	r3, #2048	; 0x800
 8002c46:	f853 5020 	ldr.w	r5, [r3, r0, lsl #2]
 8002c4a:	980c      	ldr	r0, [sp, #48]	; 0x30
 8002c4c:	406c      	eors	r4, r5
 8002c4e:	4062      	eors	r2, r4
 8002c50:	f85c 4020 	ldr.w	r4, [ip, r0, lsl #2]
 8002c54:	9808      	ldr	r0, [sp, #32]
 8002c56:	4062      	eors	r2, r4
 8002c58:	f85c 4020 	ldr.w	r4, [ip, r0, lsl #2]
 8002c5c:	4062      	eors	r2, r4
 8002c5e:	f8c8 2040 	str.w	r2, [r8, #64]	; 0x40
 8002c62:	ea85 020e 	eor.w	r2, r5, lr
 8002c66:	980f      	ldr	r0, [sp, #60]	; 0x3c
 8002c68:	f85b 5020 	ldr.w	r5, [fp, r0, lsl #2]
 8002c6c:	406a      	eors	r2, r5
 8002c6e:	f649 55a8 	movw	r5, #40360	; 0x9da8
 8002c72:	f6c0 0500 	movt	r5, #2048	; 0x800
 8002c76:	f855 0021 	ldr.w	r0, [r5, r1, lsl #2]
 8002c7a:	46a8      	mov	r8, r5
 8002c7c:	9907      	ldr	r1, [sp, #28]
 8002c7e:	4050      	eors	r0, r2
 8002c80:	f855 2026 	ldr.w	r2, [r5, r6, lsl #2]
 8002c84:	4666      	mov	r6, ip
 8002c86:	4060      	eors	r0, r4
 8002c88:	461c      	mov	r4, r3
 8002c8a:	4633      	mov	r3, r6
 8002c8c:	ea80 0502 	eor.w	r5, r0, r2
 8002c90:	0e28      	lsrs	r0, r5, #24
 8002c92:	9008      	str	r0, [sp, #32]
 8002c94:	f854 0020 	ldr.w	r0, [r4, r0, lsl #2]
 8002c98:	4048      	eors	r0, r1
 8002c9a:	f3c5 2107 	ubfx	r1, r5, #8, #8
 8002c9e:	f85b 2021 	ldr.w	r2, [fp, r1, lsl #2]
 8002ca2:	9106      	str	r1, [sp, #24]
 8002ca4:	4050      	eors	r0, r2
 8002ca6:	f3c5 4207 	ubfx	r2, r5, #16, #8
 8002caa:	950f      	str	r5, [sp, #60]	; 0x3c
 8002cac:	f858 1022 	ldr.w	r1, [r8, r2, lsl #2]
 8002cb0:	9107      	str	r1, [sp, #28]
 8002cb2:	4048      	eors	r0, r1
 8002cb4:	b2e9      	uxtb	r1, r5
 8002cb6:	f856 2021 	ldr.w	r2, [r6, r1, lsl #2]
 8002cba:	9105      	str	r1, [sp, #20]
 8002cbc:	990a      	ldr	r1, [sp, #40]	; 0x28
 8002cbe:	4050      	eors	r0, r2
 8002cc0:	f856 2029 	ldr.w	r2, [r6, r9, lsl #2]
 8002cc4:	46d9      	mov	r9, fp
 8002cc6:	ea80 0602 	eor.w	r6, r0, r2
 8002cca:	b2f2      	uxtb	r2, r6
 8002ccc:	f3c6 2507 	ubfx	r5, r6, #8, #8
 8002cd0:	f854 0022 	ldr.w	r0, [r4, r2, lsl #2]
 8002cd4:	4048      	eors	r0, r1
 8002cd6:	f85b 1025 	ldr.w	r1, [fp, r5, lsl #2]
 8002cda:	4048      	eors	r0, r1
 8002cdc:	f3c6 4107 	ubfx	r1, r6, #16, #8
 8002ce0:	960d      	str	r6, [sp, #52]	; 0x34
 8002ce2:	f858 1021 	ldr.w	r1, [r8, r1, lsl #2]
 8002ce6:	9104      	str	r1, [sp, #16]
 8002ce8:	4041      	eors	r1, r0
 8002cea:	0e30      	lsrs	r0, r6, #24
 8002cec:	f853 0020 	ldr.w	r0, [r3, r0, lsl #2]
 8002cf0:	9003      	str	r0, [sp, #12]
 8002cf2:	4041      	eors	r1, r0
 8002cf4:	980e      	ldr	r0, [sp, #56]	; 0x38
 8002cf6:	ea81 0b00 	eor.w	fp, r1, r0
 8002cfa:	f3cb 2007 	ubfx	r0, fp, #8, #8
 8002cfe:	fa5f fc8b 	uxtb.w	ip, fp
 8002d02:	f854 1020 	ldr.w	r1, [r4, r0, lsl #2]
 8002d06:	900a      	str	r0, [sp, #40]	; 0x28
 8002d08:	f3cb 4007 	ubfx	r0, fp, #16, #8
 8002d0c:	f858 602c 	ldr.w	r6, [r8, ip, lsl #2]
 8002d10:	f859 e020 	ldr.w	lr, [r9, r0, lsl #2]
 8002d14:	900b      	str	r0, [sp, #44]	; 0x2c
 8002d16:	f24a 10a8 	movw	r0, #41384	; 0xa1a8
 8002d1a:	f6c0 0000 	movt	r0, #2048	; 0x800
 8002d1e:	ea81 030a 	eor.w	r3, r1, sl
 8002d22:	ea83 030e 	eor.w	r3, r3, lr
 8002d26:	405e      	eors	r6, r3
 8002d28:	ea4f 631b 	mov.w	r3, fp, lsr #24
 8002d2c:	f850 8023 	ldr.w	r8, [r0, r3, lsl #2]
 8002d30:	9809      	ldr	r0, [sp, #36]	; 0x24
 8002d32:	f859 0020 	ldr.w	r0, [r9, r0, lsl #2]
 8002d36:	ea86 0608 	eor.w	r6, r6, r8
 8002d3a:	ea86 0900 	eor.w	r9, r6, r0
 8002d3e:	9810      	ldr	r0, [sp, #64]	; 0x40
 8002d40:	280a      	cmp	r0, #10
 8002d42:	dd60      	ble.n	8002e06 <cast128_set_key+0x780>
 8002d44:	f649 50a8 	movw	r0, #40360	; 0x9da8
 8002d48:	9e05      	ldr	r6, [sp, #20]
 8002d4a:	ea4f 6a19 	mov.w	sl, r9, lsr #24
 8002d4e:	f6c0 0000 	movt	r0, #2048	; 0x800
 8002d52:	f850 8022 	ldr.w	r8, [r0, r2, lsl #2]
 8002d56:	f249 50a8 	movw	r0, #38312	; 0x95a8
 8002d5a:	f6c0 0000 	movt	r0, #2048	; 0x800
 8002d5e:	4604      	mov	r4, r0
 8002d60:	f854 0023 	ldr.w	r0, [r4, r3, lsl #2]
 8002d64:	ea80 000e 	eor.w	r0, r0, lr
 8002d68:	ea80 0008 	eor.w	r0, r0, r8
 8002d6c:	f24a 18a8 	movw	r8, #41384	; 0xa1a8
 8002d70:	f6c0 0800 	movt	r8, #2048	; 0x800
 8002d74:	f858 5025 	ldr.w	r5, [r8, r5, lsl #2]
 8002d78:	4068      	eors	r0, r5
 8002d7a:	f854 5026 	ldr.w	r5, [r4, r6, lsl #2]
 8002d7e:	4068      	eors	r0, r5
 8002d80:	4625      	mov	r5, r4
 8002d82:	9c11      	ldr	r4, [sp, #68]	; 0x44
 8002d84:	6460      	str	r0, [r4, #68]	; 0x44
 8002d86:	f649 10a8 	movw	r0, #39336	; 0x99a8
 8002d8a:	f6c0 0000 	movt	r0, #2048	; 0x800
 8002d8e:	4686      	mov	lr, r0
 8002d90:	f85e 0022 	ldr.w	r0, [lr, r2, lsl #2]
 8002d94:	f85e 202c 	ldr.w	r2, [lr, ip, lsl #2]
 8002d98:	f649 5ca8 	movw	ip, #40360	; 0x9da8
 8002d9c:	f6c0 0c00 	movt	ip, #2048	; 0x800
 8002da0:	920c      	str	r2, [sp, #48]	; 0x30
 8002da2:	4051      	eors	r1, r2
 8002da4:	9a04      	ldr	r2, [sp, #16]
 8002da6:	4051      	eors	r1, r2
 8002da8:	9a03      	ldr	r2, [sp, #12]
 8002daa:	4051      	eors	r1, r2
 8002dac:	4048      	eors	r0, r1
 8002dae:	64a0      	str	r0, [r4, #72]	; 0x48
 8002db0:	f3c9 4107 	ubfx	r1, r9, #16, #8
 8002db4:	f855 002a 	ldr.w	r0, [r5, sl, lsl #2]
 8002db8:	f85e 2021 	ldr.w	r2, [lr, r1, lsl #2]
 8002dbc:	4050      	eors	r0, r2
 8002dbe:	f85c 2026 	ldr.w	r2, [ip, r6, lsl #2]
 8002dc2:	f85c c023 	ldr.w	ip, [ip, r3, lsl #2]
 8002dc6:	462e      	mov	r6, r5
 8002dc8:	4050      	eors	r0, r2
 8002dca:	9a06      	ldr	r2, [sp, #24]
 8002dcc:	f858 2022 	ldr.w	r2, [r8, r2, lsl #2]
 8002dd0:	4050      	eors	r0, r2
 8002dd2:	ea80 000c 	eor.w	r0, r0, ip
 8002dd6:	64e0      	str	r0, [r4, #76]	; 0x4c
 8002dd8:	f3c9 2207 	ubfx	r2, r9, #8, #8
 8002ddc:	f855 0022 	ldr.w	r0, [r5, r2, lsl #2]
 8002de0:	fa5f f589 	uxtb.w	r5, r9
 8002de4:	f85e 3025 	ldr.w	r3, [lr, r5, lsl #2]
 8002de8:	eb0e 0e85 	add.w	lr, lr, r5, lsl #2
 8002dec:	4058      	eors	r0, r3
 8002dee:	9b07      	ldr	r3, [sp, #28]
 8002df0:	4058      	eors	r0, r3
 8002df2:	9b08      	ldr	r3, [sp, #32]
 8002df4:	f858 3023 	ldr.w	r3, [r8, r3, lsl #2]
 8002df8:	4058      	eors	r0, r3
 8002dfa:	f858 3021 	ldr.w	r3, [r8, r1, lsl #2]
 8002dfe:	4058      	eors	r0, r3
 8002e00:	6520      	str	r0, [r4, #80]	; 0x50
 8002e02:	4634      	mov	r4, r6
 8002e04:	e01f      	b.n	8002e46 <cast128_set_key+0x7c0>
 8002e06:	f649 10a8 	movw	r0, #39336	; 0x99a8
 8002e0a:	f24a 18a8 	movw	r8, #41384	; 0xa1a8
 8002e0e:	f249 54a8 	movw	r4, #38312	; 0x95a8
 8002e12:	ea4f 6a19 	mov.w	sl, r9, lsr #24
 8002e16:	f6c0 0000 	movt	r0, #2048	; 0x800
 8002e1a:	f6c0 0800 	movt	r8, #2048	; 0x800
 8002e1e:	f6c0 0400 	movt	r4, #2048	; 0x800
 8002e22:	4601      	mov	r1, r0
 8002e24:	f851 002c 	ldr.w	r0, [r1, ip, lsl #2]
 8002e28:	900c      	str	r0, [sp, #48]	; 0x30
 8002e2a:	fa5f f089 	uxtb.w	r0, r9
 8002e2e:	f3c9 2207 	ubfx	r2, r9, #8, #8
 8002e32:	eb01 0e80 	add.w	lr, r1, r0, lsl #2
 8002e36:	f649 51a8 	movw	r1, #40360	; 0x9da8
 8002e3a:	f6c0 0100 	movt	r1, #2048	; 0x800
 8002e3e:	f851 c023 	ldr.w	ip, [r1, r3, lsl #2]
 8002e42:	f3c9 4107 	ubfx	r1, r9, #16, #8
 8002e46:	f649 53a8 	movw	r3, #40360	; 0x9da8
 8002e4a:	f854 1021 	ldr.w	r1, [r4, r1, lsl #2]
 8002e4e:	f6c0 0300 	movt	r3, #2048	; 0x800
 8002e52:	4618      	mov	r0, r3
 8002e54:	f850 302a 	ldr.w	r3, [r0, sl, lsl #2]
 8002e58:	4682      	mov	sl, r0
 8002e5a:	980f      	ldr	r0, [sp, #60]	; 0x3c
 8002e5c:	4041      	eors	r1, r0
 8002e5e:	f8de 0000 	ldr.w	r0, [lr]
 8002e62:	4048      	eors	r0, r1
 8002e64:	f858 1022 	ldr.w	r1, [r8, r2, lsl #2]
 8002e68:	4058      	eors	r0, r3
 8002e6a:	4048      	eors	r0, r1
 8002e6c:	f649 11a8 	movw	r1, #39336	; 0x99a8
 8002e70:	ea80 030c 	eor.w	r3, r0, ip
 8002e74:	f6c0 0100 	movt	r1, #2048	; 0x800
 8002e78:	46a4      	mov	ip, r4
 8002e7a:	0e18      	lsrs	r0, r3, #24
 8002e7c:	9308      	str	r3, [sp, #32]
 8002e7e:	468e      	mov	lr, r1
 8002e80:	9007      	str	r0, [sp, #28]
 8002e82:	f854 0020 	ldr.w	r0, [r4, r0, lsl #2]
 8002e86:	f3c3 2207 	ubfx	r2, r3, #8, #8
 8002e8a:	920f      	str	r2, [sp, #60]	; 0x3c
 8002e8c:	f851 2022 	ldr.w	r2, [r1, r2, lsl #2]
 8002e90:	f3c3 4107 	ubfx	r1, r3, #16, #8
 8002e94:	9109      	str	r1, [sp, #36]	; 0x24
 8002e96:	f85a 1021 	ldr.w	r1, [sl, r1, lsl #2]
 8002e9a:	ea80 000b 	eor.w	r0, r0, fp
 8002e9e:	46c3      	mov	fp, r8
 8002ea0:	4050      	eors	r0, r2
 8002ea2:	9106      	str	r1, [sp, #24]
 8002ea4:	4048      	eors	r0, r1
 8002ea6:	b2d9      	uxtb	r1, r3
 8002ea8:	f858 2021 	ldr.w	r2, [r8, r1, lsl #2]
 8002eac:	910e      	str	r1, [sp, #56]	; 0x38
 8002eae:	990a      	ldr	r1, [sp, #40]	; 0x28
 8002eb0:	4050      	eors	r0, r2
 8002eb2:	f858 2021 	ldr.w	r2, [r8, r1, lsl #2]
 8002eb6:	ea80 0102 	eor.w	r1, r0, r2
 8002eba:	b2ca      	uxtb	r2, r1
 8002ebc:	910a      	str	r1, [sp, #40]	; 0x28
 8002ebe:	f854 0022 	ldr.w	r0, [r4, r2, lsl #2]
 8002ec2:	4616      	mov	r6, r2
 8002ec4:	4674      	mov	r4, lr
 8002ec6:	9603      	str	r6, [sp, #12]
 8002ec8:	ea80 0009 	eor.w	r0, r0, r9
 8002ecc:	f3c1 2907 	ubfx	r9, r1, #8, #8
 8002ed0:	f3c1 4207 	ubfx	r2, r1, #16, #8
 8002ed4:	0e09      	lsrs	r1, r1, #24
 8002ed6:	9204      	str	r2, [sp, #16]
 8002ed8:	f85a e022 	ldr.w	lr, [sl, r2, lsl #2]
 8002edc:	9a0b      	ldr	r2, [sp, #44]	; 0x2c
 8002ede:	f854 8029 	ldr.w	r8, [r4, r9, lsl #2]
 8002ee2:	9105      	str	r1, [sp, #20]
 8002ee4:	f85b 1021 	ldr.w	r1, [fp, r1, lsl #2]
 8002ee8:	f85c 3022 	ldr.w	r3, [ip, r2, lsl #2]
 8002eec:	ea80 0008 	eor.w	r0, r0, r8
 8002ef0:	ea80 000e 	eor.w	r0, r0, lr
 8002ef4:	4048      	eors	r0, r1
 8002ef6:	4058      	eors	r0, r3
 8002ef8:	f3c0 4207 	ubfx	r2, r0, #16, #8
 8002efc:	0e03      	lsrs	r3, r0, #24
 8002efe:	9202      	str	r2, [sp, #8]
 8002f00:	f854 2022 	ldr.w	r2, [r4, r2, lsl #2]
 8002f04:	f649 54a8 	movw	r4, #40360	; 0x9da8
 8002f08:	f85c 5023 	ldr.w	r5, [ip, r3, lsl #2]
 8002f0c:	f6c0 0400 	movt	r4, #2048	; 0x800
 8002f10:	f854 a026 	ldr.w	sl, [r4, r6, lsl #2]
 8002f14:	f85b 4029 	ldr.w	r4, [fp, r9, lsl #2]
 8002f18:	f8dd 9044 	ldr.w	r9, [sp, #68]	; 0x44
 8002f1c:	4055      	eors	r5, r2
 8002f1e:	ea85 050a 	eor.w	r5, r5, sl
 8002f22:	940b      	str	r4, [sp, #44]	; 0x2c
 8002f24:	4065      	eors	r5, r4
 8002f26:	9c0f      	ldr	r4, [sp, #60]	; 0x3c
 8002f28:	f85c 6024 	ldr.w	r6, [ip, r4, lsl #2]
 8002f2c:	f649 14a8 	movw	r4, #39336	; 0x99a8
 8002f30:	f6c0 0400 	movt	r4, #2048	; 0x800
 8002f34:	4075      	eors	r5, r6
 8002f36:	b2c6      	uxtb	r6, r0
 8002f38:	f005 051f 	and.w	r5, r5, #31
 8002f3c:	f854 a026 	ldr.w	sl, [r4, r6, lsl #2]
 8002f40:	f889 5004 	strb.w	r5, [r9, #4]
 8002f44:	f3c0 2507 	ubfx	r5, r0, #8, #8
 8002f48:	f85c 5025 	ldr.w	r5, [ip, r5, lsl #2]
 8002f4c:	ea8a 0405 	eor.w	r4, sl, r5
 8002f50:	ea84 040e 	eor.w	r4, r4, lr
 8002f54:	4061      	eors	r1, r4
 8002f56:	f649 54a8 	movw	r4, #40360	; 0x9da8
 8002f5a:	ea81 0108 	eor.w	r1, r1, r8
 8002f5e:	f6c0 0400 	movt	r4, #2048	; 0x800
 8002f62:	f001 011f 	and.w	r1, r1, #31
 8002f66:	f889 1005 	strb.w	r1, [r9, #5]
 8002f6a:	990d      	ldr	r1, [sp, #52]	; 0x34
 8002f6c:	4069      	eors	r1, r5
 8002f6e:	f649 15a8 	movw	r5, #39336	; 0x99a8
 8002f72:	4051      	eors	r1, r2
 8002f74:	f854 2026 	ldr.w	r2, [r4, r6, lsl #2]
 8002f78:	f6c0 0500 	movt	r5, #2048	; 0x800
 8002f7c:	46ae      	mov	lr, r5
 8002f7e:	4051      	eors	r1, r2
 8002f80:	f85b 2023 	ldr.w	r2, [fp, r3, lsl #2]
 8002f84:	4051      	eors	r1, r2
 8002f86:	9a0c      	ldr	r2, [sp, #48]	; 0x30
 8002f88:	ea81 0802 	eor.w	r8, r1, r2
 8002f8c:	f3c8 4107 	ubfx	r1, r8, #16, #8
 8002f90:	ea4f 6218 	mov.w	r2, r8, lsr #24
 8002f94:	f85c 3022 	ldr.w	r3, [ip, r2, lsl #2]
 8002f98:	f855 1021 	ldr.w	r1, [r5, r1, lsl #2]
 8002f9c:	f85b 2022 	ldr.w	r2, [fp, r2, lsl #2]
 8002fa0:	4059      	eors	r1, r3
 8002fa2:	9b0e      	ldr	r3, [sp, #56]	; 0x38
 8002fa4:	f854 3023 	ldr.w	r3, [r4, r3, lsl #2]
 8002fa8:	4059      	eors	r1, r3
 8002faa:	9b0f      	ldr	r3, [sp, #60]	; 0x3c
 8002fac:	f85b 6023 	ldr.w	r6, [fp, r3, lsl #2]
 8002fb0:	9b02      	ldr	r3, [sp, #8]
 8002fb2:	f854 3023 	ldr.w	r3, [r4, r3, lsl #2]
 8002fb6:	4071      	eors	r1, r6
 8002fb8:	4059      	eors	r1, r3
 8002fba:	fa5f f388 	uxtb.w	r3, r8
 8002fbe:	f001 011f 	and.w	r1, r1, #31
 8002fc2:	f855 3023 	ldr.w	r3, [r5, r3, lsl #2]
 8002fc6:	f889 1006 	strb.w	r1, [r9, #6]
 8002fca:	f3c8 2107 	ubfx	r1, r8, #8, #8
 8002fce:	9d07      	ldr	r5, [sp, #28]
 8002fd0:	f85c 1021 	ldr.w	r1, [ip, r1, lsl #2]
 8002fd4:	4059      	eors	r1, r3
 8002fd6:	9b06      	ldr	r3, [sp, #24]
 8002fd8:	4059      	eors	r1, r3
 8002fda:	f85b 3025 	ldr.w	r3, [fp, r5, lsl #2]
 8002fde:	4059      	eors	r1, r3
 8002fe0:	4623      	mov	r3, r4
 8002fe2:	4051      	eors	r1, r2
 8002fe4:	f001 011f 	and.w	r1, r1, #31
 8002fe8:	f889 1007 	strb.w	r1, [r9, #7]
 8002fec:	46f1      	mov	r9, lr
 8002fee:	9904      	ldr	r1, [sp, #16]
 8002ff0:	f85c 1021 	ldr.w	r1, [ip, r1, lsl #2]
 8002ff4:	4048      	eors	r0, r1
 8002ff6:	9903      	ldr	r1, [sp, #12]
 8002ff8:	f859 1021 	ldr.w	r1, [r9, r1, lsl #2]
 8002ffc:	4048      	eors	r0, r1
 8002ffe:	9905      	ldr	r1, [sp, #20]
 8003000:	f853 1021 	ldr.w	r1, [r3, r1, lsl #2]
 8003004:	4048      	eors	r0, r1
 8003006:	990b      	ldr	r1, [sp, #44]	; 0x2c
 8003008:	4048      	eors	r0, r1
 800300a:	f853 1025 	ldr.w	r1, [r3, r5, lsl #2]
 800300e:	461d      	mov	r5, r3
 8003010:	ea80 0301 	eor.w	r3, r0, r1
 8003014:	930b      	str	r3, [sp, #44]	; 0x2c
 8003016:	f3c3 2007 	ubfx	r0, r3, #8, #8
 800301a:	9a08      	ldr	r2, [sp, #32]
 800301c:	fa5f fa83 	uxtb.w	sl, r3
 8003020:	f859 1020 	ldr.w	r1, [r9, r0, lsl #2]
 8003024:	0e18      	lsrs	r0, r3, #24
 8003026:	9006      	str	r0, [sp, #24]
 8003028:	f85c 0020 	ldr.w	r0, [ip, r0, lsl #2]
 800302c:	f3c3 4e07 	ubfx	lr, r3, #16, #8
 8003030:	4050      	eors	r0, r2
 8003032:	f855 202e 	ldr.w	r2, [r5, lr, lsl #2]
 8003036:	4048      	eors	r0, r1
 8003038:	4050      	eors	r0, r2
 800303a:	f85b 202a 	ldr.w	r2, [fp, sl, lsl #2]
 800303e:	4050      	eors	r0, r2
 8003040:	ea80 0406 	eor.w	r4, r0, r6
 8003044:	940c      	str	r4, [sp, #48]	; 0x30
 8003046:	f3c4 2007 	ubfx	r0, r4, #8, #8
 800304a:	f859 2020 	ldr.w	r2, [r9, r0, lsl #2]
 800304e:	b2e0      	uxtb	r0, r4
 8003050:	f85c 3020 	ldr.w	r3, [ip, r0, lsl #2]
 8003054:	9008      	str	r0, [sp, #32]
 8003056:	980a      	ldr	r0, [sp, #40]	; 0x28
 8003058:	9204      	str	r2, [sp, #16]
 800305a:	4058      	eors	r0, r3
 800305c:	9305      	str	r3, [sp, #20]
 800305e:	4050      	eors	r0, r2
 8003060:	f3c4 4207 	ubfx	r2, r4, #16, #8
 8003064:	920a      	str	r2, [sp, #40]	; 0x28
 8003066:	f855 2022 	ldr.w	r2, [r5, r2, lsl #2]
 800306a:	4050      	eors	r0, r2
 800306c:	0e22      	lsrs	r2, r4, #24
 800306e:	9207      	str	r2, [sp, #28]
 8003070:	f85b 2022 	ldr.w	r2, [fp, r2, lsl #2]
 8003074:	4050      	eors	r0, r2
 8003076:	9a09      	ldr	r2, [sp, #36]	; 0x24
 8003078:	f85c 2022 	ldr.w	r2, [ip, r2, lsl #2]
 800307c:	4042      	eors	r2, r0
 800307e:	f3c2 2007 	ubfx	r0, r2, #8, #8
 8003082:	9009      	str	r0, [sp, #36]	; 0x24
 8003084:	f3c2 4307 	ubfx	r3, r2, #16, #8
 8003088:	f85c 0020 	ldr.w	r0, [ip, r0, lsl #2]
 800308c:	f859 4023 	ldr.w	r4, [r9, r3, lsl #2]
 8003090:	930d      	str	r3, [sp, #52]	; 0x34
 8003092:	9b0e      	ldr	r3, [sp, #56]	; 0x38
 8003094:	ea80 0008 	eor.w	r0, r0, r8
 8003098:	4060      	eors	r0, r4
 800309a:	b2d4      	uxtb	r4, r2
 800309c:	940f      	str	r4, [sp, #60]	; 0x3c
 800309e:	f855 4024 	ldr.w	r4, [r5, r4, lsl #2]
 80030a2:	4044      	eors	r4, r0
 80030a4:	0e10      	lsrs	r0, r2, #24
 80030a6:	f85b 6020 	ldr.w	r6, [fp, r0, lsl #2]
 80030aa:	4066      	eors	r6, r4
 80030ac:	f859 4023 	ldr.w	r4, [r9, r3, lsl #2]
 80030b0:	ea86 0804 	eor.w	r8, r6, r4
 80030b4:	ea4f 6618 	mov.w	r6, r8, lsr #24
 80030b8:	f855 3026 	ldr.w	r3, [r5, r6, lsl #2]
 80030bc:	f85c 602a 	ldr.w	r6, [ip, sl, lsl #2]
 80030c0:	4071      	eors	r1, r6
 80030c2:	930e      	str	r3, [sp, #56]	; 0x38
 80030c4:	ea81 0603 	eor.w	r6, r1, r3
 80030c8:	f3c8 4307 	ubfx	r3, r8, #16, #8
 80030cc:	f8dd 9044 	ldr.w	r9, [sp, #68]	; 0x44
 80030d0:	f85b 4023 	ldr.w	r4, [fp, r3, lsl #2]
 80030d4:	4074      	eors	r4, r6
 80030d6:	f85c 6020 	ldr.w	r6, [ip, r0, lsl #2]
 80030da:	4074      	eors	r4, r6
 80030dc:	f004 041f 	and.w	r4, r4, #31
 80030e0:	f889 4008 	strb.w	r4, [r9, #8]
 80030e4:	f85c 402e 	ldr.w	r4, [ip, lr, lsl #2]
 80030e8:	f649 1ea8 	movw	lr, #39336	; 0x99a8
 80030ec:	9906      	ldr	r1, [sp, #24]
 80030ee:	f6c0 0e00 	movt	lr, #2048	; 0x800
 80030f2:	f3c8 2507 	ubfx	r5, r8, #8, #8
 80030f6:	9506      	str	r5, [sp, #24]
 80030f8:	f85e 6021 	ldr.w	r6, [lr, r1, lsl #2]
 80030fc:	f649 51a8 	movw	r1, #40360	; 0x9da8
 8003100:	f6c0 0100 	movt	r1, #2048	; 0x800
 8003104:	f851 0020 	ldr.w	r0, [r1, r0, lsl #2]
 8003108:	4074      	eors	r4, r6
 800310a:	f851 6025 	ldr.w	r6, [r1, r5, lsl #2]
 800310e:	4074      	eors	r4, r6
 8003110:	fa5f f688 	uxtb.w	r6, r8
 8003114:	f85b 5026 	ldr.w	r5, [fp, r6, lsl #2]
 8003118:	406c      	eors	r4, r5
 800311a:	f85e 5023 	ldr.w	r5, [lr, r3, lsl #2]
 800311e:	406c      	eors	r4, r5
 8003120:	f004 041f 	and.w	r4, r4, #31
 8003124:	f889 4009 	strb.w	r4, [r9, #9]
 8003128:	e9dd 5404 	ldrd	r5, r4, [sp, #16]
 800312c:	406c      	eors	r4, r5
 800312e:	9d0d      	ldr	r5, [sp, #52]	; 0x34
 8003130:	4044      	eors	r4, r0
 8003132:	f85b 5025 	ldr.w	r5, [fp, r5, lsl #2]
 8003136:	406c      	eors	r4, r5
 8003138:	f851 502a 	ldr.w	r5, [r1, sl, lsl #2]
 800313c:	46f2      	mov	sl, lr
 800313e:	406c      	eors	r4, r5
 8003140:	f004 041f 	and.w	r4, r4, #31
 8003144:	f889 400a 	strb.w	r4, [r9, #10]
 8003148:	9c0a      	ldr	r4, [sp, #40]	; 0x28
 800314a:	9d07      	ldr	r5, [sp, #28]
 800314c:	f8dd e024 	ldr.w	lr, [sp, #36]	; 0x24
 8003150:	f85c 4024 	ldr.w	r4, [ip, r4, lsl #2]
 8003154:	f85a 5025 	ldr.w	r5, [sl, r5, lsl #2]
 8003158:	406c      	eors	r4, r5
 800315a:	f851 502e 	ldr.w	r5, [r1, lr, lsl #2]
 800315e:	9908      	ldr	r1, [sp, #32]
 8003160:	406c      	eors	r4, r5
 8003162:	9d0f      	ldr	r5, [sp, #60]	; 0x3c
 8003164:	f85b 5025 	ldr.w	r5, [fp, r5, lsl #2]
 8003168:	406c      	eors	r4, r5
 800316a:	f85b 5021 	ldr.w	r5, [fp, r1, lsl #2]
 800316e:	f85c 1023 	ldr.w	r1, [ip, r3, lsl #2]
 8003172:	406c      	eors	r4, r5
 8003174:	4655      	mov	r5, sl
 8003176:	f004 041f 	and.w	r4, r4, #31
 800317a:	f889 400b 	strb.w	r4, [r9, #11]
 800317e:	f85a 4026 	ldr.w	r4, [sl, r6, lsl #2]
 8003182:	9b0b      	ldr	r3, [sp, #44]	; 0x2c
 8003184:	4059      	eors	r1, r3
 8003186:	9b0e      	ldr	r3, [sp, #56]	; 0x38
 8003188:	4061      	eors	r1, r4
 800318a:	4059      	eors	r1, r3
 800318c:	9b06      	ldr	r3, [sp, #24]
 800318e:	f85b 3023 	ldr.w	r3, [fp, r3, lsl #2]
 8003192:	4059      	eors	r1, r3
 8003194:	f649 53a8 	movw	r3, #40360	; 0x9da8
 8003198:	ea81 0400 	eor.w	r4, r1, r0
 800319c:	f6c0 0300 	movt	r3, #2048	; 0x800
 80031a0:	0e20      	lsrs	r0, r4, #24
 80031a2:	9402      	str	r4, [sp, #8]
 80031a4:	9008      	str	r0, [sp, #32]
 80031a6:	f3c4 2107 	ubfx	r1, r4, #8, #8
 80031aa:	f85c 0020 	ldr.w	r0, [ip, r0, lsl #2]
 80031ae:	f85a 9021 	ldr.w	r9, [sl, r1, lsl #2]
 80031b2:	910a      	str	r1, [sp, #40]	; 0x28
 80031b4:	f3c4 4107 	ubfx	r1, r4, #16, #8
 80031b8:	fa5f fa84 	uxtb.w	sl, r4
 80031bc:	9104      	str	r1, [sp, #16]
 80031be:	f853 1021 	ldr.w	r1, [r3, r1, lsl #2]
 80031c2:	4050      	eors	r0, r2
 80031c4:	ea80 0009 	eor.w	r0, r0, r9
 80031c8:	4048      	eors	r0, r1
 80031ca:	f85b 102a 	ldr.w	r1, [fp, sl, lsl #2]
 80031ce:	4048      	eors	r0, r1
 80031d0:	f85b 102e 	ldr.w	r1, [fp, lr, lsl #2]
 80031d4:	46ae      	mov	lr, r5
 80031d6:	4041      	eors	r1, r0
 80031d8:	b2c8      	uxtb	r0, r1
 80031da:	910e      	str	r1, [sp, #56]	; 0x38
 80031dc:	900b      	str	r0, [sp, #44]	; 0x2c
 80031de:	f85c 0020 	ldr.w	r0, [ip, r0, lsl #2]
 80031e2:	9005      	str	r0, [sp, #20]
 80031e4:	f3c1 2207 	ubfx	r2, r1, #8, #8
 80031e8:	ea80 0008 	eor.w	r0, r0, r8
 80031ec:	f85c 802a 	ldr.w	r8, [ip, sl, lsl #2]
 80031f0:	9209      	str	r2, [sp, #36]	; 0x24
 80031f2:	f855 2022 	ldr.w	r2, [r5, r2, lsl #2]
 80031f6:	9203      	str	r2, [sp, #12]
 80031f8:	4050      	eors	r0, r2
 80031fa:	f3c1 4207 	ubfx	r2, r1, #16, #8
 80031fe:	0e09      	lsrs	r1, r1, #24
 8003200:	9207      	str	r2, [sp, #28]
 8003202:	f853 2022 	ldr.w	r2, [r3, r2, lsl #2]
 8003206:	9106      	str	r1, [sp, #24]
 8003208:	4050      	eors	r0, r2
 800320a:	f85b 2021 	ldr.w	r2, [fp, r1, lsl #2]
 800320e:	990d      	ldr	r1, [sp, #52]	; 0x34
 8003210:	4050      	eors	r0, r2
 8003212:	f85c 2021 	ldr.w	r2, [ip, r1, lsl #2]
 8003216:	4042      	eors	r2, r0
 8003218:	f3c2 2007 	ubfx	r0, r2, #8, #8
 800321c:	990c      	ldr	r1, [sp, #48]	; 0x30
 800321e:	900d      	str	r0, [sp, #52]	; 0x34
 8003220:	f85c 0020 	ldr.w	r0, [ip, r0, lsl #2]
 8003224:	f3c2 4607 	ubfx	r6, r2, #16, #8
 8003228:	f855 4026 	ldr.w	r4, [r5, r6, lsl #2]
 800322c:	0e15      	lsrs	r5, r2, #24
 800322e:	4048      	eors	r0, r1
 8003230:	b2d1      	uxtb	r1, r2
 8003232:	4060      	eors	r0, r4
 8003234:	f853 4021 	ldr.w	r4, [r3, r1, lsl #2]
 8003238:	910c      	str	r1, [sp, #48]	; 0x30
 800323a:	f85b 3025 	ldr.w	r3, [fp, r5, lsl #2]
 800323e:	990f      	ldr	r1, [sp, #60]	; 0x3c
 8003240:	4044      	eors	r4, r0
 8003242:	f649 50a8 	movw	r0, #40360	; 0x9da8
 8003246:	4063      	eors	r3, r4
 8003248:	f85e 4021 	ldr.w	r4, [lr, r1, lsl #2]
 800324c:	f6c0 0000 	movt	r0, #2048	; 0x800
 8003250:	405c      	eors	r4, r3
 8003252:	f3c4 4307 	ubfx	r3, r4, #16, #8
 8003256:	f8cd a004 	str.w	sl, [sp, #4]
 800325a:	f85b e023 	ldr.w	lr, [fp, r3, lsl #2]
 800325e:	ea88 0309 	eor.w	r3, r8, r9
 8003262:	ea4f 6814 	mov.w	r8, r4, lsr #24
 8003266:	f8dd 9044 	ldr.w	r9, [sp, #68]	; 0x44
 800326a:	f850 1028 	ldr.w	r1, [r0, r8, lsl #2]
 800326e:	4059      	eors	r1, r3
 8003270:	f85c 3026 	ldr.w	r3, [ip, r6, lsl #2]
 8003274:	ea81 010e 	eor.w	r1, r1, lr
 8003278:	4059      	eors	r1, r3
 800327a:	f001 011f 	and.w	r1, r1, #31
 800327e:	f889 100c 	strb.w	r1, [r9, #12]
 8003282:	b2e1      	uxtb	r1, r4
 8003284:	9400      	str	r4, [sp, #0]
 8003286:	f3c4 2307 	ubfx	r3, r4, #8, #8
 800328a:	f8dd e020 	ldr.w	lr, [sp, #32]
 800328e:	f85b a021 	ldr.w	sl, [fp, r1, lsl #2]
 8003292:	9904      	ldr	r1, [sp, #16]
 8003294:	f850 4023 	ldr.w	r4, [r0, r3, lsl #2]
 8003298:	f649 10a8 	movw	r0, #39336	; 0x99a8
 800329c:	f6c0 0000 	movt	r0, #2048	; 0x800
 80032a0:	f850 302e 	ldr.w	r3, [r0, lr, lsl #2]
 80032a4:	f85c 1021 	ldr.w	r1, [ip, r1, lsl #2]
 80032a8:	404b      	eors	r3, r1
 80032aa:	910f      	str	r1, [sp, #60]	; 0x3c
 80032ac:	4063      	eors	r3, r4
 80032ae:	ea83 010a 	eor.w	r1, r3, sl
 80032b2:	f850 3028 	ldr.w	r3, [r0, r8, lsl #2]
 80032b6:	4682      	mov	sl, r0
 80032b8:	46c8      	mov	r8, r9
 80032ba:	4059      	eors	r1, r3
 80032bc:	f649 53a8 	movw	r3, #40360	; 0x9da8
 80032c0:	f001 011f 	and.w	r1, r1, #31
 80032c4:	f6c0 0300 	movt	r3, #2048	; 0x800
 80032c8:	f889 100d 	strb.w	r1, [r9, #13]
 80032cc:	f853 0025 	ldr.w	r0, [r3, r5, lsl #2]
 80032d0:	461d      	mov	r5, r3
 80032d2:	9905      	ldr	r1, [sp, #20]
 80032d4:	9c03      	ldr	r4, [sp, #12]
 80032d6:	4061      	eors	r1, r4
 80032d8:	9c0a      	ldr	r4, [sp, #40]	; 0x28
 80032da:	4048      	eors	r0, r1
 80032dc:	f85b 1026 	ldr.w	r1, [fp, r6, lsl #2]
 80032e0:	4048      	eors	r0, r1
 80032e2:	f853 1024 	ldr.w	r1, [r3, r4, lsl #2]
 80032e6:	4048      	eors	r0, r1
 80032e8:	f000 001f 	and.w	r0, r0, #31
 80032ec:	f889 000e 	strb.w	r0, [r9, #14]
 80032f0:	980d      	ldr	r0, [sp, #52]	; 0x34
 80032f2:	9907      	ldr	r1, [sp, #28]
 80032f4:	9e06      	ldr	r6, [sp, #24]
 80032f6:	f853 0020 	ldr.w	r0, [r3, r0, lsl #2]
 80032fa:	f85c 1021 	ldr.w	r1, [ip, r1, lsl #2]
 80032fe:	f85a 3026 	ldr.w	r3, [sl, r6, lsl #2]
 8003302:	404b      	eors	r3, r1
 8003304:	4058      	eors	r0, r3
 8003306:	9b0c      	ldr	r3, [sp, #48]	; 0x30
 8003308:	f85b 3023 	ldr.w	r3, [fp, r3, lsl #2]
 800330c:	4058      	eors	r0, r3
 800330e:	9b09      	ldr	r3, [sp, #36]	; 0x24
 8003310:	f85b 3023 	ldr.w	r3, [fp, r3, lsl #2]
 8003314:	4058      	eors	r0, r3
 8003316:	f000 001f 	and.w	r0, r0, #31
 800331a:	f889 000f 	strb.w	r0, [r9, #15]
 800331e:	ea81 0002 	eor.w	r0, r1, r2
 8003322:	46d1      	mov	r9, sl
 8003324:	990b      	ldr	r1, [sp, #44]	; 0x2c
 8003326:	9a02      	ldr	r2, [sp, #8]
 8003328:	f859 1021 	ldr.w	r1, [r9, r1, lsl #2]
 800332c:	4048      	eors	r0, r1
 800332e:	f855 1026 	ldr.w	r1, [r5, r6, lsl #2]
 8003332:	4048      	eors	r0, r1
 8003334:	f855 102e 	ldr.w	r1, [r5, lr, lsl #2]
 8003338:	4058      	eors	r0, r3
 800333a:	464b      	mov	r3, r9
 800333c:	4048      	eors	r0, r1
 800333e:	0e01      	lsrs	r1, r0, #24
 8003340:	910d      	str	r1, [sp, #52]	; 0x34
 8003342:	f85c 1021 	ldr.w	r1, [ip, r1, lsl #2]
 8003346:	4051      	eors	r1, r2
 8003348:	f3c0 2207 	ubfx	r2, r0, #8, #8
 800334c:	920b      	str	r2, [sp, #44]	; 0x2c
 800334e:	f859 2022 	ldr.w	r2, [r9, r2, lsl #2]
 8003352:	4051      	eors	r1, r2
 8003354:	f3c0 4207 	ubfx	r2, r0, #16, #8
 8003358:	b2c0      	uxtb	r0, r0
 800335a:	f855 2022 	ldr.w	r2, [r5, r2, lsl #2]
 800335e:	9009      	str	r0, [sp, #36]	; 0x24
 8003360:	f85b 0020 	ldr.w	r0, [fp, r0, lsl #2]
 8003364:	4051      	eors	r1, r2
 8003366:	920c      	str	r2, [sp, #48]	; 0x30
 8003368:	9a0e      	ldr	r2, [sp, #56]	; 0x38
 800336a:	4048      	eors	r0, r1
 800336c:	f85b 1024 	ldr.w	r1, [fp, r4, lsl #2]
 8003370:	4644      	mov	r4, r8
 8003372:	46e0      	mov	r8, ip
 8003374:	4048      	eors	r0, r1
 8003376:	fa5f fa80 	uxtb.w	sl, r0
 800337a:	f3c0 2907 	ubfx	r9, r0, #8, #8
 800337e:	f85c 102a 	ldr.w	r1, [ip, sl, lsl #2]
 8003382:	4051      	eors	r1, r2
 8003384:	f853 2029 	ldr.w	r2, [r3, r9, lsl #2]
 8003388:	4051      	eors	r1, r2
 800338a:	f3c0 4207 	ubfx	r2, r0, #16, #8
 800338e:	0e00      	lsrs	r0, r0, #24
 8003390:	f855 6022 	ldr.w	r6, [r5, r2, lsl #2]
 8003394:	f85b 0020 	ldr.w	r0, [fp, r0, lsl #2]
 8003398:	9a0f      	ldr	r2, [sp, #60]	; 0x3c
 800339a:	4071      	eors	r1, r6
 800339c:	4041      	eors	r1, r0
 800339e:	ea81 0302 	eor.w	r3, r1, r2
 80033a2:	f3c3 4207 	ubfx	r2, r3, #16, #8
 80033a6:	f3c3 2107 	ubfx	r1, r3, #8, #8
 80033aa:	9d10      	ldr	r5, [sp, #64]	; 0x40
 80033ac:	2d0b      	cmp	r5, #11
 80033ae:	db77      	blt.n	80034a0 <cast128_set_key+0xe1a>
 80033b0:	900f      	str	r0, [sp, #60]	; 0x3c
 80033b2:	f858 0021 	ldr.w	r0, [r8, r1, lsl #2]
 80033b6:	9900      	ldr	r1, [sp, #0]
 80033b8:	f649 14a8 	movw	r4, #39336	; 0x99a8
 80033bc:	ea4f 6e13 	mov.w	lr, r3, lsr #24
 80033c0:	f6c0 0400 	movt	r4, #2048	; 0x800
 80033c4:	f854 2022 	ldr.w	r2, [r4, r2, lsl #2]
 80033c8:	4625      	mov	r5, r4
 80033ca:	ea80 0401 	eor.w	r4, r0, r1
 80033ce:	f649 51a8 	movw	r1, #40360	; 0x9da8
 80033d2:	900e      	str	r0, [sp, #56]	; 0x38
 80033d4:	b2d8      	uxtb	r0, r3
 80033d6:	9b01      	ldr	r3, [sp, #4]
 80033d8:	f6c0 0100 	movt	r1, #2048	; 0x800
 80033dc:	900a      	str	r0, [sp, #40]	; 0x28
 80033de:	468c      	mov	ip, r1
 80033e0:	4054      	eors	r4, r2
 80033e2:	f85c 1020 	ldr.w	r1, [ip, r0, lsl #2]
 80033e6:	4630      	mov	r0, r6
 80033e8:	462e      	mov	r6, r5
 80033ea:	4061      	eors	r1, r4
 80033ec:	f85b 402e 	ldr.w	r4, [fp, lr, lsl #2]
 80033f0:	4061      	eors	r1, r4
 80033f2:	f855 4023 	ldr.w	r4, [r5, r3, lsl #2]
 80033f6:	4645      	mov	r5, r8
 80033f8:	f855 802e 	ldr.w	r8, [r5, lr, lsl #2]
 80033fc:	ea81 0304 	eor.w	r3, r1, r4
 8003400:	f85c 102a 	ldr.w	r1, [ip, sl, lsl #2]
 8003404:	46ac      	mov	ip, r5
 8003406:	e9dd 5410 	ldrd	r5, r4, [sp, #64]	; 0x40
 800340a:	ea82 0208 	eor.w	r2, r2, r8
 800340e:	f8dd 8024 	ldr.w	r8, [sp, #36]	; 0x24
 8003412:	4051      	eors	r1, r2
 8003414:	f85b 2029 	ldr.w	r2, [fp, r9, lsl #2]
 8003418:	4051      	eors	r1, r2
 800341a:	f85c 2028 	ldr.w	r2, [ip, r8, lsl #2]
 800341e:	4051      	eors	r1, r2
 8003420:	f001 011f 	and.w	r1, r1, #31
 8003424:	7421      	strb	r1, [r4, #16]
 8003426:	4631      	mov	r1, r6
 8003428:	9a0a      	ldr	r2, [sp, #40]	; 0x28
 800342a:	f851 602a 	ldr.w	r6, [r1, sl, lsl #2]
 800342e:	4689      	mov	r9, r1
 8003430:	f851 2022 	ldr.w	r2, [r1, r2, lsl #2]
 8003434:	990e      	ldr	r1, [sp, #56]	; 0x38
 8003436:	404a      	eors	r2, r1
 8003438:	4042      	eors	r2, r0
 800343a:	980f      	ldr	r0, [sp, #60]	; 0x3c
 800343c:	4050      	eors	r0, r2
 800343e:	4070      	eors	r0, r6
 8003440:	f649 56a8 	movw	r6, #40360	; 0x9da8
 8003444:	f000 001f 	and.w	r0, r0, #31
 8003448:	f6c0 0600 	movt	r6, #2048	; 0x800
 800344c:	7460      	strb	r0, [r4, #17]
 800344e:	0e18      	lsrs	r0, r3, #24
 8003450:	f3c3 4107 	ubfx	r1, r3, #16, #8
 8003454:	f859 2021 	ldr.w	r2, [r9, r1, lsl #2]
 8003458:	f85c 0020 	ldr.w	r0, [ip, r0, lsl #2]
 800345c:	f85b 1021 	ldr.w	r1, [fp, r1, lsl #2]
 8003460:	4050      	eors	r0, r2
 8003462:	f856 2028 	ldr.w	r2, [r6, r8, lsl #2]
 8003466:	4050      	eors	r0, r2
 8003468:	9a0b      	ldr	r2, [sp, #44]	; 0x2c
 800346a:	f85b 2022 	ldr.w	r2, [fp, r2, lsl #2]
 800346e:	4050      	eors	r0, r2
 8003470:	f856 202e 	ldr.w	r2, [r6, lr, lsl #2]
 8003474:	4050      	eors	r0, r2
 8003476:	b2da      	uxtb	r2, r3
 8003478:	f000 001f 	and.w	r0, r0, #31
 800347c:	f859 2022 	ldr.w	r2, [r9, r2, lsl #2]
 8003480:	74a0      	strb	r0, [r4, #18]
 8003482:	f3c3 2007 	ubfx	r0, r3, #8, #8
 8003486:	f85c 0020 	ldr.w	r0, [ip, r0, lsl #2]
 800348a:	4050      	eors	r0, r2
 800348c:	9a0c      	ldr	r2, [sp, #48]	; 0x30
 800348e:	4050      	eors	r0, r2
 8003490:	9a0d      	ldr	r2, [sp, #52]	; 0x34
 8003492:	f85b 2022 	ldr.w	r2, [fp, r2, lsl #2]
 8003496:	4050      	eors	r0, r2
 8003498:	4048      	eors	r0, r1
 800349a:	f000 001f 	and.w	r0, r0, #31
 800349e:	74e0      	strb	r0, [r4, #19]
 80034a0:	200c      	movs	r0, #12
 80034a2:	2d0a      	cmp	r5, #10
 80034a4:	bfc8      	it	gt
 80034a6:	2010      	movgt	r0, #16
 80034a8:	6020      	str	r0, [r4, #0]
 80034aa:	b012      	add	sp, #72	; 0x48
 80034ac:	e8bd 0f00 	ldmia.w	sp!, {r8, r9, sl, fp}
 80034b0:	bdf0      	pop	{r4, r5, r6, r7, pc}

080034b2 <initialise_benchmark>:
 80034b2:	b580      	push	{r7, lr}
 80034b4:	466f      	mov	r7, sp
 80034b6:	f640 20f8 	movw	r0, #2808	; 0xaf8
 80034ba:	f24a 52a8 	movw	r2, #42408	; 0xa5a8
 80034be:	2110      	movs	r1, #16
 80034c0:	f2c2 0000 	movt	r0, #8192	; 0x2000
 80034c4:	f6c0 0200 	movt	r2, #2048	; 0x800
 80034c8:	f7ff f8dd 	bl	8002686 <cast128_set_key>
 80034cc:	2000      	movs	r0, #0
 80034ce:	bd80      	pop	{r7, pc}

080034d0 <benchmark>:
 80034d0:	b5b0      	push	{r4, r5, r7, lr}
 80034d2:	af02      	add	r7, sp, #8
 80034d4:	f640 24f8 	movw	r4, #2808	; 0xaf8
 80034d8:	f640 15e4 	movw	r5, #2532	; 0x9e4
 80034dc:	f24a 53b8 	movw	r3, #42424	; 0xa5b8
 80034e0:	2110      	movs	r1, #16
 80034e2:	f2c2 0400 	movt	r4, #8192	; 0x2000
 80034e6:	f2c2 0500 	movt	r5, #8192	; 0x2000
 80034ea:	f6c0 0300 	movt	r3, #2048	; 0x800
 80034ee:	4620      	mov	r0, r4
 80034f0:	462a      	mov	r2, r5
 80034f2:	f7fe fce0 	bl	8001eb6 <cast128_encrypt>
 80034f6:	4620      	mov	r0, r4
 80034f8:	2110      	movs	r1, #16
 80034fa:	462a      	mov	r2, r5
 80034fc:	462b      	mov	r3, r5
 80034fe:	f7fe fede 	bl	80022be <cast128_decrypt>
 8003502:	2000      	movs	r0, #0
 8003504:	bdb0      	pop	{r4, r5, r7, pc}

08003506 <verify_benchmark>:
 8003506:	b580      	push	{r7, lr}
 8003508:	466f      	mov	r7, sp
 800350a:	f640 10e4 	movw	r0, #2532	; 0x9e4
 800350e:	f04f 0c00 	mov.w	ip, #0
 8003512:	f2c2 0000 	movt	r0, #8192	; 0x2000
 8003516:	7881      	ldrb	r1, [r0, #2]
 8003518:	7802      	ldrb	r2, [r0, #0]
 800351a:	7843      	ldrb	r3, [r0, #1]
 800351c:	f890 e003 	ldrb.w	lr, [r0, #3]
 8003520:	2902      	cmp	r1, #2
 8003522:	f04f 0100 	mov.w	r1, #0
 8003526:	bf08      	it	eq
 8003528:	2101      	moveq	r1, #1
 800352a:	2a00      	cmp	r2, #0
 800352c:	f04f 0200 	mov.w	r2, #0
 8003530:	bf08      	it	eq
 8003532:	2201      	moveq	r2, #1
 8003534:	2b01      	cmp	r3, #1
 8003536:	bf18      	it	ne
 8003538:	2300      	movne	r3, #0
 800353a:	f1be 0f03 	cmp.w	lr, #3
 800353e:	ea02 0203 	and.w	r2, r2, r3
 8003542:	ea01 0102 	and.w	r1, r1, r2
 8003546:	f04f 0200 	mov.w	r2, #0
 800354a:	bf08      	it	eq
 800354c:	2201      	moveq	r2, #1
 800354e:	4011      	ands	r1, r2
 8003550:	7902      	ldrb	r2, [r0, #4]
 8003552:	2a04      	cmp	r2, #4
 8003554:	f04f 0200 	mov.w	r2, #0
 8003558:	bf08      	it	eq
 800355a:	2201      	moveq	r2, #1
 800355c:	4011      	ands	r1, r2
 800355e:	7942      	ldrb	r2, [r0, #5]
 8003560:	2a05      	cmp	r2, #5
 8003562:	f04f 0200 	mov.w	r2, #0
 8003566:	bf08      	it	eq
 8003568:	2201      	moveq	r2, #1
 800356a:	4011      	ands	r1, r2
 800356c:	7982      	ldrb	r2, [r0, #6]
 800356e:	2a06      	cmp	r2, #6
 8003570:	f04f 0200 	mov.w	r2, #0
 8003574:	bf08      	it	eq
 8003576:	2201      	moveq	r2, #1
 8003578:	4011      	ands	r1, r2
 800357a:	79c2      	ldrb	r2, [r0, #7]
 800357c:	2a07      	cmp	r2, #7
 800357e:	f04f 0200 	mov.w	r2, #0
 8003582:	bf08      	it	eq
 8003584:	2201      	moveq	r2, #1
 8003586:	4011      	ands	r1, r2
 8003588:	7a02      	ldrb	r2, [r0, #8]
 800358a:	2a08      	cmp	r2, #8
 800358c:	f04f 0200 	mov.w	r2, #0
 8003590:	bf08      	it	eq
 8003592:	2201      	moveq	r2, #1
 8003594:	4011      	ands	r1, r2
 8003596:	7a42      	ldrb	r2, [r0, #9]
 8003598:	2a09      	cmp	r2, #9
 800359a:	f04f 0200 	mov.w	r2, #0
 800359e:	bf08      	it	eq
 80035a0:	2201      	moveq	r2, #1
 80035a2:	4011      	ands	r1, r2
 80035a4:	7a82      	ldrb	r2, [r0, #10]
 80035a6:	2a0a      	cmp	r2, #10
 80035a8:	f04f 0200 	mov.w	r2, #0
 80035ac:	bf08      	it	eq
 80035ae:	2201      	moveq	r2, #1
 80035b0:	4011      	ands	r1, r2
 80035b2:	7ac2      	ldrb	r2, [r0, #11]
 80035b4:	2a0b      	cmp	r2, #11
 80035b6:	f04f 0200 	mov.w	r2, #0
 80035ba:	bf08      	it	eq
 80035bc:	2201      	moveq	r2, #1
 80035be:	4011      	ands	r1, r2
 80035c0:	7b02      	ldrb	r2, [r0, #12]
 80035c2:	2a0c      	cmp	r2, #12
 80035c4:	f04f 0200 	mov.w	r2, #0
 80035c8:	bf08      	it	eq
 80035ca:	2201      	moveq	r2, #1
 80035cc:	4011      	ands	r1, r2
 80035ce:	7b42      	ldrb	r2, [r0, #13]
 80035d0:	2a0d      	cmp	r2, #13
 80035d2:	f04f 0200 	mov.w	r2, #0
 80035d6:	bf08      	it	eq
 80035d8:	2201      	moveq	r2, #1
 80035da:	4011      	ands	r1, r2
 80035dc:	7b82      	ldrb	r2, [r0, #14]
 80035de:	2a0e      	cmp	r2, #14
 80035e0:	f04f 0200 	mov.w	r2, #0
 80035e4:	bf08      	it	eq
 80035e6:	2201      	moveq	r2, #1
 80035e8:	7bc0      	ldrb	r0, [r0, #15]
 80035ea:	4011      	ands	r1, r2
 80035ec:	280f      	cmp	r0, #15
 80035ee:	bf08      	it	eq
 80035f0:	f04f 0c01 	moveq.w	ip, #1
 80035f4:	ea01 000c 	and.w	r0, r1, ip
 80035f8:	bd80      	pop	{r7, pc}

080035fa <__io_putchar>:
 80035fa:	b580      	push	{r7, lr}
 80035fc:	466f      	mov	r7, sp
 80035fe:	b082      	sub	sp, #8
 8003600:	9001      	str	r0, [sp, #4]
 8003602:	f640 10f4 	movw	r0, #2548	; 0x9f4
 8003606:	a901      	add	r1, sp, #4
 8003608:	2201      	movs	r2, #1
 800360a:	f64f 73ff 	movw	r3, #65535	; 0xffff
 800360e:	f2c2 0000 	movt	r0, #8192	; 0x2000
 8003612:	f7fe fb62 	bl	8001cda <HAL_UART_Transmit>
 8003616:	9801      	ldr	r0, [sp, #4]
 8003618:	b002      	add	sp, #8
 800361a:	bd80      	pop	{r7, pc}

0800361c <main>:
 800361c:	b5b0      	push	{r4, r5, r7, lr}
 800361e:	af02      	add	r7, sp, #8
 8003620:	f640 11f4 	movw	r1, #2548	; 0x9f4
 8003624:	f643 0000 	movw	r0, #14336	; 0x3800
 8003628:	220c      	movs	r2, #12
 800362a:	f2c2 0100 	movt	r1, #8192	; 0x2000
 800362e:	f2c4 0001 	movt	r0, #16385	; 0x4001
 8003632:	6008      	str	r0, [r1, #0]
 8003634:	f44f 30e1 	mov.w	r0, #115200	; 0x1c200
 8003638:	6048      	str	r0, [r1, #4]
 800363a:	2000      	movs	r0, #0
 800363c:	e9c1 0002 	strd	r0, r0, [r1, #8]
 8003640:	6108      	str	r0, [r1, #16]
 8003642:	6248      	str	r0, [r1, #36]	; 0x24
 8003644:	e9c1 0007 	strd	r0, r0, [r1, #28]
 8003648:	e9c1 2005 	strd	r2, r0, [r1, #20]
 800364c:	2000      	movs	r0, #0
 800364e:	f7fe fbd9 	bl	8001e04 <BSP_COM_Init>
 8003652:	f7ff ff2e 	bl	80034b2 <initialise_benchmark>
 8003656:	f24a 6030 	movw	r0, #42544	; 0xa630
 800365a:	f6c0 0000 	movt	r0, #2048	; 0x800
 800365e:	f000 f949 	bl	80038f4 <printf>
 8003662:	f24a 60e1 	movw	r0, #42721	; 0xa6e1
 8003666:	f6c0 0000 	movt	r0, #2048	; 0x800
 800366a:	f000 f9a5 	bl	80039b8 <puts>
 800366e:	f7fd fd3b 	bl	80010e8 <HAL_Init>
 8003672:	f7fd fd51 	bl	8001118 <HAL_GetTick>
 8003676:	4604      	mov	r4, r0
 8003678:	f7ff ff2a 	bl	80034d0 <benchmark>
 800367c:	4605      	mov	r5, r0
 800367e:	f7fd fd4b 	bl	8001118 <HAL_GetTick>
 8003682:	1b04      	subs	r4, r0, r4
 8003684:	4628      	mov	r0, r5
 8003686:	f7ff ff3e 	bl	8003506 <verify_benchmark>
 800368a:	1c41      	adds	r1, r0, #1
 800368c:	d006      	beq.n	800369c <main+0x80>
 800368e:	2801      	cmp	r0, #1
 8003690:	d109      	bne.n	80036a6 <main+0x8a>
 8003692:	f24a 604d 	movw	r0, #42573	; 0xa64d
 8003696:	f6c0 0000 	movt	r0, #2048	; 0x800
 800369a:	e008      	b.n	80036ae <main+0x92>
 800369c:	f24a 6071 	movw	r0, #42609	; 0xa671
 80036a0:	f6c0 0000 	movt	r0, #2048	; 0x800
 80036a4:	e003      	b.n	80036ae <main+0x92>
 80036a6:	f24a 60a6 	movw	r0, #42662	; 0xa6a6
 80036aa:	f6c0 0000 	movt	r0, #2048	; 0x800
 80036ae:	4621      	mov	r1, r4
 80036b0:	f000 f920 	bl	80038f4 <printf>
 80036b4:	2000      	movs	r0, #0
 80036b6:	bdb0      	pop	{r4, r5, r7, pc}

080036b8 <SysTick_Handler>:
 80036b8:	b580      	push	{r7, lr}
 80036ba:	466f      	mov	r7, sp
 80036bc:	f7fd fd24 	bl	8001108 <HAL_IncTick>
 80036c0:	e8bd 4080 	ldmia.w	sp!, {r7, lr}
 80036c4:	f7fd bd7e 	b.w	80011c4 <HAL_SYSTICK_IRQHandler>

080036c8 <_read>:
 80036c8:	b5f0      	push	{r4, r5, r6, r7, lr}
 80036ca:	af03      	add	r7, sp, #12
 80036cc:	f84d bd04 	str.w	fp, [sp, #-4]!
 80036d0:	4614      	mov	r4, r2
 80036d2:	460d      	mov	r5, r1
 80036d4:	2c01      	cmp	r4, #1
 80036d6:	db06      	blt.n	80036e6 <_read+0x1e>
 80036d8:	4626      	mov	r6, r4
 80036da:	f3af 8000 	nop.w
 80036de:	f805 0b01 	strb.w	r0, [r5], #1
 80036e2:	3e01      	subs	r6, #1
 80036e4:	d1f9      	bne.n	80036da <_read+0x12>
 80036e6:	4620      	mov	r0, r4
 80036e8:	f85d bb04 	ldr.w	fp, [sp], #4
 80036ec:	bdf0      	pop	{r4, r5, r6, r7, pc}

080036ee <_write>:
 80036ee:	b5f0      	push	{r4, r5, r6, r7, lr}
 80036f0:	af03      	add	r7, sp, #12
 80036f2:	f84d bd04 	str.w	fp, [sp, #-4]!
 80036f6:	4614      	mov	r4, r2
 80036f8:	460d      	mov	r5, r1
 80036fa:	2c01      	cmp	r4, #1
 80036fc:	db06      	blt.n	800370c <_write+0x1e>
 80036fe:	4626      	mov	r6, r4
 8003700:	f815 0b01 	ldrb.w	r0, [r5], #1
 8003704:	f7ff ff79 	bl	80035fa <__io_putchar>
 8003708:	3e01      	subs	r6, #1
 800370a:	d1f9      	bne.n	8003700 <_write+0x12>
 800370c:	4620      	mov	r0, r4
 800370e:	f85d bb04 	ldr.w	fp, [sp], #4
 8003712:	bdf0      	pop	{r4, r5, r6, r7, pc}

08003714 <_sbrk>:
 8003714:	f640 2278 	movw	r2, #2680	; 0xa78
 8003718:	4601      	mov	r1, r0
 800371a:	466b      	mov	r3, sp
 800371c:	f2c2 0200 	movt	r2, #8192	; 0x2000
 8003720:	6810      	ldr	r0, [r2, #0]
 8003722:	2800      	cmp	r0, #0
 8003724:	bf02      	ittt	eq
 8003726:	f640 3078 	movweq	r0, #2936	; 0xb78
 800372a:	f2c2 0000 	movteq	r0, #8192	; 0x2000
 800372e:	6010      	streq	r0, [r2, #0]
 8003730:	4401      	add	r1, r0
 8003732:	4299      	cmp	r1, r3
 8003734:	bf9c      	itt	ls
 8003736:	6011      	strls	r1, [r2, #0]
 8003738:	4770      	bxls	lr
 800373a:	b580      	push	{r7, lr}
 800373c:	466f      	mov	r7, sp
 800373e:	f000 f865 	bl	800380c <__errno>
 8003742:	210c      	movs	r1, #12
 8003744:	6001      	str	r1, [r0, #0]
 8003746:	f04f 30ff 	mov.w	r0, #4294967295	; 0xffffffff
 800374a:	bd80      	pop	{r7, pc}

0800374c <_close>:
 800374c:	f04f 30ff 	mov.w	r0, #4294967295	; 0xffffffff
 8003750:	4770      	bx	lr

08003752 <_fstat>:
 8003752:	f44f 5000 	mov.w	r0, #8192	; 0x2000
 8003756:	6048      	str	r0, [r1, #4]
 8003758:	2000      	movs	r0, #0
 800375a:	4770      	bx	lr

0800375c <_isatty>:
 800375c:	2001      	movs	r0, #1
 800375e:	4770      	bx	lr

08003760 <_lseek>:
 8003760:	2000      	movs	r0, #0
 8003762:	4770      	bx	lr

08003764 <SystemInit>:
 8003764:	f64e 5088 	movw	r0, #60808	; 0xed88
 8003768:	f04f 0c00 	mov.w	ip, #0
 800376c:	f2ce 0000 	movt	r0, #57344	; 0xe000
 8003770:	6801      	ldr	r1, [r0, #0]
 8003772:	f441 0170 	orr.w	r1, r1, #15728640	; 0xf00000
 8003776:	6001      	str	r1, [r0, #0]
 8003778:	f241 0100 	movw	r1, #4096	; 0x1000
 800377c:	f2c4 0102 	movt	r1, #16386	; 0x4002
 8003780:	680a      	ldr	r2, [r1, #0]
 8003782:	f042 0201 	orr.w	r2, r2, #1
 8003786:	600a      	str	r2, [r1, #0]
 8003788:	f8c1 c008 	str.w	ip, [r1, #8]
 800378c:	f64f 72ff 	movw	r2, #65535	; 0xffff
 8003790:	680b      	ldr	r3, [r1, #0]
 8003792:	f6ce 22f6 	movt	r2, #60150	; 0xeaf6
 8003796:	401a      	ands	r2, r3
 8003798:	600a      	str	r2, [r1, #0]
 800379a:	f44f 5280 	mov.w	r2, #4096	; 0x1000
 800379e:	60ca      	str	r2, [r1, #12]
 80037a0:	680a      	ldr	r2, [r1, #0]
 80037a2:	f422 2280 	bic.w	r2, r2, #262144	; 0x40000
 80037a6:	600a      	str	r2, [r1, #0]
 80037a8:	f8c1 c018 	str.w	ip, [r1, #24]
 80037ac:	f04f 6100 	mov.w	r1, #134217728	; 0x8000000
 80037b0:	f840 1c80 	str.w	r1, [r0, #-128]
 80037b4:	4770      	bx	lr
	...

080037b8 <Reset_Handler>:
 80037b8:	f8df d034 	ldr.w	sp, [pc, #52]	; 80037f0 <LoopForever+0x2>
 80037bc:	2100      	movs	r1, #0
 80037be:	e003      	b.n	80037c8 <LoopCopyDataInit>

080037c0 <CopyDataInit>:
 80037c0:	4b0c      	ldr	r3, [pc, #48]	; (80037f4 <LoopForever+0x6>)
 80037c2:	585b      	ldr	r3, [r3, r1]
 80037c4:	5043      	str	r3, [r0, r1]
 80037c6:	3104      	adds	r1, #4

080037c8 <LoopCopyDataInit>:
 80037c8:	480b      	ldr	r0, [pc, #44]	; (80037f8 <LoopForever+0xa>)
 80037ca:	4b0c      	ldr	r3, [pc, #48]	; (80037fc <LoopForever+0xe>)
 80037cc:	1842      	adds	r2, r0, r1
 80037ce:	429a      	cmp	r2, r3
 80037d0:	d3f6      	bcc.n	80037c0 <CopyDataInit>
 80037d2:	4a0b      	ldr	r2, [pc, #44]	; (8003800 <LoopForever+0x12>)
 80037d4:	e002      	b.n	80037dc <LoopFillZerobss>

080037d6 <FillZerobss>:
 80037d6:	2300      	movs	r3, #0
 80037d8:	f842 3b04 	str.w	r3, [r2], #4

080037dc <LoopFillZerobss>:
 80037dc:	4b09      	ldr	r3, [pc, #36]	; (8003804 <LoopForever+0x16>)
 80037de:	429a      	cmp	r2, r3
 80037e0:	d3f9      	bcc.n	80037d6 <FillZerobss>
 80037e2:	f7ff ffbf 	bl	8003764 <SystemInit>
 80037e6:	f000 f817 	bl	8003818 <__libc_init_array>
 80037ea:	f7ff ff17 	bl	800361c <main>

080037ee <LoopForever>:
 80037ee:	e7fe      	b.n	80037ee <LoopForever>
 80037f0:	20018000 	.word	0x20018000
 80037f4:	0800a988 	.word	0x0800a988
 80037f8:	20000000 	.word	0x20000000
 80037fc:	200009c8 	.word	0x200009c8
 8003800:	200009c8 	.word	0x200009c8
 8003804:	20000b74 	.word	0x20000b74

08003808 <ADC1_2_IRQHandler>:
 8003808:	e7fe      	b.n	8003808 <ADC1_2_IRQHandler>
	...

0800380c <__errno>:
 800380c:	4b01      	ldr	r3, [pc, #4]	; (8003814 <__errno+0x8>)
 800380e:	6818      	ldr	r0, [r3, #0]
 8003810:	4770      	bx	lr
 8003812:	bf00      	nop
 8003814:	20000018 	.word	0x20000018

08003818 <__libc_init_array>:
 8003818:	b570      	push	{r4, r5, r6, lr}
 800381a:	4e0d      	ldr	r6, [pc, #52]	; (8003850 <__libc_init_array+0x38>)
 800381c:	4d0d      	ldr	r5, [pc, #52]	; (8003854 <__libc_init_array+0x3c>)
 800381e:	1b76      	subs	r6, r6, r5
 8003820:	10b6      	asrs	r6, r6, #2
 8003822:	d006      	beq.n	8003832 <__libc_init_array+0x1a>
 8003824:	2400      	movs	r4, #0
 8003826:	3401      	adds	r4, #1
 8003828:	f855 3b04 	ldr.w	r3, [r5], #4
 800382c:	4798      	blx	r3
 800382e:	42a6      	cmp	r6, r4
 8003830:	d1f9      	bne.n	8003826 <__libc_init_array+0xe>
 8003832:	4e09      	ldr	r6, [pc, #36]	; (8003858 <__libc_init_array+0x40>)
 8003834:	4d09      	ldr	r5, [pc, #36]	; (800385c <__libc_init_array+0x44>)
 8003836:	1b76      	subs	r6, r6, r5
 8003838:	f004 fea8 	bl	800858c <_init>
 800383c:	10b6      	asrs	r6, r6, #2
 800383e:	d006      	beq.n	800384e <__libc_init_array+0x36>
 8003840:	2400      	movs	r4, #0
 8003842:	3401      	adds	r4, #1
 8003844:	f855 3b04 	ldr.w	r3, [r5], #4
 8003848:	4798      	blx	r3
 800384a:	42a6      	cmp	r6, r4
 800384c:	d1f9      	bne.n	8003842 <__libc_init_array+0x2a>
 800384e:	bd70      	pop	{r4, r5, r6, pc}
 8003850:	0800a978 	.word	0x0800a978
 8003854:	0800a978 	.word	0x0800a978
 8003858:	0800a980 	.word	0x0800a980
 800385c:	0800a978 	.word	0x0800a978

08003860 <memset>:
 8003860:	b4f0      	push	{r4, r5, r6, r7}
 8003862:	0786      	lsls	r6, r0, #30
 8003864:	d043      	beq.n	80038ee <memset+0x8e>
 8003866:	1e54      	subs	r4, r2, #1
 8003868:	2a00      	cmp	r2, #0
 800386a:	d03e      	beq.n	80038ea <memset+0x8a>
 800386c:	b2ca      	uxtb	r2, r1
 800386e:	4603      	mov	r3, r0
 8003870:	e002      	b.n	8003878 <memset+0x18>
 8003872:	f114 34ff 	adds.w	r4, r4, #4294967295	; 0xffffffff
 8003876:	d338      	bcc.n	80038ea <memset+0x8a>
 8003878:	f803 2b01 	strb.w	r2, [r3], #1
 800387c:	079d      	lsls	r5, r3, #30
 800387e:	d1f8      	bne.n	8003872 <memset+0x12>
 8003880:	2c03      	cmp	r4, #3
 8003882:	d92b      	bls.n	80038dc <memset+0x7c>
 8003884:	b2cd      	uxtb	r5, r1
 8003886:	ea45 2505 	orr.w	r5, r5, r5, lsl #8
 800388a:	2c0f      	cmp	r4, #15
 800388c:	ea45 4505 	orr.w	r5, r5, r5, lsl #16
 8003890:	d916      	bls.n	80038c0 <memset+0x60>
 8003892:	f1a4 0710 	sub.w	r7, r4, #16
 8003896:	093f      	lsrs	r7, r7, #4
 8003898:	f103 0620 	add.w	r6, r3, #32
 800389c:	eb06 1607 	add.w	r6, r6, r7, lsl #4
 80038a0:	f103 0210 	add.w	r2, r3, #16
 80038a4:	e942 5504 	strd	r5, r5, [r2, #-16]
 80038a8:	e942 5502 	strd	r5, r5, [r2, #-8]
 80038ac:	3210      	adds	r2, #16
 80038ae:	42b2      	cmp	r2, r6
 80038b0:	d1f8      	bne.n	80038a4 <memset+0x44>
 80038b2:	f004 040f 	and.w	r4, r4, #15
 80038b6:	3701      	adds	r7, #1
 80038b8:	2c03      	cmp	r4, #3
 80038ba:	eb03 1307 	add.w	r3, r3, r7, lsl #4
 80038be:	d90d      	bls.n	80038dc <memset+0x7c>
 80038c0:	461e      	mov	r6, r3
 80038c2:	4622      	mov	r2, r4
 80038c4:	3a04      	subs	r2, #4
 80038c6:	2a03      	cmp	r2, #3
 80038c8:	f846 5b04 	str.w	r5, [r6], #4
 80038cc:	d8fa      	bhi.n	80038c4 <memset+0x64>
 80038ce:	1f22      	subs	r2, r4, #4
 80038d0:	f022 0203 	bic.w	r2, r2, #3
 80038d4:	3204      	adds	r2, #4
 80038d6:	4413      	add	r3, r2
 80038d8:	f004 0403 	and.w	r4, r4, #3
 80038dc:	b12c      	cbz	r4, 80038ea <memset+0x8a>
 80038de:	b2c9      	uxtb	r1, r1
 80038e0:	441c      	add	r4, r3
 80038e2:	f803 1b01 	strb.w	r1, [r3], #1
 80038e6:	429c      	cmp	r4, r3
 80038e8:	d1fb      	bne.n	80038e2 <memset+0x82>
 80038ea:	bcf0      	pop	{r4, r5, r6, r7}
 80038ec:	4770      	bx	lr
 80038ee:	4614      	mov	r4, r2
 80038f0:	4603      	mov	r3, r0
 80038f2:	e7c5      	b.n	8003880 <memset+0x20>

080038f4 <printf>:
 80038f4:	b40f      	push	{r0, r1, r2, r3}
 80038f6:	b500      	push	{lr}
 80038f8:	4907      	ldr	r1, [pc, #28]	; (8003918 <printf+0x24>)
 80038fa:	b083      	sub	sp, #12
 80038fc:	ab04      	add	r3, sp, #16
 80038fe:	6808      	ldr	r0, [r1, #0]
 8003900:	f853 2b04 	ldr.w	r2, [r3], #4
 8003904:	6881      	ldr	r1, [r0, #8]
 8003906:	9301      	str	r3, [sp, #4]
 8003908:	f000 f85e 	bl	80039c8 <_vfprintf_r>
 800390c:	b003      	add	sp, #12
 800390e:	f85d eb04 	ldr.w	lr, [sp], #4
 8003912:	b004      	add	sp, #16
 8003914:	4770      	bx	lr
 8003916:	bf00      	nop
 8003918:	20000018 	.word	0x20000018

0800391c <_puts_r>:
 800391c:	b570      	push	{r4, r5, r6, lr}
 800391e:	4605      	mov	r5, r0
 8003920:	b088      	sub	sp, #32
 8003922:	4608      	mov	r0, r1
 8003924:	460c      	mov	r4, r1
 8003926:	f7fc fe8b 	bl	8000640 <strlen>
 800392a:	4a22      	ldr	r2, [pc, #136]	; (80039b4 <_puts_r+0x98>)
 800392c:	6bab      	ldr	r3, [r5, #56]	; 0x38
 800392e:	9404      	str	r4, [sp, #16]
 8003930:	2601      	movs	r6, #1
 8003932:	1c44      	adds	r4, r0, #1
 8003934:	a904      	add	r1, sp, #16
 8003936:	9206      	str	r2, [sp, #24]
 8003938:	2202      	movs	r2, #2
 800393a:	9403      	str	r4, [sp, #12]
 800393c:	9005      	str	r0, [sp, #20]
 800393e:	68ac      	ldr	r4, [r5, #8]
 8003940:	9607      	str	r6, [sp, #28]
 8003942:	e9cd 1201 	strd	r1, r2, [sp, #4]
 8003946:	b31b      	cbz	r3, 8003990 <_puts_r+0x74>
 8003948:	6e61      	ldr	r1, [r4, #100]	; 0x64
 800394a:	f9b4 300c 	ldrsh.w	r3, [r4, #12]
 800394e:	07ce      	lsls	r6, r1, #31
 8003950:	b29a      	uxth	r2, r3
 8003952:	d401      	bmi.n	8003958 <_puts_r+0x3c>
 8003954:	0590      	lsls	r0, r2, #22
 8003956:	d525      	bpl.n	80039a4 <_puts_r+0x88>
 8003958:	0491      	lsls	r1, r2, #18
 800395a:	d406      	bmi.n	800396a <_puts_r+0x4e>
 800395c:	6e62      	ldr	r2, [r4, #100]	; 0x64
 800395e:	f443 5300 	orr.w	r3, r3, #8192	; 0x2000
 8003962:	f422 5200 	bic.w	r2, r2, #8192	; 0x2000
 8003966:	81a3      	strh	r3, [r4, #12]
 8003968:	6662      	str	r2, [r4, #100]	; 0x64
 800396a:	4628      	mov	r0, r5
 800396c:	aa01      	add	r2, sp, #4
 800396e:	4621      	mov	r1, r4
 8003970:	f003 f85e 	bl	8006a30 <__sfvwrite_r>
 8003974:	6e63      	ldr	r3, [r4, #100]	; 0x64
 8003976:	2800      	cmp	r0, #0
 8003978:	bf0c      	ite	eq
 800397a:	250a      	moveq	r5, #10
 800397c:	f04f 35ff 	movne.w	r5, #4294967295	; 0xffffffff
 8003980:	07da      	lsls	r2, r3, #31
 8003982:	d402      	bmi.n	800398a <_puts_r+0x6e>
 8003984:	89a3      	ldrh	r3, [r4, #12]
 8003986:	059b      	lsls	r3, r3, #22
 8003988:	d506      	bpl.n	8003998 <_puts_r+0x7c>
 800398a:	4628      	mov	r0, r5
 800398c:	b008      	add	sp, #32
 800398e:	bd70      	pop	{r4, r5, r6, pc}
 8003990:	4628      	mov	r0, r5
 8003992:	f002 feb7 	bl	8006704 <__sinit>
 8003996:	e7d7      	b.n	8003948 <_puts_r+0x2c>
 8003998:	6da0      	ldr	r0, [r4, #88]	; 0x58
 800399a:	f003 fa05 	bl	8006da8 <__retarget_lock_release_recursive>
 800399e:	4628      	mov	r0, r5
 80039a0:	b008      	add	sp, #32
 80039a2:	bd70      	pop	{r4, r5, r6, pc}
 80039a4:	6da0      	ldr	r0, [r4, #88]	; 0x58
 80039a6:	f003 f9fd 	bl	8006da4 <__retarget_lock_acquire_recursive>
 80039aa:	f9b4 300c 	ldrsh.w	r3, [r4, #12]
 80039ae:	b29a      	uxth	r2, r3
 80039b0:	e7d2      	b.n	8003958 <_puts_r+0x3c>
 80039b2:	bf00      	nop
 80039b4:	0800a6e8 	.word	0x0800a6e8

080039b8 <puts>:
 80039b8:	4b02      	ldr	r3, [pc, #8]	; (80039c4 <puts+0xc>)
 80039ba:	4601      	mov	r1, r0
 80039bc:	6818      	ldr	r0, [r3, #0]
 80039be:	f7ff bfad 	b.w	800391c <_puts_r>
 80039c2:	bf00      	nop
 80039c4:	20000018 	.word	0x20000018

080039c8 <_vfprintf_r>:
 80039c8:	e92d 4ff0 	stmdb	sp!, {r4, r5, r6, r7, r8, r9, sl, fp, lr}
 80039cc:	b0d7      	sub	sp, #348	; 0x15c
 80039ce:	461c      	mov	r4, r3
 80039d0:	4689      	mov	r9, r1
 80039d2:	4617      	mov	r7, r2
 80039d4:	4605      	mov	r5, r0
 80039d6:	9003      	str	r0, [sp, #12]
 80039d8:	f003 f9d2 	bl	8006d80 <_localeconv_r>
 80039dc:	6803      	ldr	r3, [r0, #0]
 80039de:	9316      	str	r3, [sp, #88]	; 0x58
 80039e0:	4618      	mov	r0, r3
 80039e2:	f7fc fe2d 	bl	8000640 <strlen>
 80039e6:	9408      	str	r4, [sp, #32]
 80039e8:	9015      	str	r0, [sp, #84]	; 0x54
 80039ea:	b11d      	cbz	r5, 80039f4 <_vfprintf_r+0x2c>
 80039ec:	6bab      	ldr	r3, [r5, #56]	; 0x38
 80039ee:	2b00      	cmp	r3, #0
 80039f0:	f000 8107 	beq.w	8003c02 <_vfprintf_r+0x23a>
 80039f4:	f8d9 1064 	ldr.w	r1, [r9, #100]	; 0x64
 80039f8:	f9b9 200c 	ldrsh.w	r2, [r9, #12]
 80039fc:	07c8      	lsls	r0, r1, #31
 80039fe:	b293      	uxth	r3, r2
 8003a00:	d402      	bmi.n	8003a08 <_vfprintf_r+0x40>
 8003a02:	0599      	lsls	r1, r3, #22
 8003a04:	f140 811f 	bpl.w	8003c46 <_vfprintf_r+0x27e>
 8003a08:	049e      	lsls	r6, r3, #18
 8003a0a:	d40a      	bmi.n	8003a22 <_vfprintf_r+0x5a>
 8003a0c:	f8d9 1064 	ldr.w	r1, [r9, #100]	; 0x64
 8003a10:	f442 5300 	orr.w	r3, r2, #8192	; 0x2000
 8003a14:	f421 5100 	bic.w	r1, r1, #8192	; 0x2000
 8003a18:	f8a9 300c 	strh.w	r3, [r9, #12]
 8003a1c:	f8c9 1064 	str.w	r1, [r9, #100]	; 0x64
 8003a20:	b29b      	uxth	r3, r3
 8003a22:	071d      	lsls	r5, r3, #28
 8003a24:	f140 80b2 	bpl.w	8003b8c <_vfprintf_r+0x1c4>
 8003a28:	f8d9 2010 	ldr.w	r2, [r9, #16]
 8003a2c:	2a00      	cmp	r2, #0
 8003a2e:	f000 80ad 	beq.w	8003b8c <_vfprintf_r+0x1c4>
 8003a32:	f003 021a 	and.w	r2, r3, #26
 8003a36:	2a0a      	cmp	r2, #10
 8003a38:	f000 80c9 	beq.w	8003bce <_vfprintf_r+0x206>
 8003a3c:	2300      	movs	r3, #0
 8003a3e:	ed9f 7b86 	vldr	d7, [pc, #536]	; 8003c58 <_vfprintf_r+0x290>
 8003a42:	9310      	str	r3, [sp, #64]	; 0x40
 8003a44:	e9cd 332b 	strd	r3, r3, [sp, #172]	; 0xac
 8003a48:	9317      	str	r3, [sp, #92]	; 0x5c
 8003a4a:	e9cd 3319 	strd	r3, r3, [sp, #100]	; 0x64
 8003a4e:	931b      	str	r3, [sp, #108]	; 0x6c
 8003a50:	9318      	str	r3, [sp, #96]	; 0x60
 8003a52:	9305      	str	r3, [sp, #20]
 8003a54:	ab2d      	add	r3, sp, #180	; 0xb4
 8003a56:	932a      	str	r3, [sp, #168]	; 0xa8
 8003a58:	469b      	mov	fp, r3
 8003a5a:	783b      	ldrb	r3, [r7, #0]
 8003a5c:	f8cd 901c 	str.w	r9, [sp, #28]
 8003a60:	ed8d 7b12 	vstr	d7, [sp, #72]	; 0x48
 8003a64:	2b00      	cmp	r3, #0
 8003a66:	f000 8259 	beq.w	8003f1c <_vfprintf_r+0x554>
 8003a6a:	2b25      	cmp	r3, #37	; 0x25
 8003a6c:	463c      	mov	r4, r7
 8003a6e:	d102      	bne.n	8003a76 <_vfprintf_r+0xae>
 8003a70:	e01d      	b.n	8003aae <_vfprintf_r+0xe6>
 8003a72:	2b25      	cmp	r3, #37	; 0x25
 8003a74:	d003      	beq.n	8003a7e <_vfprintf_r+0xb6>
 8003a76:	f814 3f01 	ldrb.w	r3, [r4, #1]!
 8003a7a:	2b00      	cmp	r3, #0
 8003a7c:	d1f9      	bne.n	8003a72 <_vfprintf_r+0xaa>
 8003a7e:	1be5      	subs	r5, r4, r7
 8003a80:	b18d      	cbz	r5, 8003aa6 <_vfprintf_r+0xde>
 8003a82:	e9dd 322b 	ldrd	r3, r2, [sp, #172]	; 0xac
 8003a86:	3301      	adds	r3, #1
 8003a88:	442a      	add	r2, r5
 8003a8a:	2b07      	cmp	r3, #7
 8003a8c:	f8cb 7000 	str.w	r7, [fp]
 8003a90:	f8cb 5004 	str.w	r5, [fp, #4]
 8003a94:	e9cd 322b 	strd	r3, r2, [sp, #172]	; 0xac
 8003a98:	f300 80ca 	bgt.w	8003c30 <_vfprintf_r+0x268>
 8003a9c:	f10b 0b08 	add.w	fp, fp, #8
 8003aa0:	9b05      	ldr	r3, [sp, #20]
 8003aa2:	442b      	add	r3, r5
 8003aa4:	9305      	str	r3, [sp, #20]
 8003aa6:	7823      	ldrb	r3, [r4, #0]
 8003aa8:	2b00      	cmp	r3, #0
 8003aaa:	f000 8237 	beq.w	8003f1c <_vfprintf_r+0x554>
 8003aae:	2300      	movs	r3, #0
 8003ab0:	7866      	ldrb	r6, [r4, #1]
 8003ab2:	9306      	str	r3, [sp, #24]
 8003ab4:	4698      	mov	r8, r3
 8003ab6:	f88d 308b 	strb.w	r3, [sp, #139]	; 0x8b
 8003aba:	f104 0a01 	add.w	sl, r4, #1
 8003abe:	f04f 39ff 	mov.w	r9, #4294967295	; 0xffffffff
 8003ac2:	252b      	movs	r5, #43	; 0x2b
 8003ac4:	f10a 0a01 	add.w	sl, sl, #1
 8003ac8:	f1a6 0320 	sub.w	r3, r6, #32
 8003acc:	2b5a      	cmp	r3, #90	; 0x5a
 8003ace:	f200 842a 	bhi.w	8004326 <_vfprintf_r+0x95e>
 8003ad2:	e8df f013 	tbh	[pc, r3, lsl #1]
 8003ad6:	03aa      	.short	0x03aa
 8003ad8:	04280428 	.word	0x04280428
 8003adc:	0428029c 	.word	0x0428029c
 8003ae0:	04280428 	.word	0x04280428
 8003ae4:	042802a7 	.word	0x042802a7
 8003ae8:	02c60428 	.word	0x02c60428
 8003aec:	042802d2 	.word	0x042802d2
 8003af0:	02dc02d7 	.word	0x02dc02d7
 8003af4:	02f60428 	.word	0x02f60428
 8003af8:	026d026d 	.word	0x026d026d
 8003afc:	026d026d 	.word	0x026d026d
 8003b00:	026d026d 	.word	0x026d026d
 8003b04:	026d026d 	.word	0x026d026d
 8003b08:	0428026d 	.word	0x0428026d
 8003b0c:	04280428 	.word	0x04280428
 8003b10:	04280428 	.word	0x04280428
 8003b14:	04280428 	.word	0x04280428
 8003b18:	042802fb 	.word	0x042802fb
 8003b1c:	03f3033c 	.word	0x03f3033c
 8003b20:	02fb02fb 	.word	0x02fb02fb
 8003b24:	042802fb 	.word	0x042802fb
 8003b28:	04280428 	.word	0x04280428
 8003b2c:	03ee0428 	.word	0x03ee0428
 8003b30:	04280428 	.word	0x04280428
 8003b34:	0428009a 	.word	0x0428009a
 8003b38:	04280428 	.word	0x04280428
 8003b3c:	04280350 	.word	0x04280350
 8003b40:	04280379 	.word	0x04280379
 8003b44:	03900428 	.word	0x03900428
 8003b48:	04280428 	.word	0x04280428
 8003b4c:	04280428 	.word	0x04280428
 8003b50:	04280428 	.word	0x04280428
 8003b54:	04280428 	.word	0x04280428
 8003b58:	042802fb 	.word	0x042802fb
 8003b5c:	00c5033c 	.word	0x00c5033c
 8003b60:	02fb02fb 	.word	0x02fb02fb
 8003b64:	03d102fb 	.word	0x03d102fb
 8003b68:	007000c5 	.word	0x007000c5
 8003b6c:	03b50428 	.word	0x03b50428
 8003b70:	03c20428 	.word	0x03c20428
 8003b74:	03de009c 	.word	0x03de009c
 8003b78:	04280070 	.word	0x04280070
 8003b7c:	00720350 	.word	0x00720350
 8003b80:	0428022c 	.word	0x0428022c
 8003b84:	027c0428 	.word	0x027c0428
 8003b88:	00720428 	.word	0x00720428
 8003b8c:	4649      	mov	r1, r9
 8003b8e:	9803      	ldr	r0, [sp, #12]
 8003b90:	f001 fc9a 	bl	80054c8 <__swsetup_r>
 8003b94:	b1a0      	cbz	r0, 8003bc0 <_vfprintf_r+0x1f8>
 8003b96:	f8d9 3064 	ldr.w	r3, [r9, #100]	; 0x64
 8003b9a:	07d8      	lsls	r0, r3, #31
 8003b9c:	d404      	bmi.n	8003ba8 <_vfprintf_r+0x1e0>
 8003b9e:	f8b9 300c 	ldrh.w	r3, [r9, #12]
 8003ba2:	0599      	lsls	r1, r3, #22
 8003ba4:	f140 83b7 	bpl.w	8004316 <_vfprintf_r+0x94e>
 8003ba8:	f04f 33ff 	mov.w	r3, #4294967295	; 0xffffffff
 8003bac:	9305      	str	r3, [sp, #20]
 8003bae:	9805      	ldr	r0, [sp, #20]
 8003bb0:	b057      	add	sp, #348	; 0x15c
 8003bb2:	e8bd 8ff0 	ldmia.w	sp!, {r4, r5, r6, r7, r8, r9, sl, fp, pc}
 8003bb6:	f048 0820 	orr.w	r8, r8, #32
 8003bba:	f89a 6000 	ldrb.w	r6, [sl]
 8003bbe:	e781      	b.n	8003ac4 <_vfprintf_r+0xfc>
 8003bc0:	f8b9 300c 	ldrh.w	r3, [r9, #12]
 8003bc4:	f003 021a 	and.w	r2, r3, #26
 8003bc8:	2a0a      	cmp	r2, #10
 8003bca:	f47f af37 	bne.w	8003a3c <_vfprintf_r+0x74>
 8003bce:	f9b9 200e 	ldrsh.w	r2, [r9, #14]
 8003bd2:	2a00      	cmp	r2, #0
 8003bd4:	f6ff af32 	blt.w	8003a3c <_vfprintf_r+0x74>
 8003bd8:	f8d9 2064 	ldr.w	r2, [r9, #100]	; 0x64
 8003bdc:	07d2      	lsls	r2, r2, #31
 8003bde:	d405      	bmi.n	8003bec <_vfprintf_r+0x224>
 8003be0:	059b      	lsls	r3, r3, #22
 8003be2:	d403      	bmi.n	8003bec <_vfprintf_r+0x224>
 8003be4:	f8d9 0058 	ldr.w	r0, [r9, #88]	; 0x58
 8003be8:	f003 f8de 	bl	8006da8 <__retarget_lock_release_recursive>
 8003bec:	4623      	mov	r3, r4
 8003bee:	463a      	mov	r2, r7
 8003bf0:	4649      	mov	r1, r9
 8003bf2:	9803      	ldr	r0, [sp, #12]
 8003bf4:	f001 fc26 	bl	8005444 <__sbprintf>
 8003bf8:	9005      	str	r0, [sp, #20]
 8003bfa:	9805      	ldr	r0, [sp, #20]
 8003bfc:	b057      	add	sp, #348	; 0x15c
 8003bfe:	e8bd 8ff0 	ldmia.w	sp!, {r4, r5, r6, r7, r8, r9, sl, fp, pc}
 8003c02:	9803      	ldr	r0, [sp, #12]
 8003c04:	f002 fd7e 	bl	8006704 <__sinit>
 8003c08:	e6f4      	b.n	80039f4 <_vfprintf_r+0x2c>
 8003c0a:	f048 0810 	orr.w	r8, r8, #16
 8003c0e:	f018 0f20 	tst.w	r8, #32
 8003c12:	f000 836c 	beq.w	80042ee <_vfprintf_r+0x926>
 8003c16:	9c08      	ldr	r4, [sp, #32]
 8003c18:	3407      	adds	r4, #7
 8003c1a:	f024 0307 	bic.w	r3, r4, #7
 8003c1e:	e9d3 4500 	ldrd	r4, r5, [r3]
 8003c22:	f103 0208 	add.w	r2, r3, #8
 8003c26:	9208      	str	r2, [sp, #32]
 8003c28:	f428 6380 	bic.w	r3, r8, #1024	; 0x400
 8003c2c:	2200      	movs	r2, #0
 8003c2e:	e18c      	b.n	8003f4a <_vfprintf_r+0x582>
 8003c30:	aa2a      	add	r2, sp, #168	; 0xa8
 8003c32:	9907      	ldr	r1, [sp, #28]
 8003c34:	9803      	ldr	r0, [sp, #12]
 8003c36:	f004 f9f5 	bl	8008024 <__sprint_r>
 8003c3a:	2800      	cmp	r0, #0
 8003c3c:	f041 8376 	bne.w	800532c <_vfprintf_r+0x1964>
 8003c40:	f10d 0bb4 	add.w	fp, sp, #180	; 0xb4
 8003c44:	e72c      	b.n	8003aa0 <_vfprintf_r+0xd8>
 8003c46:	f8d9 0058 	ldr.w	r0, [r9, #88]	; 0x58
 8003c4a:	f003 f8ab 	bl	8006da4 <__retarget_lock_acquire_recursive>
 8003c4e:	f9b9 200c 	ldrsh.w	r2, [r9, #12]
 8003c52:	b293      	uxth	r3, r2
 8003c54:	e6d8      	b.n	8003a08 <_vfprintf_r+0x40>
 8003c56:	bf00      	nop
	...
 8003c60:	4643      	mov	r3, r8
 8003c62:	069f      	lsls	r7, r3, #26
 8003c64:	f140 832f 	bpl.w	80042c6 <_vfprintf_r+0x8fe>
 8003c68:	9c08      	ldr	r4, [sp, #32]
 8003c6a:	3407      	adds	r4, #7
 8003c6c:	f024 0407 	bic.w	r4, r4, #7
 8003c70:	e9d4 0100 	ldrd	r0, r1, [r4]
 8003c74:	f104 0208 	add.w	r2, r4, #8
 8003c78:	9208      	str	r2, [sp, #32]
 8003c7a:	4604      	mov	r4, r0
 8003c7c:	460d      	mov	r5, r1
 8003c7e:	2800      	cmp	r0, #0
 8003c80:	f171 0200 	sbcs.w	r2, r1, #0
 8003c84:	da05      	bge.n	8003c92 <_vfprintf_r+0x2ca>
 8003c86:	222d      	movs	r2, #45	; 0x2d
 8003c88:	4264      	negs	r4, r4
 8003c8a:	eb65 0545 	sbc.w	r5, r5, r5, lsl #1
 8003c8e:	f88d 208b 	strb.w	r2, [sp, #139]	; 0x8b
 8003c92:	aa56      	add	r2, sp, #344	; 0x158
 8003c94:	f1b9 3fff 	cmp.w	r9, #4294967295	; 0xffffffff
 8003c98:	9204      	str	r2, [sp, #16]
 8003c9a:	f000 84b2 	beq.w	8004602 <_vfprintf_r+0xc3a>
 8003c9e:	2201      	movs	r2, #1
 8003ca0:	ea54 0105 	orrs.w	r1, r4, r5
 8003ca4:	f023 0880 	bic.w	r8, r3, #128	; 0x80
 8003ca8:	f040 8159 	bne.w	8003f5e <_vfprintf_r+0x596>
 8003cac:	f1b9 0f00 	cmp.w	r9, #0
 8003cb0:	f040 8619 	bne.w	80048e6 <_vfprintf_r+0xf1e>
 8003cb4:	2a00      	cmp	r2, #0
 8003cb6:	f040 8508 	bne.w	80046ca <_vfprintf_r+0xd02>
 8003cba:	f013 0301 	ands.w	r3, r3, #1
 8003cbe:	af56      	add	r7, sp, #344	; 0x158
 8003cc0:	9309      	str	r3, [sp, #36]	; 0x24
 8003cc2:	d002      	beq.n	8003cca <_vfprintf_r+0x302>
 8003cc4:	2330      	movs	r3, #48	; 0x30
 8003cc6:	f807 3d01 	strb.w	r3, [r7, #-1]!
 8003cca:	2300      	movs	r3, #0
 8003ccc:	930a      	str	r3, [sp, #40]	; 0x28
 8003cce:	930f      	str	r3, [sp, #60]	; 0x3c
 8003cd0:	9314      	str	r3, [sp, #80]	; 0x50
 8003cd2:	9311      	str	r3, [sp, #68]	; 0x44
 8003cd4:	9b09      	ldr	r3, [sp, #36]	; 0x24
 8003cd6:	f89d 208b 	ldrb.w	r2, [sp, #139]	; 0x8b
 8003cda:	454b      	cmp	r3, r9
 8003cdc:	bfb8      	it	lt
 8003cde:	464b      	movlt	r3, r9
 8003ce0:	9304      	str	r3, [sp, #16]
 8003ce2:	b112      	cbz	r2, 8003cea <_vfprintf_r+0x322>
 8003ce4:	9b04      	ldr	r3, [sp, #16]
 8003ce6:	3301      	adds	r3, #1
 8003ce8:	9304      	str	r3, [sp, #16]
 8003cea:	f018 0302 	ands.w	r3, r8, #2
 8003cee:	930b      	str	r3, [sp, #44]	; 0x2c
 8003cf0:	d002      	beq.n	8003cf8 <_vfprintf_r+0x330>
 8003cf2:	9b04      	ldr	r3, [sp, #16]
 8003cf4:	3302      	adds	r3, #2
 8003cf6:	9304      	str	r3, [sp, #16]
 8003cf8:	f018 0384 	ands.w	r3, r8, #132	; 0x84
 8003cfc:	9c2c      	ldr	r4, [sp, #176]	; 0xb0
 8003cfe:	930e      	str	r3, [sp, #56]	; 0x38
 8003d00:	d13f      	bne.n	8003d82 <_vfprintf_r+0x3ba>
 8003d02:	9b06      	ldr	r3, [sp, #24]
 8003d04:	9904      	ldr	r1, [sp, #16]
 8003d06:	1a5d      	subs	r5, r3, r1
 8003d08:	2d00      	cmp	r5, #0
 8003d0a:	dd3a      	ble.n	8003d82 <_vfprintf_r+0x3ba>
 8003d0c:	2d10      	cmp	r5, #16
 8003d0e:	9a2b      	ldr	r2, [sp, #172]	; 0xac
 8003d10:	dd29      	ble.n	8003d66 <_vfprintf_r+0x39e>
 8003d12:	4659      	mov	r1, fp
 8003d14:	4620      	mov	r0, r4
 8003d16:	9620      	str	r6, [sp, #128]	; 0x80
 8003d18:	2310      	movs	r3, #16
 8003d1a:	9c03      	ldr	r4, [sp, #12]
 8003d1c:	9e07      	ldr	r6, [sp, #28]
 8003d1e:	46bb      	mov	fp, r7
 8003d20:	e004      	b.n	8003d2c <_vfprintf_r+0x364>
 8003d22:	3d10      	subs	r5, #16
 8003d24:	2d10      	cmp	r5, #16
 8003d26:	f101 0108 	add.w	r1, r1, #8
 8003d2a:	dd18      	ble.n	8003d5e <_vfprintf_r+0x396>
 8003d2c:	3201      	adds	r2, #1
 8003d2e:	4fba      	ldr	r7, [pc, #744]	; (8004018 <_vfprintf_r+0x650>)
 8003d30:	3010      	adds	r0, #16
 8003d32:	2a07      	cmp	r2, #7
 8003d34:	e9cd 202b 	strd	r2, r0, [sp, #172]	; 0xac
 8003d38:	e9c1 7300 	strd	r7, r3, [r1]
 8003d3c:	ddf1      	ble.n	8003d22 <_vfprintf_r+0x35a>
 8003d3e:	aa2a      	add	r2, sp, #168	; 0xa8
 8003d40:	4631      	mov	r1, r6
 8003d42:	4620      	mov	r0, r4
 8003d44:	930c      	str	r3, [sp, #48]	; 0x30
 8003d46:	f004 f96d 	bl	8008024 <__sprint_r>
 8003d4a:	2800      	cmp	r0, #0
 8003d4c:	f040 843d 	bne.w	80045ca <_vfprintf_r+0xc02>
 8003d50:	3d10      	subs	r5, #16
 8003d52:	2d10      	cmp	r5, #16
 8003d54:	e9dd 202b 	ldrd	r2, r0, [sp, #172]	; 0xac
 8003d58:	a92d      	add	r1, sp, #180	; 0xb4
 8003d5a:	9b0c      	ldr	r3, [sp, #48]	; 0x30
 8003d5c:	dce6      	bgt.n	8003d2c <_vfprintf_r+0x364>
 8003d5e:	9e20      	ldr	r6, [sp, #128]	; 0x80
 8003d60:	465f      	mov	r7, fp
 8003d62:	4604      	mov	r4, r0
 8003d64:	468b      	mov	fp, r1
 8003d66:	3201      	adds	r2, #1
 8003d68:	4bab      	ldr	r3, [pc, #684]	; (8004018 <_vfprintf_r+0x650>)
 8003d6a:	442c      	add	r4, r5
 8003d6c:	2a07      	cmp	r2, #7
 8003d6e:	e9cd 242b 	strd	r2, r4, [sp, #172]	; 0xac
 8003d72:	e9cb 3500 	strd	r3, r5, [fp]
 8003d76:	f300 84ff 	bgt.w	8004778 <_vfprintf_r+0xdb0>
 8003d7a:	f89d 208b 	ldrb.w	r2, [sp, #139]	; 0x8b
 8003d7e:	f10b 0b08 	add.w	fp, fp, #8
 8003d82:	b172      	cbz	r2, 8003da2 <_vfprintf_r+0x3da>
 8003d84:	9a2b      	ldr	r2, [sp, #172]	; 0xac
 8003d86:	3201      	adds	r2, #1
 8003d88:	3401      	adds	r4, #1
 8003d8a:	f10d 008b 	add.w	r0, sp, #139	; 0x8b
 8003d8e:	2101      	movs	r1, #1
 8003d90:	2a07      	cmp	r2, #7
 8003d92:	e9cd 242b 	strd	r2, r4, [sp, #172]	; 0xac
 8003d96:	e9cb 0100 	strd	r0, r1, [fp]
 8003d9a:	f300 8418 	bgt.w	80045ce <_vfprintf_r+0xc06>
 8003d9e:	f10b 0b08 	add.w	fp, fp, #8
 8003da2:	9b0b      	ldr	r3, [sp, #44]	; 0x2c
 8003da4:	b16b      	cbz	r3, 8003dc2 <_vfprintf_r+0x3fa>
 8003da6:	9b2b      	ldr	r3, [sp, #172]	; 0xac
 8003da8:	3301      	adds	r3, #1
 8003daa:	3402      	adds	r4, #2
 8003dac:	a923      	add	r1, sp, #140	; 0x8c
 8003dae:	2202      	movs	r2, #2
 8003db0:	2b07      	cmp	r3, #7
 8003db2:	e9cd 342b 	strd	r3, r4, [sp, #172]	; 0xac
 8003db6:	e9cb 1200 	strd	r1, r2, [fp]
 8003dba:	f300 8415 	bgt.w	80045e8 <_vfprintf_r+0xc20>
 8003dbe:	f10b 0b08 	add.w	fp, fp, #8
 8003dc2:	9b0e      	ldr	r3, [sp, #56]	; 0x38
 8003dc4:	2b80      	cmp	r3, #128	; 0x80
 8003dc6:	f000 8331 	beq.w	800442c <_vfprintf_r+0xa64>
 8003dca:	9b09      	ldr	r3, [sp, #36]	; 0x24
 8003dcc:	eba9 0503 	sub.w	r5, r9, r3
 8003dd0:	2d00      	cmp	r5, #0
 8003dd2:	dd37      	ble.n	8003e44 <_vfprintf_r+0x47c>
 8003dd4:	2d10      	cmp	r5, #16
 8003dd6:	9a2b      	ldr	r2, [sp, #172]	; 0xac
 8003dd8:	4b90      	ldr	r3, [pc, #576]	; (800401c <_vfprintf_r+0x654>)
 8003dda:	dd28      	ble.n	8003e2e <_vfprintf_r+0x466>
 8003ddc:	4659      	mov	r1, fp
 8003dde:	4620      	mov	r0, r4
 8003de0:	46bb      	mov	fp, r7
 8003de2:	f04f 0910 	mov.w	r9, #16
 8003de6:	4637      	mov	r7, r6
 8003de8:	461c      	mov	r4, r3
 8003dea:	9e07      	ldr	r6, [sp, #28]
 8003dec:	e004      	b.n	8003df8 <_vfprintf_r+0x430>
 8003dee:	3d10      	subs	r5, #16
 8003df0:	2d10      	cmp	r5, #16
 8003df2:	f101 0108 	add.w	r1, r1, #8
 8003df6:	dd15      	ble.n	8003e24 <_vfprintf_r+0x45c>
 8003df8:	3201      	adds	r2, #1
 8003dfa:	3010      	adds	r0, #16
 8003dfc:	2a07      	cmp	r2, #7
 8003dfe:	e9cd 202b 	strd	r2, r0, [sp, #172]	; 0xac
 8003e02:	e9c1 4900 	strd	r4, r9, [r1]
 8003e06:	ddf2      	ble.n	8003dee <_vfprintf_r+0x426>
 8003e08:	aa2a      	add	r2, sp, #168	; 0xa8
 8003e0a:	4631      	mov	r1, r6
 8003e0c:	9803      	ldr	r0, [sp, #12]
 8003e0e:	f004 f909 	bl	8008024 <__sprint_r>
 8003e12:	2800      	cmp	r0, #0
 8003e14:	f040 83d9 	bne.w	80045ca <_vfprintf_r+0xc02>
 8003e18:	3d10      	subs	r5, #16
 8003e1a:	2d10      	cmp	r5, #16
 8003e1c:	e9dd 202b 	ldrd	r2, r0, [sp, #172]	; 0xac
 8003e20:	a92d      	add	r1, sp, #180	; 0xb4
 8003e22:	dce9      	bgt.n	8003df8 <_vfprintf_r+0x430>
 8003e24:	463e      	mov	r6, r7
 8003e26:	4623      	mov	r3, r4
 8003e28:	465f      	mov	r7, fp
 8003e2a:	4604      	mov	r4, r0
 8003e2c:	468b      	mov	fp, r1
 8003e2e:	3201      	adds	r2, #1
 8003e30:	442c      	add	r4, r5
 8003e32:	2a07      	cmp	r2, #7
 8003e34:	e9cd 242b 	strd	r2, r4, [sp, #172]	; 0xac
 8003e38:	e9cb 3500 	strd	r3, r5, [fp]
 8003e3c:	f300 83ef 	bgt.w	800461e <_vfprintf_r+0xc56>
 8003e40:	f10b 0b08 	add.w	fp, fp, #8
 8003e44:	f418 7f80 	tst.w	r8, #256	; 0x100
 8003e48:	f040 8280 	bne.w	800434c <_vfprintf_r+0x984>
 8003e4c:	9b2b      	ldr	r3, [sp, #172]	; 0xac
 8003e4e:	9a09      	ldr	r2, [sp, #36]	; 0x24
 8003e50:	f8cb 7000 	str.w	r7, [fp]
 8003e54:	3301      	adds	r3, #1
 8003e56:	4414      	add	r4, r2
 8003e58:	2b07      	cmp	r3, #7
 8003e5a:	942c      	str	r4, [sp, #176]	; 0xb0
 8003e5c:	f8cb 2004 	str.w	r2, [fp, #4]
 8003e60:	932b      	str	r3, [sp, #172]	; 0xac
 8003e62:	f300 8392 	bgt.w	800458a <_vfprintf_r+0xbc2>
 8003e66:	f10b 0b08 	add.w	fp, fp, #8
 8003e6a:	f018 0f04 	tst.w	r8, #4
 8003e6e:	d03b      	beq.n	8003ee8 <_vfprintf_r+0x520>
 8003e70:	9b06      	ldr	r3, [sp, #24]
 8003e72:	9a04      	ldr	r2, [sp, #16]
 8003e74:	1a9d      	subs	r5, r3, r2
 8003e76:	2d00      	cmp	r5, #0
 8003e78:	dd36      	ble.n	8003ee8 <_vfprintf_r+0x520>
 8003e7a:	2d10      	cmp	r5, #16
 8003e7c:	9b2b      	ldr	r3, [sp, #172]	; 0xac
 8003e7e:	dd21      	ble.n	8003ec4 <_vfprintf_r+0x4fc>
 8003e80:	2610      	movs	r6, #16
 8003e82:	9f03      	ldr	r7, [sp, #12]
 8003e84:	f8dd 801c 	ldr.w	r8, [sp, #28]
 8003e88:	e004      	b.n	8003e94 <_vfprintf_r+0x4cc>
 8003e8a:	3d10      	subs	r5, #16
 8003e8c:	2d10      	cmp	r5, #16
 8003e8e:	f10b 0b08 	add.w	fp, fp, #8
 8003e92:	dd17      	ble.n	8003ec4 <_vfprintf_r+0x4fc>
 8003e94:	3301      	adds	r3, #1
 8003e96:	4a60      	ldr	r2, [pc, #384]	; (8004018 <_vfprintf_r+0x650>)
 8003e98:	3410      	adds	r4, #16
 8003e9a:	2b07      	cmp	r3, #7
 8003e9c:	e9cd 342b 	strd	r3, r4, [sp, #172]	; 0xac
 8003ea0:	e9cb 2600 	strd	r2, r6, [fp]
 8003ea4:	ddf1      	ble.n	8003e8a <_vfprintf_r+0x4c2>
 8003ea6:	aa2a      	add	r2, sp, #168	; 0xa8
 8003ea8:	4641      	mov	r1, r8
 8003eaa:	4638      	mov	r0, r7
 8003eac:	f004 f8ba 	bl	8008024 <__sprint_r>
 8003eb0:	2800      	cmp	r0, #0
 8003eb2:	f040 856c 	bne.w	800498e <_vfprintf_r+0xfc6>
 8003eb6:	3d10      	subs	r5, #16
 8003eb8:	2d10      	cmp	r5, #16
 8003eba:	e9dd 342b 	ldrd	r3, r4, [sp, #172]	; 0xac
 8003ebe:	f10d 0bb4 	add.w	fp, sp, #180	; 0xb4
 8003ec2:	dce7      	bgt.n	8003e94 <_vfprintf_r+0x4cc>
 8003ec4:	3301      	adds	r3, #1
 8003ec6:	4a54      	ldr	r2, [pc, #336]	; (8004018 <_vfprintf_r+0x650>)
 8003ec8:	442c      	add	r4, r5
 8003eca:	2b07      	cmp	r3, #7
 8003ecc:	e9cd 342b 	strd	r3, r4, [sp, #172]	; 0xac
 8003ed0:	e9cb 2500 	strd	r2, r5, [fp]
 8003ed4:	dd08      	ble.n	8003ee8 <_vfprintf_r+0x520>
 8003ed6:	aa2a      	add	r2, sp, #168	; 0xa8
 8003ed8:	9907      	ldr	r1, [sp, #28]
 8003eda:	9803      	ldr	r0, [sp, #12]
 8003edc:	f004 f8a2 	bl	8008024 <__sprint_r>
 8003ee0:	2800      	cmp	r0, #0
 8003ee2:	f040 82e9 	bne.w	80044b8 <_vfprintf_r+0xaf0>
 8003ee6:	9c2c      	ldr	r4, [sp, #176]	; 0xb0
 8003ee8:	9904      	ldr	r1, [sp, #16]
 8003eea:	e9dd 3205 	ldrd	r3, r2, [sp, #20]
 8003eee:	428a      	cmp	r2, r1
 8003ef0:	bfac      	ite	ge
 8003ef2:	189b      	addge	r3, r3, r2
 8003ef4:	185b      	addlt	r3, r3, r1
 8003ef6:	9305      	str	r3, [sp, #20]
 8003ef8:	2c00      	cmp	r4, #0
 8003efa:	f040 82d5 	bne.w	80044a8 <_vfprintf_r+0xae0>
 8003efe:	2300      	movs	r3, #0
 8003f00:	932b      	str	r3, [sp, #172]	; 0xac
 8003f02:	9b0a      	ldr	r3, [sp, #40]	; 0x28
 8003f04:	b11b      	cbz	r3, 8003f0e <_vfprintf_r+0x546>
 8003f06:	990a      	ldr	r1, [sp, #40]	; 0x28
 8003f08:	9803      	ldr	r0, [sp, #12]
 8003f0a:	f002 fc9d 	bl	8006848 <_free_r>
 8003f0e:	f10d 0bb4 	add.w	fp, sp, #180	; 0xb4
 8003f12:	4657      	mov	r7, sl
 8003f14:	783b      	ldrb	r3, [r7, #0]
 8003f16:	2b00      	cmp	r3, #0
 8003f18:	f47f ada7 	bne.w	8003a6a <_vfprintf_r+0xa2>
 8003f1c:	9b2c      	ldr	r3, [sp, #176]	; 0xb0
 8003f1e:	f8dd 901c 	ldr.w	r9, [sp, #28]
 8003f22:	2b00      	cmp	r3, #0
 8003f24:	f041 80e7 	bne.w	80050f6 <_vfprintf_r+0x172e>
 8003f28:	2300      	movs	r3, #0
 8003f2a:	932b      	str	r3, [sp, #172]	; 0xac
 8003f2c:	e2cb      	b.n	80044c6 <_vfprintf_r+0xafe>
 8003f2e:	4643      	mov	r3, r8
 8003f30:	069a      	lsls	r2, r3, #26
 8003f32:	f140 814e 	bpl.w	80041d2 <_vfprintf_r+0x80a>
 8003f36:	9c08      	ldr	r4, [sp, #32]
 8003f38:	3407      	adds	r4, #7
 8003f3a:	f024 0207 	bic.w	r2, r4, #7
 8003f3e:	f102 0108 	add.w	r1, r2, #8
 8003f42:	e9d2 4500 	ldrd	r4, r5, [r2]
 8003f46:	9108      	str	r1, [sp, #32]
 8003f48:	2201      	movs	r2, #1
 8003f4a:	2100      	movs	r1, #0
 8003f4c:	f88d 108b 	strb.w	r1, [sp, #139]	; 0x8b
 8003f50:	f1b9 3fff 	cmp.w	r9, #4294967295	; 0xffffffff
 8003f54:	a956      	add	r1, sp, #344	; 0x158
 8003f56:	9104      	str	r1, [sp, #16]
 8003f58:	f47f aea2 	bne.w	8003ca0 <_vfprintf_r+0x2d8>
 8003f5c:	4698      	mov	r8, r3
 8003f5e:	2a01      	cmp	r2, #1
 8003f60:	f000 8350 	beq.w	8004604 <_vfprintf_r+0xc3c>
 8003f64:	2a02      	cmp	r2, #2
 8003f66:	f000 831b 	beq.w	80045a0 <_vfprintf_r+0xbd8>
 8003f6a:	a956      	add	r1, sp, #344	; 0x158
 8003f6c:	e000      	b.n	8003f70 <_vfprintf_r+0x5a8>
 8003f6e:	4639      	mov	r1, r7
 8003f70:	08e2      	lsrs	r2, r4, #3
 8003f72:	ea42 7245 	orr.w	r2, r2, r5, lsl #29
 8003f76:	08e8      	lsrs	r0, r5, #3
 8003f78:	f004 0307 	and.w	r3, r4, #7
 8003f7c:	4605      	mov	r5, r0
 8003f7e:	4614      	mov	r4, r2
 8003f80:	3330      	adds	r3, #48	; 0x30
 8003f82:	ea54 0205 	orrs.w	r2, r4, r5
 8003f86:	f801 3c01 	strb.w	r3, [r1, #-1]
 8003f8a:	f101 37ff 	add.w	r7, r1, #4294967295	; 0xffffffff
 8003f8e:	d1ee      	bne.n	8003f6e <_vfprintf_r+0x5a6>
 8003f90:	f018 0f01 	tst.w	r8, #1
 8003f94:	f000 8314 	beq.w	80045c0 <_vfprintf_r+0xbf8>
 8003f98:	2b30      	cmp	r3, #48	; 0x30
 8003f9a:	f000 8311 	beq.w	80045c0 <_vfprintf_r+0xbf8>
 8003f9e:	9a04      	ldr	r2, [sp, #16]
 8003fa0:	3902      	subs	r1, #2
 8003fa2:	2330      	movs	r3, #48	; 0x30
 8003fa4:	1a52      	subs	r2, r2, r1
 8003fa6:	f807 3c01 	strb.w	r3, [r7, #-1]
 8003faa:	9209      	str	r2, [sp, #36]	; 0x24
 8003fac:	460f      	mov	r7, r1
 8003fae:	e68c      	b.n	8003cca <_vfprintf_r+0x302>
 8003fb0:	f1a6 0330 	sub.w	r3, r6, #48	; 0x30
 8003fb4:	2200      	movs	r2, #0
 8003fb6:	f81a 6b01 	ldrb.w	r6, [sl], #1
 8003fba:	eb02 0282 	add.w	r2, r2, r2, lsl #2
 8003fbe:	eb03 0242 	add.w	r2, r3, r2, lsl #1
 8003fc2:	f1a6 0330 	sub.w	r3, r6, #48	; 0x30
 8003fc6:	2b09      	cmp	r3, #9
 8003fc8:	d9f5      	bls.n	8003fb6 <_vfprintf_r+0x5ee>
 8003fca:	9206      	str	r2, [sp, #24]
 8003fcc:	e57c      	b.n	8003ac8 <_vfprintf_r+0x100>
 8003fce:	4b14      	ldr	r3, [pc, #80]	; (8004020 <_vfprintf_r+0x658>)
 8003fd0:	9317      	str	r3, [sp, #92]	; 0x5c
 8003fd2:	f018 0f20 	tst.w	r8, #32
 8003fd6:	f000 8114 	beq.w	8004202 <_vfprintf_r+0x83a>
 8003fda:	9c08      	ldr	r4, [sp, #32]
 8003fdc:	3407      	adds	r4, #7
 8003fde:	f024 0307 	bic.w	r3, r4, #7
 8003fe2:	e9d3 4500 	ldrd	r4, r5, [r3]
 8003fe6:	f103 0208 	add.w	r2, r3, #8
 8003fea:	9208      	str	r2, [sp, #32]
 8003fec:	f018 0f01 	tst.w	r8, #1
 8003ff0:	d009      	beq.n	8004006 <_vfprintf_r+0x63e>
 8003ff2:	ea54 0305 	orrs.w	r3, r4, r5
 8003ff6:	d006      	beq.n	8004006 <_vfprintf_r+0x63e>
 8003ff8:	2330      	movs	r3, #48	; 0x30
 8003ffa:	f88d 608d 	strb.w	r6, [sp, #141]	; 0x8d
 8003ffe:	f048 0802 	orr.w	r8, r8, #2
 8004002:	f88d 308c 	strb.w	r3, [sp, #140]	; 0x8c
 8004006:	f428 6380 	bic.w	r3, r8, #1024	; 0x400
 800400a:	2202      	movs	r2, #2
 800400c:	e79d      	b.n	8003f4a <_vfprintf_r+0x582>
 800400e:	f048 0801 	orr.w	r8, r8, #1
 8004012:	f89a 6000 	ldrb.w	r6, [sl]
 8004016:	e555      	b.n	8003ac4 <_vfprintf_r+0xfc>
 8004018:	0800a730 	.word	0x0800a730
 800401c:	0800a740 	.word	0x0800a740
 8004020:	0800a6fc 	.word	0x0800a6fc
 8004024:	9e03      	ldr	r6, [sp, #12]
 8004026:	4630      	mov	r0, r6
 8004028:	f002 feaa 	bl	8006d80 <_localeconv_r>
 800402c:	6843      	ldr	r3, [r0, #4]
 800402e:	9318      	str	r3, [sp, #96]	; 0x60
 8004030:	4618      	mov	r0, r3
 8004032:	f7fc fb05 	bl	8000640 <strlen>
 8004036:	901b      	str	r0, [sp, #108]	; 0x6c
 8004038:	4604      	mov	r4, r0
 800403a:	4630      	mov	r0, r6
 800403c:	f002 fea0 	bl	8006d80 <_localeconv_r>
 8004040:	6883      	ldr	r3, [r0, #8]
 8004042:	931a      	str	r3, [sp, #104]	; 0x68
 8004044:	2c00      	cmp	r4, #0
 8004046:	f43f adb8 	beq.w	8003bba <_vfprintf_r+0x1f2>
 800404a:	f89a 6000 	ldrb.w	r6, [sl]
 800404e:	2b00      	cmp	r3, #0
 8004050:	f43f ad38 	beq.w	8003ac4 <_vfprintf_r+0xfc>
 8004054:	781b      	ldrb	r3, [r3, #0]
 8004056:	2b00      	cmp	r3, #0
 8004058:	f43f ad34 	beq.w	8003ac4 <_vfprintf_r+0xfc>
 800405c:	f448 6880 	orr.w	r8, r8, #1024	; 0x400
 8004060:	e530      	b.n	8003ac4 <_vfprintf_r+0xfc>
 8004062:	9b08      	ldr	r3, [sp, #32]
 8004064:	f89a 6000 	ldrb.w	r6, [sl]
 8004068:	681a      	ldr	r2, [r3, #0]
 800406a:	9206      	str	r2, [sp, #24]
 800406c:	2a00      	cmp	r2, #0
 800406e:	f103 0304 	add.w	r3, r3, #4
 8004072:	f2c0 8697 	blt.w	8004da4 <_vfprintf_r+0x13dc>
 8004076:	9308      	str	r3, [sp, #32]
 8004078:	e524      	b.n	8003ac4 <_vfprintf_r+0xfc>
 800407a:	f88d 508b 	strb.w	r5, [sp, #139]	; 0x8b
 800407e:	f89a 6000 	ldrb.w	r6, [sl]
 8004082:	e51f      	b.n	8003ac4 <_vfprintf_r+0xfc>
 8004084:	f89a 6000 	ldrb.w	r6, [sl]
 8004088:	f048 0804 	orr.w	r8, r8, #4
 800408c:	e51a      	b.n	8003ac4 <_vfprintf_r+0xfc>
 800408e:	f89a 6000 	ldrb.w	r6, [sl]
 8004092:	2e2a      	cmp	r6, #42	; 0x2a
 8004094:	f10a 0201 	add.w	r2, sl, #1
 8004098:	f001 81b0 	beq.w	80053fc <_vfprintf_r+0x1a34>
 800409c:	f1a6 0330 	sub.w	r3, r6, #48	; 0x30
 80040a0:	2b09      	cmp	r3, #9
 80040a2:	4692      	mov	sl, r2
 80040a4:	f04f 0900 	mov.w	r9, #0
 80040a8:	f63f ad0e 	bhi.w	8003ac8 <_vfprintf_r+0x100>
 80040ac:	f81a 6b01 	ldrb.w	r6, [sl], #1
 80040b0:	eb09 0989 	add.w	r9, r9, r9, lsl #2
 80040b4:	eb03 0949 	add.w	r9, r3, r9, lsl #1
 80040b8:	f1a6 0330 	sub.w	r3, r6, #48	; 0x30
 80040bc:	2b09      	cmp	r3, #9
 80040be:	d9f5      	bls.n	80040ac <_vfprintf_r+0x6e4>
 80040c0:	e502      	b.n	8003ac8 <_vfprintf_r+0x100>
 80040c2:	f048 0880 	orr.w	r8, r8, #128	; 0x80
 80040c6:	f89a 6000 	ldrb.w	r6, [sl]
 80040ca:	e4fb      	b.n	8003ac4 <_vfprintf_r+0xfc>
 80040cc:	9c08      	ldr	r4, [sp, #32]
 80040ce:	3407      	adds	r4, #7
 80040d0:	f024 0407 	bic.w	r4, r4, #7
 80040d4:	ed94 7b00 	vldr	d7, [r4]
 80040d8:	ec52 1b17 	vmov	r1, r2, d7
 80040dc:	f022 4300 	bic.w	r3, r2, #2147483648	; 0x80000000
 80040e0:	931d      	str	r3, [sp, #116]	; 0x74
 80040e2:	ed8d 7a1c 	vstr	s14, [sp, #112]	; 0x70
 80040e6:	3408      	adds	r4, #8
 80040e8:	e9dd 011c 	ldrd	r0, r1, [sp, #112]	; 0x70
 80040ec:	f04f 32ff 	mov.w	r2, #4294967295	; 0xffffffff
 80040f0:	4bba      	ldr	r3, [pc, #744]	; (80043dc <_vfprintf_r+0xa14>)
 80040f2:	9408      	str	r4, [sp, #32]
 80040f4:	ed8d 7b12 	vstr	d7, [sp, #72]	; 0x48
 80040f8:	f7fc ffb8 	bl	800106c <__aeabi_dcmpun>
 80040fc:	2800      	cmp	r0, #0
 80040fe:	f040 846f 	bne.w	80049e0 <_vfprintf_r+0x1018>
 8004102:	f04f 32ff 	mov.w	r2, #4294967295	; 0xffffffff
 8004106:	4bb5      	ldr	r3, [pc, #724]	; (80043dc <_vfprintf_r+0xa14>)
 8004108:	e9dd 011c 	ldrd	r0, r1, [sp, #112]	; 0x70
 800410c:	f7fc ff90 	bl	8001030 <__aeabi_dcmple>
 8004110:	2800      	cmp	r0, #0
 8004112:	f040 8465 	bne.w	80049e0 <_vfprintf_r+0x1018>
 8004116:	2200      	movs	r2, #0
 8004118:	2300      	movs	r3, #0
 800411a:	e9dd 0112 	ldrd	r0, r1, [sp, #72]	; 0x48
 800411e:	f7fc ff7d 	bl	800101c <__aeabi_dcmplt>
 8004122:	2800      	cmp	r0, #0
 8004124:	f040 855b 	bne.w	8004bde <_vfprintf_r+0x1216>
 8004128:	f89d 208b 	ldrb.w	r2, [sp, #139]	; 0x8b
 800412c:	4fac      	ldr	r7, [pc, #688]	; (80043e0 <_vfprintf_r+0xa18>)
 800412e:	4bad      	ldr	r3, [pc, #692]	; (80043e4 <_vfprintf_r+0xa1c>)
 8004130:	2000      	movs	r0, #0
 8004132:	2103      	movs	r1, #3
 8004134:	9104      	str	r1, [sp, #16]
 8004136:	900a      	str	r0, [sp, #40]	; 0x28
 8004138:	f028 0880 	bic.w	r8, r8, #128	; 0x80
 800413c:	2e47      	cmp	r6, #71	; 0x47
 800413e:	bfd8      	it	le
 8004140:	461f      	movle	r7, r3
 8004142:	9109      	str	r1, [sp, #36]	; 0x24
 8004144:	4681      	mov	r9, r0
 8004146:	900f      	str	r0, [sp, #60]	; 0x3c
 8004148:	9014      	str	r0, [sp, #80]	; 0x50
 800414a:	9011      	str	r0, [sp, #68]	; 0x44
 800414c:	e5c9      	b.n	8003ce2 <_vfprintf_r+0x31a>
 800414e:	9808      	ldr	r0, [sp, #32]
 8004150:	2300      	movs	r3, #0
 8004152:	6801      	ldr	r1, [r0, #0]
 8004154:	f88d 308b 	strb.w	r3, [sp, #139]	; 0x8b
 8004158:	461a      	mov	r2, r3
 800415a:	f88d 10f4 	strb.w	r1, [sp, #244]	; 0xf4
 800415e:	2301      	movs	r3, #1
 8004160:	1d01      	adds	r1, r0, #4
 8004162:	9304      	str	r3, [sp, #16]
 8004164:	920a      	str	r2, [sp, #40]	; 0x28
 8004166:	4691      	mov	r9, r2
 8004168:	920f      	str	r2, [sp, #60]	; 0x3c
 800416a:	9214      	str	r2, [sp, #80]	; 0x50
 800416c:	9211      	str	r2, [sp, #68]	; 0x44
 800416e:	e9cd 1308 	strd	r1, r3, [sp, #32]
 8004172:	af3d      	add	r7, sp, #244	; 0xf4
 8004174:	e5b9      	b.n	8003cea <_vfprintf_r+0x322>
 8004176:	9b08      	ldr	r3, [sp, #32]
 8004178:	681f      	ldr	r7, [r3, #0]
 800417a:	2500      	movs	r5, #0
 800417c:	f88d 508b 	strb.w	r5, [sp, #139]	; 0x8b
 8004180:	1d1c      	adds	r4, r3, #4
 8004182:	2f00      	cmp	r7, #0
 8004184:	f000 8639 	beq.w	8004dfa <_vfprintf_r+0x1432>
 8004188:	f1b9 3fff 	cmp.w	r9, #4294967295	; 0xffffffff
 800418c:	f000 8711 	beq.w	8004fb2 <_vfprintf_r+0x15ea>
 8004190:	464a      	mov	r2, r9
 8004192:	4629      	mov	r1, r5
 8004194:	4638      	mov	r0, r7
 8004196:	f7fc fac3 	bl	8000720 <memchr>
 800419a:	900a      	str	r0, [sp, #40]	; 0x28
 800419c:	2800      	cmp	r0, #0
 800419e:	f000 85e7 	beq.w	8004d70 <_vfprintf_r+0x13a8>
 80041a2:	9b0a      	ldr	r3, [sp, #40]	; 0x28
 80041a4:	1bdb      	subs	r3, r3, r7
 80041a6:	9309      	str	r3, [sp, #36]	; 0x24
 80041a8:	46a9      	mov	r9, r5
 80041aa:	ea23 73e3 	bic.w	r3, r3, r3, asr #31
 80041ae:	9408      	str	r4, [sp, #32]
 80041b0:	9304      	str	r3, [sp, #16]
 80041b2:	f8cd 9028 	str.w	r9, [sp, #40]	; 0x28
 80041b6:	f8cd 903c 	str.w	r9, [sp, #60]	; 0x3c
 80041ba:	f8cd 9050 	str.w	r9, [sp, #80]	; 0x50
 80041be:	f8cd 9044 	str.w	r9, [sp, #68]	; 0x44
 80041c2:	f89d 208b 	ldrb.w	r2, [sp, #139]	; 0x8b
 80041c6:	e58c      	b.n	8003ce2 <_vfprintf_r+0x31a>
 80041c8:	f048 0310 	orr.w	r3, r8, #16
 80041cc:	069a      	lsls	r2, r3, #26
 80041ce:	f53f aeb2 	bmi.w	8003f36 <_vfprintf_r+0x56e>
 80041d2:	9a08      	ldr	r2, [sp, #32]
 80041d4:	06df      	lsls	r7, r3, #27
 80041d6:	f102 0104 	add.w	r1, r2, #4
 80041da:	f100 837e 	bmi.w	80048da <_vfprintf_r+0xf12>
 80041de:	065d      	lsls	r5, r3, #25
 80041e0:	9a08      	ldr	r2, [sp, #32]
 80041e2:	f100 84e4 	bmi.w	8004bae <_vfprintf_r+0x11e6>
 80041e6:	059c      	lsls	r4, r3, #22
 80041e8:	f140 8377 	bpl.w	80048da <_vfprintf_r+0xf12>
 80041ec:	7814      	ldrb	r4, [r2, #0]
 80041ee:	9108      	str	r1, [sp, #32]
 80041f0:	2500      	movs	r5, #0
 80041f2:	2201      	movs	r2, #1
 80041f4:	e6a9      	b.n	8003f4a <_vfprintf_r+0x582>
 80041f6:	4b7c      	ldr	r3, [pc, #496]	; (80043e8 <_vfprintf_r+0xa20>)
 80041f8:	9317      	str	r3, [sp, #92]	; 0x5c
 80041fa:	f018 0f20 	tst.w	r8, #32
 80041fe:	f47f aeec 	bne.w	8003fda <_vfprintf_r+0x612>
 8004202:	9a08      	ldr	r2, [sp, #32]
 8004204:	f018 0f10 	tst.w	r8, #16
 8004208:	f102 0304 	add.w	r3, r2, #4
 800420c:	f040 8354 	bne.w	80048b8 <_vfprintf_r+0xef0>
 8004210:	f018 0f40 	tst.w	r8, #64	; 0x40
 8004214:	9a08      	ldr	r2, [sp, #32]
 8004216:	f040 84d0 	bne.w	8004bba <_vfprintf_r+0x11f2>
 800421a:	f418 7f00 	tst.w	r8, #512	; 0x200
 800421e:	f000 834b 	beq.w	80048b8 <_vfprintf_r+0xef0>
 8004222:	7814      	ldrb	r4, [r2, #0]
 8004224:	9308      	str	r3, [sp, #32]
 8004226:	2500      	movs	r5, #0
 8004228:	e6e0      	b.n	8003fec <_vfprintf_r+0x624>
 800422a:	f89d 308b 	ldrb.w	r3, [sp, #139]	; 0x8b
 800422e:	f89a 6000 	ldrb.w	r6, [sl]
 8004232:	2b00      	cmp	r3, #0
 8004234:	f47f ac46 	bne.w	8003ac4 <_vfprintf_r+0xfc>
 8004238:	2320      	movs	r3, #32
 800423a:	f88d 308b 	strb.w	r3, [sp, #139]	; 0x8b
 800423e:	e441      	b.n	8003ac4 <_vfprintf_r+0xfc>
 8004240:	f89a 6000 	ldrb.w	r6, [sl]
 8004244:	2e6c      	cmp	r6, #108	; 0x6c
 8004246:	bf03      	ittte	eq
 8004248:	f89a 6001 	ldrbeq.w	r6, [sl, #1]
 800424c:	f048 0820 	orreq.w	r8, r8, #32
 8004250:	f10a 0a01 	addeq.w	sl, sl, #1
 8004254:	f048 0810 	orrne.w	r8, r8, #16
 8004258:	e434      	b.n	8003ac4 <_vfprintf_r+0xfc>
 800425a:	9a08      	ldr	r2, [sp, #32]
 800425c:	f018 0f20 	tst.w	r8, #32
 8004260:	f852 3b04 	ldr.w	r3, [r2], #4
 8004264:	9208      	str	r2, [sp, #32]
 8004266:	f000 83a1 	beq.w	80049ac <_vfprintf_r+0xfe4>
 800426a:	9a05      	ldr	r2, [sp, #20]
 800426c:	4610      	mov	r0, r2
 800426e:	17d1      	asrs	r1, r2, #31
 8004270:	e9c3 0100 	strd	r0, r1, [r3]
 8004274:	4657      	mov	r7, sl
 8004276:	e64d      	b.n	8003f14 <_vfprintf_r+0x54c>
 8004278:	f89a 6000 	ldrb.w	r6, [sl]
 800427c:	2e68      	cmp	r6, #104	; 0x68
 800427e:	bf03      	ittte	eq
 8004280:	f89a 6001 	ldrbeq.w	r6, [sl, #1]
 8004284:	f448 7800 	orreq.w	r8, r8, #512	; 0x200
 8004288:	f10a 0a01 	addeq.w	sl, sl, #1
 800428c:	f048 0840 	orrne.w	r8, r8, #64	; 0x40
 8004290:	e418      	b.n	8003ac4 <_vfprintf_r+0xfc>
 8004292:	9908      	ldr	r1, [sp, #32]
 8004294:	4b55      	ldr	r3, [pc, #340]	; (80043ec <_vfprintf_r+0xa24>)
 8004296:	680c      	ldr	r4, [r1, #0]
 8004298:	9317      	str	r3, [sp, #92]	; 0x5c
 800429a:	f647 0230 	movw	r2, #30768	; 0x7830
 800429e:	3104      	adds	r1, #4
 80042a0:	f8ad 208c 	strh.w	r2, [sp, #140]	; 0x8c
 80042a4:	f048 0302 	orr.w	r3, r8, #2
 80042a8:	9108      	str	r1, [sp, #32]
 80042aa:	2500      	movs	r5, #0
 80042ac:	2202      	movs	r2, #2
 80042ae:	2678      	movs	r6, #120	; 0x78
 80042b0:	e64b      	b.n	8003f4a <_vfprintf_r+0x582>
 80042b2:	f048 0808 	orr.w	r8, r8, #8
 80042b6:	f89a 6000 	ldrb.w	r6, [sl]
 80042ba:	e403      	b.n	8003ac4 <_vfprintf_r+0xfc>
 80042bc:	f048 0310 	orr.w	r3, r8, #16
 80042c0:	069f      	lsls	r7, r3, #26
 80042c2:	f53f acd1 	bmi.w	8003c68 <_vfprintf_r+0x2a0>
 80042c6:	9908      	ldr	r1, [sp, #32]
 80042c8:	06dd      	lsls	r5, r3, #27
 80042ca:	f101 0204 	add.w	r2, r1, #4
 80042ce:	f100 82fd 	bmi.w	80048cc <_vfprintf_r+0xf04>
 80042d2:	065c      	lsls	r4, r3, #25
 80042d4:	9908      	ldr	r1, [sp, #32]
 80042d6:	f100 8475 	bmi.w	8004bc4 <_vfprintf_r+0x11fc>
 80042da:	0598      	lsls	r0, r3, #22
 80042dc:	f140 82f6 	bpl.w	80048cc <_vfprintf_r+0xf04>
 80042e0:	f991 4000 	ldrsb.w	r4, [r1]
 80042e4:	9208      	str	r2, [sp, #32]
 80042e6:	17e5      	asrs	r5, r4, #31
 80042e8:	4620      	mov	r0, r4
 80042ea:	4629      	mov	r1, r5
 80042ec:	e4c7      	b.n	8003c7e <_vfprintf_r+0x2b6>
 80042ee:	9a08      	ldr	r2, [sp, #32]
 80042f0:	f018 0f10 	tst.w	r8, #16
 80042f4:	f102 0304 	add.w	r3, r2, #4
 80042f8:	f040 82e3 	bne.w	80048c2 <_vfprintf_r+0xefa>
 80042fc:	f018 0f40 	tst.w	r8, #64	; 0x40
 8004300:	9a08      	ldr	r2, [sp, #32]
 8004302:	f040 8467 	bne.w	8004bd4 <_vfprintf_r+0x120c>
 8004306:	f418 7f00 	tst.w	r8, #512	; 0x200
 800430a:	f000 82da 	beq.w	80048c2 <_vfprintf_r+0xefa>
 800430e:	7814      	ldrb	r4, [r2, #0]
 8004310:	9308      	str	r3, [sp, #32]
 8004312:	2500      	movs	r5, #0
 8004314:	e488      	b.n	8003c28 <_vfprintf_r+0x260>
 8004316:	f8d9 0058 	ldr.w	r0, [r9, #88]	; 0x58
 800431a:	f002 fd45 	bl	8006da8 <__retarget_lock_release_recursive>
 800431e:	f04f 33ff 	mov.w	r3, #4294967295	; 0xffffffff
 8004322:	9305      	str	r3, [sp, #20]
 8004324:	e443      	b.n	8003bae <_vfprintf_r+0x1e6>
 8004326:	2e00      	cmp	r6, #0
 8004328:	f43f adf8 	beq.w	8003f1c <_vfprintf_r+0x554>
 800432c:	2300      	movs	r3, #0
 800432e:	2101      	movs	r1, #1
 8004330:	461a      	mov	r2, r3
 8004332:	9104      	str	r1, [sp, #16]
 8004334:	f88d 60f4 	strb.w	r6, [sp, #244]	; 0xf4
 8004338:	f88d 308b 	strb.w	r3, [sp, #139]	; 0x8b
 800433c:	930a      	str	r3, [sp, #40]	; 0x28
 800433e:	4699      	mov	r9, r3
 8004340:	930f      	str	r3, [sp, #60]	; 0x3c
 8004342:	9314      	str	r3, [sp, #80]	; 0x50
 8004344:	9311      	str	r3, [sp, #68]	; 0x44
 8004346:	9109      	str	r1, [sp, #36]	; 0x24
 8004348:	af3d      	add	r7, sp, #244	; 0xf4
 800434a:	e4ce      	b.n	8003cea <_vfprintf_r+0x322>
 800434c:	2e65      	cmp	r6, #101	; 0x65
 800434e:	f340 80ca 	ble.w	80044e6 <_vfprintf_r+0xb1e>
 8004352:	2200      	movs	r2, #0
 8004354:	2300      	movs	r3, #0
 8004356:	e9dd 0112 	ldrd	r0, r1, [sp, #72]	; 0x48
 800435a:	f7fc fe55 	bl	8001008 <__aeabi_dcmpeq>
 800435e:	2800      	cmp	r0, #0
 8004360:	f000 8169 	beq.w	8004636 <_vfprintf_r+0xc6e>
 8004364:	9b2b      	ldr	r3, [sp, #172]	; 0xac
 8004366:	4a22      	ldr	r2, [pc, #136]	; (80043f0 <_vfprintf_r+0xa28>)
 8004368:	f8cb 2000 	str.w	r2, [fp]
 800436c:	3301      	adds	r3, #1
 800436e:	3401      	adds	r4, #1
 8004370:	2201      	movs	r2, #1
 8004372:	2b07      	cmp	r3, #7
 8004374:	e9cd 342b 	strd	r3, r4, [sp, #172]	; 0xac
 8004378:	f8cb 2004 	str.w	r2, [fp, #4]
 800437c:	f300 8406 	bgt.w	8004b8c <_vfprintf_r+0x11c4>
 8004380:	f10b 0b08 	add.w	fp, fp, #8
 8004384:	9b24      	ldr	r3, [sp, #144]	; 0x90
 8004386:	9a10      	ldr	r2, [sp, #64]	; 0x40
 8004388:	9c2c      	ldr	r4, [sp, #176]	; 0xb0
 800438a:	4293      	cmp	r3, r2
 800438c:	db03      	blt.n	8004396 <_vfprintf_r+0x9ce>
 800438e:	f018 0f01 	tst.w	r8, #1
 8004392:	f43f ad6a 	beq.w	8003e6a <_vfprintf_r+0x4a2>
 8004396:	9b2b      	ldr	r3, [sp, #172]	; 0xac
 8004398:	9a16      	ldr	r2, [sp, #88]	; 0x58
 800439a:	f8cb 2000 	str.w	r2, [fp]
 800439e:	9a15      	ldr	r2, [sp, #84]	; 0x54
 80043a0:	f8cb 2004 	str.w	r2, [fp, #4]
 80043a4:	3301      	adds	r3, #1
 80043a6:	4414      	add	r4, r2
 80043a8:	2b07      	cmp	r3, #7
 80043aa:	e9cd 342b 	strd	r3, r4, [sp, #172]	; 0xac
 80043ae:	f300 8517 	bgt.w	8004de0 <_vfprintf_r+0x1418>
 80043b2:	f10b 0b08 	add.w	fp, fp, #8
 80043b6:	9b10      	ldr	r3, [sp, #64]	; 0x40
 80043b8:	1e5d      	subs	r5, r3, #1
 80043ba:	2d00      	cmp	r5, #0
 80043bc:	f77f ad55 	ble.w	8003e6a <_vfprintf_r+0x4a2>
 80043c0:	2d10      	cmp	r5, #16
 80043c2:	9a2b      	ldr	r2, [sp, #172]	; 0xac
 80043c4:	4b0b      	ldr	r3, [pc, #44]	; (80043f4 <_vfprintf_r+0xa2c>)
 80043c6:	f340 82e7 	ble.w	8004998 <_vfprintf_r+0xfd0>
 80043ca:	4619      	mov	r1, r3
 80043cc:	2610      	movs	r6, #16
 80043ce:	4623      	mov	r3, r4
 80043d0:	9f03      	ldr	r7, [sp, #12]
 80043d2:	f8dd 901c 	ldr.w	r9, [sp, #28]
 80043d6:	460c      	mov	r4, r1
 80043d8:	e014      	b.n	8004404 <_vfprintf_r+0xa3c>
 80043da:	bf00      	nop
 80043dc:	7fefffff 	.word	0x7fefffff
 80043e0:	0800a6f0 	.word	0x0800a6f0
 80043e4:	0800a6ec 	.word	0x0800a6ec
 80043e8:	0800a710 	.word	0x0800a710
 80043ec:	0800a6fc 	.word	0x0800a6fc
 80043f0:	0800a72c 	.word	0x0800a72c
 80043f4:	0800a740 	.word	0x0800a740
 80043f8:	f10b 0b08 	add.w	fp, fp, #8
 80043fc:	3d10      	subs	r5, #16
 80043fe:	2d10      	cmp	r5, #16
 8004400:	f340 82c7 	ble.w	8004992 <_vfprintf_r+0xfca>
 8004404:	3201      	adds	r2, #1
 8004406:	3310      	adds	r3, #16
 8004408:	2a07      	cmp	r2, #7
 800440a:	e9cd 232b 	strd	r2, r3, [sp, #172]	; 0xac
 800440e:	e9cb 4600 	strd	r4, r6, [fp]
 8004412:	ddf1      	ble.n	80043f8 <_vfprintf_r+0xa30>
 8004414:	aa2a      	add	r2, sp, #168	; 0xa8
 8004416:	4649      	mov	r1, r9
 8004418:	4638      	mov	r0, r7
 800441a:	f003 fe03 	bl	8008024 <__sprint_r>
 800441e:	2800      	cmp	r0, #0
 8004420:	d14c      	bne.n	80044bc <_vfprintf_r+0xaf4>
 8004422:	e9dd 232b 	ldrd	r2, r3, [sp, #172]	; 0xac
 8004426:	f10d 0bb4 	add.w	fp, sp, #180	; 0xb4
 800442a:	e7e7      	b.n	80043fc <_vfprintf_r+0xa34>
 800442c:	9b06      	ldr	r3, [sp, #24]
 800442e:	9a04      	ldr	r2, [sp, #16]
 8004430:	1a9d      	subs	r5, r3, r2
 8004432:	2d00      	cmp	r5, #0
 8004434:	f77f acc9 	ble.w	8003dca <_vfprintf_r+0x402>
 8004438:	2d10      	cmp	r5, #16
 800443a:	9a2b      	ldr	r2, [sp, #172]	; 0xac
 800443c:	4bbc      	ldr	r3, [pc, #752]	; (8004730 <_vfprintf_r+0xd68>)
 800443e:	dd27      	ble.n	8004490 <_vfprintf_r+0xac8>
 8004440:	4659      	mov	r1, fp
 8004442:	4620      	mov	r0, r4
 8004444:	46bb      	mov	fp, r7
 8004446:	461c      	mov	r4, r3
 8004448:	4637      	mov	r7, r6
 800444a:	9e07      	ldr	r6, [sp, #28]
 800444c:	e004      	b.n	8004458 <_vfprintf_r+0xa90>
 800444e:	3d10      	subs	r5, #16
 8004450:	2d10      	cmp	r5, #16
 8004452:	f101 0108 	add.w	r1, r1, #8
 8004456:	dd16      	ble.n	8004486 <_vfprintf_r+0xabe>
 8004458:	3201      	adds	r2, #1
 800445a:	3010      	adds	r0, #16
 800445c:	2310      	movs	r3, #16
 800445e:	2a07      	cmp	r2, #7
 8004460:	e9cd 202b 	strd	r2, r0, [sp, #172]	; 0xac
 8004464:	600c      	str	r4, [r1, #0]
 8004466:	604b      	str	r3, [r1, #4]
 8004468:	ddf1      	ble.n	800444e <_vfprintf_r+0xa86>
 800446a:	aa2a      	add	r2, sp, #168	; 0xa8
 800446c:	4631      	mov	r1, r6
 800446e:	9803      	ldr	r0, [sp, #12]
 8004470:	f003 fdd8 	bl	8008024 <__sprint_r>
 8004474:	2800      	cmp	r0, #0
 8004476:	f040 80a8 	bne.w	80045ca <_vfprintf_r+0xc02>
 800447a:	3d10      	subs	r5, #16
 800447c:	2d10      	cmp	r5, #16
 800447e:	e9dd 202b 	ldrd	r2, r0, [sp, #172]	; 0xac
 8004482:	a92d      	add	r1, sp, #180	; 0xb4
 8004484:	dce8      	bgt.n	8004458 <_vfprintf_r+0xa90>
 8004486:	463e      	mov	r6, r7
 8004488:	4623      	mov	r3, r4
 800448a:	465f      	mov	r7, fp
 800448c:	4604      	mov	r4, r0
 800448e:	468b      	mov	fp, r1
 8004490:	3201      	adds	r2, #1
 8004492:	442c      	add	r4, r5
 8004494:	2a07      	cmp	r2, #7
 8004496:	e9cd 242b 	strd	r2, r4, [sp, #172]	; 0xac
 800449a:	e9cb 3500 	strd	r3, r5, [fp]
 800449e:	f300 8292 	bgt.w	80049c6 <_vfprintf_r+0xffe>
 80044a2:	f10b 0b08 	add.w	fp, fp, #8
 80044a6:	e490      	b.n	8003dca <_vfprintf_r+0x402>
 80044a8:	aa2a      	add	r2, sp, #168	; 0xa8
 80044aa:	9907      	ldr	r1, [sp, #28]
 80044ac:	9803      	ldr	r0, [sp, #12]
 80044ae:	f003 fdb9 	bl	8008024 <__sprint_r>
 80044b2:	2800      	cmp	r0, #0
 80044b4:	f43f ad23 	beq.w	8003efe <_vfprintf_r+0x536>
 80044b8:	f8dd 901c 	ldr.w	r9, [sp, #28]
 80044bc:	990a      	ldr	r1, [sp, #40]	; 0x28
 80044be:	b111      	cbz	r1, 80044c6 <_vfprintf_r+0xafe>
 80044c0:	9803      	ldr	r0, [sp, #12]
 80044c2:	f002 f9c1 	bl	8006848 <_free_r>
 80044c6:	f8d9 2064 	ldr.w	r2, [r9, #100]	; 0x64
 80044ca:	f8b9 300c 	ldrh.w	r3, [r9, #12]
 80044ce:	07d0      	lsls	r0, r2, #31
 80044d0:	d402      	bmi.n	80044d8 <_vfprintf_r+0xb10>
 80044d2:	0599      	lsls	r1, r3, #22
 80044d4:	f140 81d0 	bpl.w	8004878 <_vfprintf_r+0xeb0>
 80044d8:	065a      	lsls	r2, r3, #25
 80044da:	f53f ab65 	bmi.w	8003ba8 <_vfprintf_r+0x1e0>
 80044de:	9805      	ldr	r0, [sp, #20]
 80044e0:	b057      	add	sp, #348	; 0x15c
 80044e2:	e8bd 8ff0 	ldmia.w	sp!, {r4, r5, r6, r7, r8, r9, sl, fp, pc}
 80044e6:	9a10      	ldr	r2, [sp, #64]	; 0x40
 80044e8:	9b2b      	ldr	r3, [sp, #172]	; 0xac
 80044ea:	2a01      	cmp	r2, #1
 80044ec:	f104 0401 	add.w	r4, r4, #1
 80044f0:	f103 0501 	add.w	r5, r3, #1
 80044f4:	f10b 0608 	add.w	r6, fp, #8
 80044f8:	f340 811c 	ble.w	8004734 <_vfprintf_r+0xd6c>
 80044fc:	2301      	movs	r3, #1
 80044fe:	2d07      	cmp	r5, #7
 8004500:	f8cb 7000 	str.w	r7, [fp]
 8004504:	e9cd 542b 	strd	r5, r4, [sp, #172]	; 0xac
 8004508:	f8cb 3004 	str.w	r3, [fp, #4]
 800450c:	f300 81bb 	bgt.w	8004886 <_vfprintf_r+0xebe>
 8004510:	9b15      	ldr	r3, [sp, #84]	; 0x54
 8004512:	9a16      	ldr	r2, [sp, #88]	; 0x58
 8004514:	1c69      	adds	r1, r5, #1
 8004516:	441c      	add	r4, r3
 8004518:	2907      	cmp	r1, #7
 800451a:	910b      	str	r1, [sp, #44]	; 0x2c
 800451c:	e9cd 142b 	strd	r1, r4, [sp, #172]	; 0xac
 8004520:	e9c6 2300 	strd	r2, r3, [r6]
 8004524:	f300 81bb 	bgt.w	800489e <_vfprintf_r+0xed6>
 8004528:	3608      	adds	r6, #8
 800452a:	9a0b      	ldr	r2, [sp, #44]	; 0x2c
 800452c:	1c53      	adds	r3, r2, #1
 800452e:	461d      	mov	r5, r3
 8004530:	9509      	str	r5, [sp, #36]	; 0x24
 8004532:	9d10      	ldr	r5, [sp, #64]	; 0x40
 8004534:	930e      	str	r3, [sp, #56]	; 0x38
 8004536:	2200      	movs	r2, #0
 8004538:	2300      	movs	r3, #0
 800453a:	e9dd 0112 	ldrd	r0, r1, [sp, #72]	; 0x48
 800453e:	f105 39ff 	add.w	r9, r5, #4294967295	; 0xffffffff
 8004542:	f106 0b08 	add.w	fp, r6, #8
 8004546:	f7fc fd5f 	bl	8001008 <__aeabi_dcmpeq>
 800454a:	2800      	cmp	r0, #0
 800454c:	f040 80c2 	bne.w	80046d4 <_vfprintf_r+0xd0c>
 8004550:	9d09      	ldr	r5, [sp, #36]	; 0x24
 8004552:	f8c6 9004 	str.w	r9, [r6, #4]
 8004556:	3701      	adds	r7, #1
 8004558:	444c      	add	r4, r9
 800455a:	2d07      	cmp	r5, #7
 800455c:	6037      	str	r7, [r6, #0]
 800455e:	942c      	str	r4, [sp, #176]	; 0xb0
 8004560:	952b      	str	r5, [sp, #172]	; 0xac
 8004562:	f300 80f9 	bgt.w	8004758 <_vfprintf_r+0xd90>
 8004566:	9a0b      	ldr	r2, [sp, #44]	; 0x2c
 8004568:	f106 0310 	add.w	r3, r6, #16
 800456c:	3202      	adds	r2, #2
 800456e:	465e      	mov	r6, fp
 8004570:	9209      	str	r2, [sp, #36]	; 0x24
 8004572:	469b      	mov	fp, r3
 8004574:	9a19      	ldr	r2, [sp, #100]	; 0x64
 8004576:	6072      	str	r2, [r6, #4]
 8004578:	4414      	add	r4, r2
 800457a:	9a09      	ldr	r2, [sp, #36]	; 0x24
 800457c:	942c      	str	r4, [sp, #176]	; 0xb0
 800457e:	ab26      	add	r3, sp, #152	; 0x98
 8004580:	2a07      	cmp	r2, #7
 8004582:	922b      	str	r2, [sp, #172]	; 0xac
 8004584:	6033      	str	r3, [r6, #0]
 8004586:	f77f ac70 	ble.w	8003e6a <_vfprintf_r+0x4a2>
 800458a:	aa2a      	add	r2, sp, #168	; 0xa8
 800458c:	9907      	ldr	r1, [sp, #28]
 800458e:	9803      	ldr	r0, [sp, #12]
 8004590:	f003 fd48 	bl	8008024 <__sprint_r>
 8004594:	2800      	cmp	r0, #0
 8004596:	d18f      	bne.n	80044b8 <_vfprintf_r+0xaf0>
 8004598:	9c2c      	ldr	r4, [sp, #176]	; 0xb0
 800459a:	f10d 0bb4 	add.w	fp, sp, #180	; 0xb4
 800459e:	e464      	b.n	8003e6a <_vfprintf_r+0x4a2>
 80045a0:	9817      	ldr	r0, [sp, #92]	; 0x5c
 80045a2:	af56      	add	r7, sp, #344	; 0x158
 80045a4:	0923      	lsrs	r3, r4, #4
 80045a6:	f004 010f 	and.w	r1, r4, #15
 80045aa:	ea43 7305 	orr.w	r3, r3, r5, lsl #28
 80045ae:	092a      	lsrs	r2, r5, #4
 80045b0:	461c      	mov	r4, r3
 80045b2:	4615      	mov	r5, r2
 80045b4:	5c43      	ldrb	r3, [r0, r1]
 80045b6:	f807 3d01 	strb.w	r3, [r7, #-1]!
 80045ba:	ea54 0305 	orrs.w	r3, r4, r5
 80045be:	d1f1      	bne.n	80045a4 <_vfprintf_r+0xbdc>
 80045c0:	9b04      	ldr	r3, [sp, #16]
 80045c2:	1bdb      	subs	r3, r3, r7
 80045c4:	9309      	str	r3, [sp, #36]	; 0x24
 80045c6:	f7ff bb80 	b.w	8003cca <_vfprintf_r+0x302>
