
slre.elf:     file format elf32-littlearm


Disassembly of section .text:

080001c0 <__do_global_dtors_aux>:
 80001c0:	b510      	push	{r4, lr}
 80001c2:	4c05      	ldr	r4, [pc, #20]	; (80001d8 <__do_global_dtors_aux+0x18>)
 80001c4:	7823      	ldrb	r3, [r4, #0]
 80001c6:	b933      	cbnz	r3, 80001d6 <__do_global_dtors_aux+0x16>
 80001c8:	4b04      	ldr	r3, [pc, #16]	; (80001dc <__do_global_dtors_aux+0x1c>)
 80001ca:	b113      	cbz	r3, 80001d2 <__do_global_dtors_aux+0x12>
 80001cc:	4804      	ldr	r0, [pc, #16]	; (80001e0 <__do_global_dtors_aux+0x20>)
 80001ce:	f3af 8000 	nop.w
 80001d2:	2301      	movs	r3, #1
 80001d4:	7023      	strb	r3, [r4, #0]
 80001d6:	bd10      	pop	{r4, pc}
 80001d8:	20000a08 	.word	0x20000a08
 80001dc:	00000000 	.word	0x00000000
 80001e0:	08007ac8 	.word	0x08007ac8

080001e4 <frame_dummy>:
 80001e4:	b508      	push	{r3, lr}
 80001e6:	4b03      	ldr	r3, [pc, #12]	; (80001f4 <frame_dummy+0x10>)
 80001e8:	b11b      	cbz	r3, 80001f2 <frame_dummy+0xe>
 80001ea:	4903      	ldr	r1, [pc, #12]	; (80001f8 <frame_dummy+0x14>)
 80001ec:	4803      	ldr	r0, [pc, #12]	; (80001fc <frame_dummy+0x18>)
 80001ee:	f3af 8000 	nop.w
 80001f2:	bd08      	pop	{r3, pc}
 80001f4:	00000000 	.word	0x00000000
 80001f8:	20000a0c 	.word	0x20000a0c
 80001fc:	08007ac8 	.word	0x08007ac8

08000200 <__aeabi_uldivmod>:
 8000200:	b953      	cbnz	r3, 8000218 <__aeabi_uldivmod+0x18>
 8000202:	b94a      	cbnz	r2, 8000218 <__aeabi_uldivmod+0x18>
 8000204:	2900      	cmp	r1, #0
 8000206:	bf08      	it	eq
 8000208:	2800      	cmpeq	r0, #0
 800020a:	bf1c      	itt	ne
 800020c:	f04f 31ff 	movne.w	r1, #4294967295	; 0xffffffff
 8000210:	f04f 30ff 	movne.w	r0, #4294967295	; 0xffffffff
 8000214:	f000 b972 	b.w	80004fc <__aeabi_idiv0>
 8000218:	f1ad 0c08 	sub.w	ip, sp, #8
 800021c:	e96d ce04 	strd	ip, lr, [sp, #-16]!
 8000220:	f000 f806 	bl	8000230 <__udivmoddi4>
 8000224:	f8dd e004 	ldr.w	lr, [sp, #4]
 8000228:	e9dd 2302 	ldrd	r2, r3, [sp, #8]
 800022c:	b004      	add	sp, #16
 800022e:	4770      	bx	lr

08000230 <__udivmoddi4>:
 8000230:	e92d 47f0 	stmdb	sp!, {r4, r5, r6, r7, r8, r9, sl, lr}
 8000234:	9e08      	ldr	r6, [sp, #32]
 8000236:	4604      	mov	r4, r0
 8000238:	4688      	mov	r8, r1
 800023a:	2b00      	cmp	r3, #0
 800023c:	d14b      	bne.n	80002d6 <__udivmoddi4+0xa6>
 800023e:	428a      	cmp	r2, r1
 8000240:	4615      	mov	r5, r2
 8000242:	d967      	bls.n	8000314 <__udivmoddi4+0xe4>
 8000244:	fab2 f282 	clz	r2, r2
 8000248:	b14a      	cbz	r2, 800025e <__udivmoddi4+0x2e>
 800024a:	f1c2 0720 	rsb	r7, r2, #32
 800024e:	fa01 f302 	lsl.w	r3, r1, r2
 8000252:	fa20 f707 	lsr.w	r7, r0, r7
 8000256:	4095      	lsls	r5, r2
 8000258:	ea47 0803 	orr.w	r8, r7, r3
 800025c:	4094      	lsls	r4, r2
 800025e:	ea4f 4e15 	mov.w	lr, r5, lsr #16
 8000262:	0c23      	lsrs	r3, r4, #16
 8000264:	fbb8 f7fe 	udiv	r7, r8, lr
 8000268:	fa1f fc85 	uxth.w	ip, r5
 800026c:	fb0e 8817 	mls	r8, lr, r7, r8
 8000270:	ea43 4308 	orr.w	r3, r3, r8, lsl #16
 8000274:	fb07 f10c 	mul.w	r1, r7, ip
 8000278:	4299      	cmp	r1, r3
 800027a:	d909      	bls.n	8000290 <__udivmoddi4+0x60>
 800027c:	18eb      	adds	r3, r5, r3
 800027e:	f107 30ff 	add.w	r0, r7, #4294967295	; 0xffffffff
 8000282:	f080 811b 	bcs.w	80004bc <__udivmoddi4+0x28c>
 8000286:	4299      	cmp	r1, r3
 8000288:	f240 8118 	bls.w	80004bc <__udivmoddi4+0x28c>
 800028c:	3f02      	subs	r7, #2
 800028e:	442b      	add	r3, r5
 8000290:	1a5b      	subs	r3, r3, r1
 8000292:	b2a4      	uxth	r4, r4
 8000294:	fbb3 f0fe 	udiv	r0, r3, lr
 8000298:	fb0e 3310 	mls	r3, lr, r0, r3
 800029c:	ea44 4403 	orr.w	r4, r4, r3, lsl #16
 80002a0:	fb00 fc0c 	mul.w	ip, r0, ip
 80002a4:	45a4      	cmp	ip, r4
 80002a6:	d909      	bls.n	80002bc <__udivmoddi4+0x8c>
 80002a8:	192c      	adds	r4, r5, r4
 80002aa:	f100 33ff 	add.w	r3, r0, #4294967295	; 0xffffffff
 80002ae:	f080 8107 	bcs.w	80004c0 <__udivmoddi4+0x290>
 80002b2:	45a4      	cmp	ip, r4
 80002b4:	f240 8104 	bls.w	80004c0 <__udivmoddi4+0x290>
 80002b8:	3802      	subs	r0, #2
 80002ba:	442c      	add	r4, r5
 80002bc:	ea40 4007 	orr.w	r0, r0, r7, lsl #16
 80002c0:	eba4 040c 	sub.w	r4, r4, ip
 80002c4:	2700      	movs	r7, #0
 80002c6:	b11e      	cbz	r6, 80002d0 <__udivmoddi4+0xa0>
 80002c8:	40d4      	lsrs	r4, r2
 80002ca:	2300      	movs	r3, #0
 80002cc:	e9c6 4300 	strd	r4, r3, [r6]
 80002d0:	4639      	mov	r1, r7
 80002d2:	e8bd 87f0 	ldmia.w	sp!, {r4, r5, r6, r7, r8, r9, sl, pc}
 80002d6:	428b      	cmp	r3, r1
 80002d8:	d909      	bls.n	80002ee <__udivmoddi4+0xbe>
 80002da:	2e00      	cmp	r6, #0
 80002dc:	f000 80eb 	beq.w	80004b6 <__udivmoddi4+0x286>
 80002e0:	2700      	movs	r7, #0
 80002e2:	e9c6 0100 	strd	r0, r1, [r6]
 80002e6:	4638      	mov	r0, r7
 80002e8:	4639      	mov	r1, r7
 80002ea:	e8bd 87f0 	ldmia.w	sp!, {r4, r5, r6, r7, r8, r9, sl, pc}
 80002ee:	fab3 f783 	clz	r7, r3
 80002f2:	2f00      	cmp	r7, #0
 80002f4:	d147      	bne.n	8000386 <__udivmoddi4+0x156>
 80002f6:	428b      	cmp	r3, r1
 80002f8:	d302      	bcc.n	8000300 <__udivmoddi4+0xd0>
 80002fa:	4282      	cmp	r2, r0
 80002fc:	f200 80fa 	bhi.w	80004f4 <__udivmoddi4+0x2c4>
 8000300:	1a84      	subs	r4, r0, r2
 8000302:	eb61 0303 	sbc.w	r3, r1, r3
 8000306:	2001      	movs	r0, #1
 8000308:	4698      	mov	r8, r3
 800030a:	2e00      	cmp	r6, #0
 800030c:	d0e0      	beq.n	80002d0 <__udivmoddi4+0xa0>
 800030e:	e9c6 4800 	strd	r4, r8, [r6]
 8000312:	e7dd      	b.n	80002d0 <__udivmoddi4+0xa0>
 8000314:	b902      	cbnz	r2, 8000318 <__udivmoddi4+0xe8>
 8000316:	deff      	udf	#255	; 0xff
 8000318:	fab2 f282 	clz	r2, r2
 800031c:	2a00      	cmp	r2, #0
 800031e:	f040 808f 	bne.w	8000440 <__udivmoddi4+0x210>
 8000322:	1b49      	subs	r1, r1, r5
 8000324:	ea4f 4e15 	mov.w	lr, r5, lsr #16
 8000328:	fa1f f885 	uxth.w	r8, r5
 800032c:	2701      	movs	r7, #1
 800032e:	fbb1 fcfe 	udiv	ip, r1, lr
 8000332:	0c23      	lsrs	r3, r4, #16
 8000334:	fb0e 111c 	mls	r1, lr, ip, r1
 8000338:	ea43 4301 	orr.w	r3, r3, r1, lsl #16
 800033c:	fb08 f10c 	mul.w	r1, r8, ip
 8000340:	4299      	cmp	r1, r3
 8000342:	d907      	bls.n	8000354 <__udivmoddi4+0x124>
 8000344:	18eb      	adds	r3, r5, r3
 8000346:	f10c 30ff 	add.w	r0, ip, #4294967295	; 0xffffffff
 800034a:	d202      	bcs.n	8000352 <__udivmoddi4+0x122>
 800034c:	4299      	cmp	r1, r3
 800034e:	f200 80cd 	bhi.w	80004ec <__udivmoddi4+0x2bc>
 8000352:	4684      	mov	ip, r0
 8000354:	1a59      	subs	r1, r3, r1
 8000356:	b2a3      	uxth	r3, r4
 8000358:	fbb1 f0fe 	udiv	r0, r1, lr
 800035c:	fb0e 1410 	mls	r4, lr, r0, r1
 8000360:	ea43 4404 	orr.w	r4, r3, r4, lsl #16
 8000364:	fb08 f800 	mul.w	r8, r8, r0
 8000368:	45a0      	cmp	r8, r4
 800036a:	d907      	bls.n	800037c <__udivmoddi4+0x14c>
 800036c:	192c      	adds	r4, r5, r4
 800036e:	f100 33ff 	add.w	r3, r0, #4294967295	; 0xffffffff
 8000372:	d202      	bcs.n	800037a <__udivmoddi4+0x14a>
 8000374:	45a0      	cmp	r8, r4
 8000376:	f200 80b6 	bhi.w	80004e6 <__udivmoddi4+0x2b6>
 800037a:	4618      	mov	r0, r3
 800037c:	eba4 0408 	sub.w	r4, r4, r8
 8000380:	ea40 400c 	orr.w	r0, r0, ip, lsl #16
 8000384:	e79f      	b.n	80002c6 <__udivmoddi4+0x96>
 8000386:	f1c7 0c20 	rsb	ip, r7, #32
 800038a:	40bb      	lsls	r3, r7
 800038c:	fa22 fe0c 	lsr.w	lr, r2, ip
 8000390:	ea4e 0e03 	orr.w	lr, lr, r3
 8000394:	fa01 f407 	lsl.w	r4, r1, r7
 8000398:	fa20 f50c 	lsr.w	r5, r0, ip
 800039c:	fa21 f30c 	lsr.w	r3, r1, ip
 80003a0:	ea4f 481e 	mov.w	r8, lr, lsr #16
 80003a4:	4325      	orrs	r5, r4
 80003a6:	fbb3 f9f8 	udiv	r9, r3, r8
 80003aa:	0c2c      	lsrs	r4, r5, #16
 80003ac:	fb08 3319 	mls	r3, r8, r9, r3
 80003b0:	fa1f fa8e 	uxth.w	sl, lr
 80003b4:	ea44 4303 	orr.w	r3, r4, r3, lsl #16
 80003b8:	fb09 f40a 	mul.w	r4, r9, sl
 80003bc:	429c      	cmp	r4, r3
 80003be:	fa02 f207 	lsl.w	r2, r2, r7
 80003c2:	fa00 f107 	lsl.w	r1, r0, r7
 80003c6:	d90b      	bls.n	80003e0 <__udivmoddi4+0x1b0>
 80003c8:	eb1e 0303 	adds.w	r3, lr, r3
 80003cc:	f109 30ff 	add.w	r0, r9, #4294967295	; 0xffffffff
 80003d0:	f080 8087 	bcs.w	80004e2 <__udivmoddi4+0x2b2>
 80003d4:	429c      	cmp	r4, r3
 80003d6:	f240 8084 	bls.w	80004e2 <__udivmoddi4+0x2b2>
 80003da:	f1a9 0902 	sub.w	r9, r9, #2
 80003de:	4473      	add	r3, lr
 80003e0:	1b1b      	subs	r3, r3, r4
 80003e2:	b2ad      	uxth	r5, r5
 80003e4:	fbb3 f0f8 	udiv	r0, r3, r8
 80003e8:	fb08 3310 	mls	r3, r8, r0, r3
 80003ec:	ea45 4403 	orr.w	r4, r5, r3, lsl #16
 80003f0:	fb00 fa0a 	mul.w	sl, r0, sl
 80003f4:	45a2      	cmp	sl, r4
 80003f6:	d908      	bls.n	800040a <__udivmoddi4+0x1da>
 80003f8:	eb1e 0404 	adds.w	r4, lr, r4
 80003fc:	f100 33ff 	add.w	r3, r0, #4294967295	; 0xffffffff
 8000400:	d26b      	bcs.n	80004da <__udivmoddi4+0x2aa>
 8000402:	45a2      	cmp	sl, r4
 8000404:	d969      	bls.n	80004da <__udivmoddi4+0x2aa>
 8000406:	3802      	subs	r0, #2
 8000408:	4474      	add	r4, lr
 800040a:	ea40 4009 	orr.w	r0, r0, r9, lsl #16
 800040e:	fba0 8902 	umull	r8, r9, r0, r2
 8000412:	eba4 040a 	sub.w	r4, r4, sl
 8000416:	454c      	cmp	r4, r9
 8000418:	46c2      	mov	sl, r8
 800041a:	464b      	mov	r3, r9
 800041c:	d354      	bcc.n	80004c8 <__udivmoddi4+0x298>
 800041e:	d051      	beq.n	80004c4 <__udivmoddi4+0x294>
 8000420:	2e00      	cmp	r6, #0
 8000422:	d069      	beq.n	80004f8 <__udivmoddi4+0x2c8>
 8000424:	ebb1 050a 	subs.w	r5, r1, sl
 8000428:	eb64 0403 	sbc.w	r4, r4, r3
 800042c:	fa04 fc0c 	lsl.w	ip, r4, ip
 8000430:	40fd      	lsrs	r5, r7
 8000432:	40fc      	lsrs	r4, r7
 8000434:	ea4c 0505 	orr.w	r5, ip, r5
 8000438:	e9c6 5400 	strd	r5, r4, [r6]
 800043c:	2700      	movs	r7, #0
 800043e:	e747      	b.n	80002d0 <__udivmoddi4+0xa0>
 8000440:	f1c2 0320 	rsb	r3, r2, #32
 8000444:	fa20 f703 	lsr.w	r7, r0, r3
 8000448:	4095      	lsls	r5, r2
 800044a:	fa01 f002 	lsl.w	r0, r1, r2
 800044e:	fa21 f303 	lsr.w	r3, r1, r3
 8000452:	ea4f 4e15 	mov.w	lr, r5, lsr #16
 8000456:	4338      	orrs	r0, r7
 8000458:	0c01      	lsrs	r1, r0, #16
 800045a:	fbb3 f7fe 	udiv	r7, r3, lr
 800045e:	fa1f f885 	uxth.w	r8, r5
 8000462:	fb0e 3317 	mls	r3, lr, r7, r3
 8000466:	ea41 4103 	orr.w	r1, r1, r3, lsl #16
 800046a:	fb07 f308 	mul.w	r3, r7, r8
 800046e:	428b      	cmp	r3, r1
 8000470:	fa04 f402 	lsl.w	r4, r4, r2
 8000474:	d907      	bls.n	8000486 <__udivmoddi4+0x256>
 8000476:	1869      	adds	r1, r5, r1
 8000478:	f107 3cff 	add.w	ip, r7, #4294967295	; 0xffffffff
 800047c:	d22f      	bcs.n	80004de <__udivmoddi4+0x2ae>
 800047e:	428b      	cmp	r3, r1
 8000480:	d92d      	bls.n	80004de <__udivmoddi4+0x2ae>
 8000482:	3f02      	subs	r7, #2
 8000484:	4429      	add	r1, r5
 8000486:	1acb      	subs	r3, r1, r3
 8000488:	b281      	uxth	r1, r0
 800048a:	fbb3 f0fe 	udiv	r0, r3, lr
 800048e:	fb0e 3310 	mls	r3, lr, r0, r3
 8000492:	ea41 4103 	orr.w	r1, r1, r3, lsl #16
 8000496:	fb00 f308 	mul.w	r3, r0, r8
 800049a:	428b      	cmp	r3, r1
 800049c:	d907      	bls.n	80004ae <__udivmoddi4+0x27e>
 800049e:	1869      	adds	r1, r5, r1
 80004a0:	f100 3cff 	add.w	ip, r0, #4294967295	; 0xffffffff
 80004a4:	d217      	bcs.n	80004d6 <__udivmoddi4+0x2a6>
 80004a6:	428b      	cmp	r3, r1
 80004a8:	d915      	bls.n	80004d6 <__udivmoddi4+0x2a6>
 80004aa:	3802      	subs	r0, #2
 80004ac:	4429      	add	r1, r5
 80004ae:	1ac9      	subs	r1, r1, r3
 80004b0:	ea40 4707 	orr.w	r7, r0, r7, lsl #16
 80004b4:	e73b      	b.n	800032e <__udivmoddi4+0xfe>
 80004b6:	4637      	mov	r7, r6
 80004b8:	4630      	mov	r0, r6
 80004ba:	e709      	b.n	80002d0 <__udivmoddi4+0xa0>
 80004bc:	4607      	mov	r7, r0
 80004be:	e6e7      	b.n	8000290 <__udivmoddi4+0x60>
 80004c0:	4618      	mov	r0, r3
 80004c2:	e6fb      	b.n	80002bc <__udivmoddi4+0x8c>
 80004c4:	4541      	cmp	r1, r8
 80004c6:	d2ab      	bcs.n	8000420 <__udivmoddi4+0x1f0>
 80004c8:	ebb8 0a02 	subs.w	sl, r8, r2
 80004cc:	eb69 020e 	sbc.w	r2, r9, lr
 80004d0:	3801      	subs	r0, #1
 80004d2:	4613      	mov	r3, r2
 80004d4:	e7a4      	b.n	8000420 <__udivmoddi4+0x1f0>
 80004d6:	4660      	mov	r0, ip
 80004d8:	e7e9      	b.n	80004ae <__udivmoddi4+0x27e>
 80004da:	4618      	mov	r0, r3
 80004dc:	e795      	b.n	800040a <__udivmoddi4+0x1da>
 80004de:	4667      	mov	r7, ip
 80004e0:	e7d1      	b.n	8000486 <__udivmoddi4+0x256>
 80004e2:	4681      	mov	r9, r0
 80004e4:	e77c      	b.n	80003e0 <__udivmoddi4+0x1b0>
 80004e6:	3802      	subs	r0, #2
 80004e8:	442c      	add	r4, r5
 80004ea:	e747      	b.n	800037c <__udivmoddi4+0x14c>
 80004ec:	f1ac 0c02 	sub.w	ip, ip, #2
 80004f0:	442b      	add	r3, r5
 80004f2:	e72f      	b.n	8000354 <__udivmoddi4+0x124>
 80004f4:	4638      	mov	r0, r7
 80004f6:	e708      	b.n	800030a <__udivmoddi4+0xda>
 80004f8:	4637      	mov	r7, r6
 80004fa:	e6e9      	b.n	80002d0 <__udivmoddi4+0xa0>

080004fc <__aeabi_idiv0>:
 80004fc:	4770      	bx	lr
 80004fe:	bf00      	nop

08000500 <memchr>:
 8000500:	f001 01ff 	and.w	r1, r1, #255	; 0xff
 8000504:	2a10      	cmp	r2, #16
 8000506:	db2b      	blt.n	8000560 <memchr+0x60>
 8000508:	f010 0f07 	tst.w	r0, #7
 800050c:	d008      	beq.n	8000520 <memchr+0x20>
 800050e:	f810 3b01 	ldrb.w	r3, [r0], #1
 8000512:	3a01      	subs	r2, #1
 8000514:	428b      	cmp	r3, r1
 8000516:	d02d      	beq.n	8000574 <memchr+0x74>
 8000518:	f010 0f07 	tst.w	r0, #7
 800051c:	b342      	cbz	r2, 8000570 <memchr+0x70>
 800051e:	d1f6      	bne.n	800050e <memchr+0xe>
 8000520:	b4f0      	push	{r4, r5, r6, r7}
 8000522:	ea41 2101 	orr.w	r1, r1, r1, lsl #8
 8000526:	ea41 4101 	orr.w	r1, r1, r1, lsl #16
 800052a:	f022 0407 	bic.w	r4, r2, #7
 800052e:	f07f 0700 	mvns.w	r7, #0
 8000532:	2300      	movs	r3, #0
 8000534:	e8f0 5602 	ldrd	r5, r6, [r0], #8
 8000538:	3c08      	subs	r4, #8
 800053a:	ea85 0501 	eor.w	r5, r5, r1
 800053e:	ea86 0601 	eor.w	r6, r6, r1
 8000542:	fa85 f547 	uadd8	r5, r5, r7
 8000546:	faa3 f587 	sel	r5, r3, r7
 800054a:	fa86 f647 	uadd8	r6, r6, r7
 800054e:	faa5 f687 	sel	r6, r5, r7
 8000552:	b98e      	cbnz	r6, 8000578 <memchr+0x78>
 8000554:	d1ee      	bne.n	8000534 <memchr+0x34>
 8000556:	bcf0      	pop	{r4, r5, r6, r7}
 8000558:	f001 01ff 	and.w	r1, r1, #255	; 0xff
 800055c:	f002 0207 	and.w	r2, r2, #7
 8000560:	b132      	cbz	r2, 8000570 <memchr+0x70>
 8000562:	f810 3b01 	ldrb.w	r3, [r0], #1
 8000566:	3a01      	subs	r2, #1
 8000568:	ea83 0301 	eor.w	r3, r3, r1
 800056c:	b113      	cbz	r3, 8000574 <memchr+0x74>
 800056e:	d1f8      	bne.n	8000562 <memchr+0x62>
 8000570:	2000      	movs	r0, #0
 8000572:	4770      	bx	lr
 8000574:	3801      	subs	r0, #1
 8000576:	4770      	bx	lr
 8000578:	2d00      	cmp	r5, #0
 800057a:	bf06      	itte	eq
 800057c:	4635      	moveq	r5, r6
 800057e:	3803      	subeq	r0, #3
 8000580:	3807      	subne	r0, #7
 8000582:	f015 0f01 	tst.w	r5, #1
 8000586:	d107      	bne.n	8000598 <memchr+0x98>
 8000588:	3001      	adds	r0, #1
 800058a:	f415 7f80 	tst.w	r5, #256	; 0x100
 800058e:	bf02      	ittt	eq
 8000590:	3001      	addeq	r0, #1
 8000592:	f415 3fc0 	tsteq.w	r5, #98304	; 0x18000
 8000596:	3001      	addeq	r0, #1
 8000598:	bcf0      	pop	{r4, r5, r6, r7}
 800059a:	3801      	subs	r0, #1
 800059c:	4770      	bx	lr
 800059e:	bf00      	nop

080005a0 <memcpy>:
 80005a0:	4684      	mov	ip, r0
 80005a2:	ea41 0300 	orr.w	r3, r1, r0
 80005a6:	f013 0303 	ands.w	r3, r3, #3
 80005aa:	d16d      	bne.n	8000688 <memcpy+0xe8>
 80005ac:	3a40      	subs	r2, #64	; 0x40
 80005ae:	d341      	bcc.n	8000634 <memcpy+0x94>
 80005b0:	f851 3b04 	ldr.w	r3, [r1], #4
 80005b4:	f840 3b04 	str.w	r3, [r0], #4
 80005b8:	f851 3b04 	ldr.w	r3, [r1], #4
 80005bc:	f840 3b04 	str.w	r3, [r0], #4
 80005c0:	f851 3b04 	ldr.w	r3, [r1], #4
 80005c4:	f840 3b04 	str.w	r3, [r0], #4
 80005c8:	f851 3b04 	ldr.w	r3, [r1], #4
 80005cc:	f840 3b04 	str.w	r3, [r0], #4
 80005d0:	f851 3b04 	ldr.w	r3, [r1], #4
 80005d4:	f840 3b04 	str.w	r3, [r0], #4
 80005d8:	f851 3b04 	ldr.w	r3, [r1], #4
 80005dc:	f840 3b04 	str.w	r3, [r0], #4
 80005e0:	f851 3b04 	ldr.w	r3, [r1], #4
 80005e4:	f840 3b04 	str.w	r3, [r0], #4
 80005e8:	f851 3b04 	ldr.w	r3, [r1], #4
 80005ec:	f840 3b04 	str.w	r3, [r0], #4
 80005f0:	f851 3b04 	ldr.w	r3, [r1], #4
 80005f4:	f840 3b04 	str.w	r3, [r0], #4
 80005f8:	f851 3b04 	ldr.w	r3, [r1], #4
 80005fc:	f840 3b04 	str.w	r3, [r0], #4
 8000600:	f851 3b04 	ldr.w	r3, [r1], #4
 8000604:	f840 3b04 	str.w	r3, [r0], #4
 8000608:	f851 3b04 	ldr.w	r3, [r1], #4
 800060c:	f840 3b04 	str.w	r3, [r0], #4
 8000610:	f851 3b04 	ldr.w	r3, [r1], #4
 8000614:	f840 3b04 	str.w	r3, [r0], #4
 8000618:	f851 3b04 	ldr.w	r3, [r1], #4
 800061c:	f840 3b04 	str.w	r3, [r0], #4
 8000620:	f851 3b04 	ldr.w	r3, [r1], #4
 8000624:	f840 3b04 	str.w	r3, [r0], #4
 8000628:	f851 3b04 	ldr.w	r3, [r1], #4
 800062c:	f840 3b04 	str.w	r3, [r0], #4
 8000630:	3a40      	subs	r2, #64	; 0x40
 8000632:	d2bd      	bcs.n	80005b0 <memcpy+0x10>
 8000634:	3230      	adds	r2, #48	; 0x30
 8000636:	d311      	bcc.n	800065c <memcpy+0xbc>
 8000638:	f851 3b04 	ldr.w	r3, [r1], #4
 800063c:	f840 3b04 	str.w	r3, [r0], #4
 8000640:	f851 3b04 	ldr.w	r3, [r1], #4
 8000644:	f840 3b04 	str.w	r3, [r0], #4
 8000648:	f851 3b04 	ldr.w	r3, [r1], #4
 800064c:	f840 3b04 	str.w	r3, [r0], #4
 8000650:	f851 3b04 	ldr.w	r3, [r1], #4
 8000654:	f840 3b04 	str.w	r3, [r0], #4
 8000658:	3a10      	subs	r2, #16
 800065a:	d2ed      	bcs.n	8000638 <memcpy+0x98>
 800065c:	320c      	adds	r2, #12
 800065e:	d305      	bcc.n	800066c <memcpy+0xcc>
 8000660:	f851 3b04 	ldr.w	r3, [r1], #4
 8000664:	f840 3b04 	str.w	r3, [r0], #4
 8000668:	3a04      	subs	r2, #4
 800066a:	d2f9      	bcs.n	8000660 <memcpy+0xc0>
 800066c:	3204      	adds	r2, #4
 800066e:	d008      	beq.n	8000682 <memcpy+0xe2>
 8000670:	07d2      	lsls	r2, r2, #31
 8000672:	bf1c      	itt	ne
 8000674:	f811 3b01 	ldrbne.w	r3, [r1], #1
 8000678:	f800 3b01 	strbne.w	r3, [r0], #1
 800067c:	d301      	bcc.n	8000682 <memcpy+0xe2>
 800067e:	880b      	ldrh	r3, [r1, #0]
 8000680:	8003      	strh	r3, [r0, #0]
 8000682:	4660      	mov	r0, ip
 8000684:	4770      	bx	lr
 8000686:	bf00      	nop
 8000688:	2a08      	cmp	r2, #8
 800068a:	d313      	bcc.n	80006b4 <memcpy+0x114>
 800068c:	078b      	lsls	r3, r1, #30
 800068e:	d08d      	beq.n	80005ac <memcpy+0xc>
 8000690:	f010 0303 	ands.w	r3, r0, #3
 8000694:	d08a      	beq.n	80005ac <memcpy+0xc>
 8000696:	f1c3 0304 	rsb	r3, r3, #4
 800069a:	1ad2      	subs	r2, r2, r3
 800069c:	07db      	lsls	r3, r3, #31
 800069e:	bf1c      	itt	ne
 80006a0:	f811 3b01 	ldrbne.w	r3, [r1], #1
 80006a4:	f800 3b01 	strbne.w	r3, [r0], #1
 80006a8:	d380      	bcc.n	80005ac <memcpy+0xc>
 80006aa:	f831 3b02 	ldrh.w	r3, [r1], #2
 80006ae:	f820 3b02 	strh.w	r3, [r0], #2
 80006b2:	e77b      	b.n	80005ac <memcpy+0xc>
 80006b4:	3a04      	subs	r2, #4
 80006b6:	d3d9      	bcc.n	800066c <memcpy+0xcc>
 80006b8:	3a01      	subs	r2, #1
 80006ba:	f811 3b01 	ldrb.w	r3, [r1], #1
 80006be:	f800 3b01 	strb.w	r3, [r0], #1
 80006c2:	d2f9      	bcs.n	80006b8 <memcpy+0x118>
 80006c4:	780b      	ldrb	r3, [r1, #0]
 80006c6:	7003      	strb	r3, [r0, #0]
 80006c8:	784b      	ldrb	r3, [r1, #1]
 80006ca:	7043      	strb	r3, [r0, #1]
 80006cc:	788b      	ldrb	r3, [r1, #2]
 80006ce:	7083      	strb	r3, [r0, #2]
 80006d0:	4660      	mov	r0, ip
 80006d2:	4770      	bx	lr
	...

08000700 <strlen>:
 8000700:	f890 f000 	pld	[r0]
 8000704:	e96d 4502 	strd	r4, r5, [sp, #-8]!
 8000708:	f020 0107 	bic.w	r1, r0, #7
 800070c:	f06f 0c00 	mvn.w	ip, #0
 8000710:	f010 0407 	ands.w	r4, r0, #7
 8000714:	f891 f020 	pld	[r1, #32]
 8000718:	f040 8049 	bne.w	80007ae <strlen+0xae>
 800071c:	f04f 0400 	mov.w	r4, #0
 8000720:	f06f 0007 	mvn.w	r0, #7
 8000724:	e9d1 2300 	ldrd	r2, r3, [r1]
 8000728:	f891 f040 	pld	[r1, #64]	; 0x40
 800072c:	f100 0008 	add.w	r0, r0, #8
 8000730:	fa82 f24c 	uadd8	r2, r2, ip
 8000734:	faa4 f28c 	sel	r2, r4, ip
 8000738:	fa83 f34c 	uadd8	r3, r3, ip
 800073c:	faa2 f38c 	sel	r3, r2, ip
 8000740:	bb4b      	cbnz	r3, 8000796 <strlen+0x96>
 8000742:	e9d1 2302 	ldrd	r2, r3, [r1, #8]
 8000746:	fa82 f24c 	uadd8	r2, r2, ip
 800074a:	f100 0008 	add.w	r0, r0, #8
 800074e:	faa4 f28c 	sel	r2, r4, ip
 8000752:	fa83 f34c 	uadd8	r3, r3, ip
 8000756:	faa2 f38c 	sel	r3, r2, ip
 800075a:	b9e3      	cbnz	r3, 8000796 <strlen+0x96>
 800075c:	e9d1 2304 	ldrd	r2, r3, [r1, #16]
 8000760:	fa82 f24c 	uadd8	r2, r2, ip
 8000764:	f100 0008 	add.w	r0, r0, #8
 8000768:	faa4 f28c 	sel	r2, r4, ip
 800076c:	fa83 f34c 	uadd8	r3, r3, ip
 8000770:	faa2 f38c 	sel	r3, r2, ip
 8000774:	b97b      	cbnz	r3, 8000796 <strlen+0x96>
 8000776:	e9d1 2306 	ldrd	r2, r3, [r1, #24]
 800077a:	f101 0120 	add.w	r1, r1, #32
 800077e:	fa82 f24c 	uadd8	r2, r2, ip
 8000782:	f100 0008 	add.w	r0, r0, #8
 8000786:	faa4 f28c 	sel	r2, r4, ip
 800078a:	fa83 f34c 	uadd8	r3, r3, ip
 800078e:	faa2 f38c 	sel	r3, r2, ip
 8000792:	2b00      	cmp	r3, #0
 8000794:	d0c6      	beq.n	8000724 <strlen+0x24>
 8000796:	2a00      	cmp	r2, #0
 8000798:	bf04      	itt	eq
 800079a:	3004      	addeq	r0, #4
 800079c:	461a      	moveq	r2, r3
 800079e:	ba12      	rev	r2, r2
 80007a0:	fab2 f282 	clz	r2, r2
 80007a4:	e8fd 4502 	ldrd	r4, r5, [sp], #8
 80007a8:	eb00 00d2 	add.w	r0, r0, r2, lsr #3
 80007ac:	4770      	bx	lr
 80007ae:	e9d1 2300 	ldrd	r2, r3, [r1]
 80007b2:	f004 0503 	and.w	r5, r4, #3
 80007b6:	f1c4 0000 	rsb	r0, r4, #0
 80007ba:	ea4f 05c5 	mov.w	r5, r5, lsl #3
 80007be:	f014 0f04 	tst.w	r4, #4
 80007c2:	f891 f040 	pld	[r1, #64]	; 0x40
 80007c6:	fa0c f505 	lsl.w	r5, ip, r5
 80007ca:	ea62 0205 	orn	r2, r2, r5
 80007ce:	bf1c      	itt	ne
 80007d0:	ea63 0305 	ornne	r3, r3, r5
 80007d4:	4662      	movne	r2, ip
 80007d6:	f04f 0400 	mov.w	r4, #0
 80007da:	e7a9      	b.n	8000730 <strlen+0x30>

080007dc <__aeabi_drsub>:
 80007dc:	f081 4100 	eor.w	r1, r1, #2147483648	; 0x80000000
 80007e0:	e002      	b.n	80007e8 <__adddf3>
 80007e2:	bf00      	nop

080007e4 <__aeabi_dsub>:
 80007e4:	f083 4300 	eor.w	r3, r3, #2147483648	; 0x80000000

080007e8 <__adddf3>:
 80007e8:	b530      	push	{r4, r5, lr}
 80007ea:	ea4f 0441 	mov.w	r4, r1, lsl #1
 80007ee:	ea4f 0543 	mov.w	r5, r3, lsl #1
 80007f2:	ea94 0f05 	teq	r4, r5
 80007f6:	bf08      	it	eq
 80007f8:	ea90 0f02 	teqeq	r0, r2
 80007fc:	bf1f      	itttt	ne
 80007fe:	ea54 0c00 	orrsne.w	ip, r4, r0
 8000802:	ea55 0c02 	orrsne.w	ip, r5, r2
 8000806:	ea7f 5c64 	mvnsne.w	ip, r4, asr #21
 800080a:	ea7f 5c65 	mvnsne.w	ip, r5, asr #21
 800080e:	f000 80e2 	beq.w	80009d6 <__adddf3+0x1ee>
 8000812:	ea4f 5454 	mov.w	r4, r4, lsr #21
 8000816:	ebd4 5555 	rsbs	r5, r4, r5, lsr #21
 800081a:	bfb8      	it	lt
 800081c:	426d      	neglt	r5, r5
 800081e:	dd0c      	ble.n	800083a <__adddf3+0x52>
 8000820:	442c      	add	r4, r5
 8000822:	ea80 0202 	eor.w	r2, r0, r2
 8000826:	ea81 0303 	eor.w	r3, r1, r3
 800082a:	ea82 0000 	eor.w	r0, r2, r0
 800082e:	ea83 0101 	eor.w	r1, r3, r1
 8000832:	ea80 0202 	eor.w	r2, r0, r2
 8000836:	ea81 0303 	eor.w	r3, r1, r3
 800083a:	2d36      	cmp	r5, #54	; 0x36
 800083c:	bf88      	it	hi
 800083e:	bd30      	pophi	{r4, r5, pc}
 8000840:	f011 4f00 	tst.w	r1, #2147483648	; 0x80000000
 8000844:	ea4f 3101 	mov.w	r1, r1, lsl #12
 8000848:	f44f 1c80 	mov.w	ip, #1048576	; 0x100000
 800084c:	ea4c 3111 	orr.w	r1, ip, r1, lsr #12
 8000850:	d002      	beq.n	8000858 <__adddf3+0x70>
 8000852:	4240      	negs	r0, r0
 8000854:	eb61 0141 	sbc.w	r1, r1, r1, lsl #1
 8000858:	f013 4f00 	tst.w	r3, #2147483648	; 0x80000000
 800085c:	ea4f 3303 	mov.w	r3, r3, lsl #12
 8000860:	ea4c 3313 	orr.w	r3, ip, r3, lsr #12
 8000864:	d002      	beq.n	800086c <__adddf3+0x84>
 8000866:	4252      	negs	r2, r2
 8000868:	eb63 0343 	sbc.w	r3, r3, r3, lsl #1
 800086c:	ea94 0f05 	teq	r4, r5
 8000870:	f000 80a7 	beq.w	80009c2 <__adddf3+0x1da>
 8000874:	f1a4 0401 	sub.w	r4, r4, #1
 8000878:	f1d5 0e20 	rsbs	lr, r5, #32
 800087c:	db0d      	blt.n	800089a <__adddf3+0xb2>
 800087e:	fa02 fc0e 	lsl.w	ip, r2, lr
 8000882:	fa22 f205 	lsr.w	r2, r2, r5
 8000886:	1880      	adds	r0, r0, r2
 8000888:	f141 0100 	adc.w	r1, r1, #0
 800088c:	fa03 f20e 	lsl.w	r2, r3, lr
 8000890:	1880      	adds	r0, r0, r2
 8000892:	fa43 f305 	asr.w	r3, r3, r5
 8000896:	4159      	adcs	r1, r3
 8000898:	e00e      	b.n	80008b8 <__adddf3+0xd0>
 800089a:	f1a5 0520 	sub.w	r5, r5, #32
 800089e:	f10e 0e20 	add.w	lr, lr, #32
 80008a2:	2a01      	cmp	r2, #1
 80008a4:	fa03 fc0e 	lsl.w	ip, r3, lr
 80008a8:	bf28      	it	cs
 80008aa:	f04c 0c02 	orrcs.w	ip, ip, #2
 80008ae:	fa43 f305 	asr.w	r3, r3, r5
 80008b2:	18c0      	adds	r0, r0, r3
 80008b4:	eb51 71e3 	adcs.w	r1, r1, r3, asr #31
 80008b8:	f001 4500 	and.w	r5, r1, #2147483648	; 0x80000000
 80008bc:	d507      	bpl.n	80008ce <__adddf3+0xe6>
 80008be:	f04f 0e00 	mov.w	lr, #0
 80008c2:	f1dc 0c00 	rsbs	ip, ip, #0
 80008c6:	eb7e 0000 	sbcs.w	r0, lr, r0
 80008ca:	eb6e 0101 	sbc.w	r1, lr, r1
 80008ce:	f5b1 1f80 	cmp.w	r1, #1048576	; 0x100000
 80008d2:	d31b      	bcc.n	800090c <__adddf3+0x124>
 80008d4:	f5b1 1f00 	cmp.w	r1, #2097152	; 0x200000
 80008d8:	d30c      	bcc.n	80008f4 <__adddf3+0x10c>
 80008da:	0849      	lsrs	r1, r1, #1
 80008dc:	ea5f 0030 	movs.w	r0, r0, rrx
 80008e0:	ea4f 0c3c 	mov.w	ip, ip, rrx
 80008e4:	f104 0401 	add.w	r4, r4, #1
 80008e8:	ea4f 5244 	mov.w	r2, r4, lsl #21
 80008ec:	f512 0f80 	cmn.w	r2, #4194304	; 0x400000
 80008f0:	f080 809a 	bcs.w	8000a28 <__adddf3+0x240>
 80008f4:	f1bc 4f00 	cmp.w	ip, #2147483648	; 0x80000000
 80008f8:	bf08      	it	eq
 80008fa:	ea5f 0c50 	movseq.w	ip, r0, lsr #1
 80008fe:	f150 0000 	adcs.w	r0, r0, #0
 8000902:	eb41 5104 	adc.w	r1, r1, r4, lsl #20
 8000906:	ea41 0105 	orr.w	r1, r1, r5
 800090a:	bd30      	pop	{r4, r5, pc}
 800090c:	ea5f 0c4c 	movs.w	ip, ip, lsl #1
 8000910:	4140      	adcs	r0, r0
 8000912:	eb41 0101 	adc.w	r1, r1, r1
 8000916:	f411 1f80 	tst.w	r1, #1048576	; 0x100000
 800091a:	f1a4 0401 	sub.w	r4, r4, #1
 800091e:	d1e9      	bne.n	80008f4 <__adddf3+0x10c>
 8000920:	f091 0f00 	teq	r1, #0
 8000924:	bf04      	itt	eq
 8000926:	4601      	moveq	r1, r0
 8000928:	2000      	moveq	r0, #0
 800092a:	fab1 f381 	clz	r3, r1
 800092e:	bf08      	it	eq
 8000930:	3320      	addeq	r3, #32
 8000932:	f1a3 030b 	sub.w	r3, r3, #11
 8000936:	f1b3 0220 	subs.w	r2, r3, #32
 800093a:	da0c      	bge.n	8000956 <__adddf3+0x16e>
 800093c:	320c      	adds	r2, #12
 800093e:	dd08      	ble.n	8000952 <__adddf3+0x16a>
 8000940:	f102 0c14 	add.w	ip, r2, #20
 8000944:	f1c2 020c 	rsb	r2, r2, #12
 8000948:	fa01 f00c 	lsl.w	r0, r1, ip
 800094c:	fa21 f102 	lsr.w	r1, r1, r2
 8000950:	e00c      	b.n	800096c <__adddf3+0x184>
 8000952:	f102 0214 	add.w	r2, r2, #20
 8000956:	bfd8      	it	le
 8000958:	f1c2 0c20 	rsble	ip, r2, #32
 800095c:	fa01 f102 	lsl.w	r1, r1, r2
 8000960:	fa20 fc0c 	lsr.w	ip, r0, ip
 8000964:	bfdc      	itt	le
 8000966:	ea41 010c 	orrle.w	r1, r1, ip
 800096a:	4090      	lslle	r0, r2
 800096c:	1ae4      	subs	r4, r4, r3
 800096e:	bfa2      	ittt	ge
 8000970:	eb01 5104 	addge.w	r1, r1, r4, lsl #20
 8000974:	4329      	orrge	r1, r5
 8000976:	bd30      	popge	{r4, r5, pc}
 8000978:	ea6f 0404 	mvn.w	r4, r4
 800097c:	3c1f      	subs	r4, #31
 800097e:	da1c      	bge.n	80009ba <__adddf3+0x1d2>
 8000980:	340c      	adds	r4, #12
 8000982:	dc0e      	bgt.n	80009a2 <__adddf3+0x1ba>
 8000984:	f104 0414 	add.w	r4, r4, #20
 8000988:	f1c4 0220 	rsb	r2, r4, #32
 800098c:	fa20 f004 	lsr.w	r0, r0, r4
 8000990:	fa01 f302 	lsl.w	r3, r1, r2
 8000994:	ea40 0003 	orr.w	r0, r0, r3
 8000998:	fa21 f304 	lsr.w	r3, r1, r4
 800099c:	ea45 0103 	orr.w	r1, r5, r3
 80009a0:	bd30      	pop	{r4, r5, pc}
 80009a2:	f1c4 040c 	rsb	r4, r4, #12
 80009a6:	f1c4 0220 	rsb	r2, r4, #32
 80009aa:	fa20 f002 	lsr.w	r0, r0, r2
 80009ae:	fa01 f304 	lsl.w	r3, r1, r4
 80009b2:	ea40 0003 	orr.w	r0, r0, r3
 80009b6:	4629      	mov	r1, r5
 80009b8:	bd30      	pop	{r4, r5, pc}
 80009ba:	fa21 f004 	lsr.w	r0, r1, r4
 80009be:	4629      	mov	r1, r5
 80009c0:	bd30      	pop	{r4, r5, pc}
 80009c2:	f094 0f00 	teq	r4, #0
 80009c6:	f483 1380 	eor.w	r3, r3, #1048576	; 0x100000
 80009ca:	bf06      	itte	eq
 80009cc:	f481 1180 	eoreq.w	r1, r1, #1048576	; 0x100000
 80009d0:	3401      	addeq	r4, #1
 80009d2:	3d01      	subne	r5, #1
 80009d4:	e74e      	b.n	8000874 <__adddf3+0x8c>
 80009d6:	ea7f 5c64 	mvns.w	ip, r4, asr #21
 80009da:	bf18      	it	ne
 80009dc:	ea7f 5c65 	mvnsne.w	ip, r5, asr #21
 80009e0:	d029      	beq.n	8000a36 <__adddf3+0x24e>
 80009e2:	ea94 0f05 	teq	r4, r5
 80009e6:	bf08      	it	eq
 80009e8:	ea90 0f02 	teqeq	r0, r2
 80009ec:	d005      	beq.n	80009fa <__adddf3+0x212>
 80009ee:	ea54 0c00 	orrs.w	ip, r4, r0
 80009f2:	bf04      	itt	eq
 80009f4:	4619      	moveq	r1, r3
 80009f6:	4610      	moveq	r0, r2
 80009f8:	bd30      	pop	{r4, r5, pc}
 80009fa:	ea91 0f03 	teq	r1, r3
 80009fe:	bf1e      	ittt	ne
 8000a00:	2100      	movne	r1, #0
 8000a02:	2000      	movne	r0, #0
 8000a04:	bd30      	popne	{r4, r5, pc}
 8000a06:	ea5f 5c54 	movs.w	ip, r4, lsr #21
 8000a0a:	d105      	bne.n	8000a18 <__adddf3+0x230>
 8000a0c:	0040      	lsls	r0, r0, #1
 8000a0e:	4149      	adcs	r1, r1
 8000a10:	bf28      	it	cs
 8000a12:	f041 4100 	orrcs.w	r1, r1, #2147483648	; 0x80000000
 8000a16:	bd30      	pop	{r4, r5, pc}
 8000a18:	f514 0480 	adds.w	r4, r4, #4194304	; 0x400000
 8000a1c:	bf3c      	itt	cc
 8000a1e:	f501 1180 	addcc.w	r1, r1, #1048576	; 0x100000
 8000a22:	bd30      	popcc	{r4, r5, pc}
 8000a24:	f001 4500 	and.w	r5, r1, #2147483648	; 0x80000000
 8000a28:	f045 41fe 	orr.w	r1, r5, #2130706432	; 0x7f000000
 8000a2c:	f441 0170 	orr.w	r1, r1, #15728640	; 0xf00000
 8000a30:	f04f 0000 	mov.w	r0, #0
 8000a34:	bd30      	pop	{r4, r5, pc}
 8000a36:	ea7f 5c64 	mvns.w	ip, r4, asr #21
 8000a3a:	bf1a      	itte	ne
 8000a3c:	4619      	movne	r1, r3
 8000a3e:	4610      	movne	r0, r2
 8000a40:	ea7f 5c65 	mvnseq.w	ip, r5, asr #21
 8000a44:	bf1c      	itt	ne
 8000a46:	460b      	movne	r3, r1
 8000a48:	4602      	movne	r2, r0
 8000a4a:	ea50 3401 	orrs.w	r4, r0, r1, lsl #12
 8000a4e:	bf06      	itte	eq
 8000a50:	ea52 3503 	orrseq.w	r5, r2, r3, lsl #12
 8000a54:	ea91 0f03 	teqeq	r1, r3
 8000a58:	f441 2100 	orrne.w	r1, r1, #524288	; 0x80000
 8000a5c:	bd30      	pop	{r4, r5, pc}
 8000a5e:	bf00      	nop

08000a60 <__aeabi_ui2d>:
 8000a60:	f090 0f00 	teq	r0, #0
 8000a64:	bf04      	itt	eq
 8000a66:	2100      	moveq	r1, #0
 8000a68:	4770      	bxeq	lr
 8000a6a:	b530      	push	{r4, r5, lr}
 8000a6c:	f44f 6480 	mov.w	r4, #1024	; 0x400
 8000a70:	f104 0432 	add.w	r4, r4, #50	; 0x32
 8000a74:	f04f 0500 	mov.w	r5, #0
 8000a78:	f04f 0100 	mov.w	r1, #0
 8000a7c:	e750      	b.n	8000920 <__adddf3+0x138>
 8000a7e:	bf00      	nop

08000a80 <__aeabi_i2d>:
 8000a80:	f090 0f00 	teq	r0, #0
 8000a84:	bf04      	itt	eq
 8000a86:	2100      	moveq	r1, #0
 8000a88:	4770      	bxeq	lr
 8000a8a:	b530      	push	{r4, r5, lr}
 8000a8c:	f44f 6480 	mov.w	r4, #1024	; 0x400
 8000a90:	f104 0432 	add.w	r4, r4, #50	; 0x32
 8000a94:	f010 4500 	ands.w	r5, r0, #2147483648	; 0x80000000
 8000a98:	bf48      	it	mi
 8000a9a:	4240      	negmi	r0, r0
 8000a9c:	f04f 0100 	mov.w	r1, #0
 8000aa0:	e73e      	b.n	8000920 <__adddf3+0x138>
 8000aa2:	bf00      	nop

08000aa4 <__aeabi_f2d>:
 8000aa4:	0042      	lsls	r2, r0, #1
 8000aa6:	ea4f 01e2 	mov.w	r1, r2, asr #3
 8000aaa:	ea4f 0131 	mov.w	r1, r1, rrx
 8000aae:	ea4f 7002 	mov.w	r0, r2, lsl #28
 8000ab2:	bf1f      	itttt	ne
 8000ab4:	f012 437f 	andsne.w	r3, r2, #4278190080	; 0xff000000
 8000ab8:	f093 4f7f 	teqne	r3, #4278190080	; 0xff000000
 8000abc:	f081 5160 	eorne.w	r1, r1, #939524096	; 0x38000000
 8000ac0:	4770      	bxne	lr
 8000ac2:	f032 427f 	bics.w	r2, r2, #4278190080	; 0xff000000
 8000ac6:	bf08      	it	eq
 8000ac8:	4770      	bxeq	lr
 8000aca:	f093 4f7f 	teq	r3, #4278190080	; 0xff000000
 8000ace:	bf04      	itt	eq
 8000ad0:	f441 2100 	orreq.w	r1, r1, #524288	; 0x80000
 8000ad4:	4770      	bxeq	lr
 8000ad6:	b530      	push	{r4, r5, lr}
 8000ad8:	f44f 7460 	mov.w	r4, #896	; 0x380
 8000adc:	f001 4500 	and.w	r5, r1, #2147483648	; 0x80000000
 8000ae0:	f021 4100 	bic.w	r1, r1, #2147483648	; 0x80000000
 8000ae4:	e71c      	b.n	8000920 <__adddf3+0x138>
 8000ae6:	bf00      	nop

08000ae8 <__aeabi_ul2d>:
 8000ae8:	ea50 0201 	orrs.w	r2, r0, r1
 8000aec:	bf08      	it	eq
 8000aee:	4770      	bxeq	lr
 8000af0:	b530      	push	{r4, r5, lr}
 8000af2:	f04f 0500 	mov.w	r5, #0
 8000af6:	e00a      	b.n	8000b0e <__aeabi_l2d+0x16>

08000af8 <__aeabi_l2d>:
 8000af8:	ea50 0201 	orrs.w	r2, r0, r1
 8000afc:	bf08      	it	eq
 8000afe:	4770      	bxeq	lr
 8000b00:	b530      	push	{r4, r5, lr}
 8000b02:	f011 4500 	ands.w	r5, r1, #2147483648	; 0x80000000
 8000b06:	d502      	bpl.n	8000b0e <__aeabi_l2d+0x16>
 8000b08:	4240      	negs	r0, r0
 8000b0a:	eb61 0141 	sbc.w	r1, r1, r1, lsl #1
 8000b0e:	f44f 6480 	mov.w	r4, #1024	; 0x400
 8000b12:	f104 0432 	add.w	r4, r4, #50	; 0x32
 8000b16:	ea5f 5c91 	movs.w	ip, r1, lsr #22
 8000b1a:	f43f aed8 	beq.w	80008ce <__adddf3+0xe6>
 8000b1e:	f04f 0203 	mov.w	r2, #3
 8000b22:	ea5f 0cdc 	movs.w	ip, ip, lsr #3
 8000b26:	bf18      	it	ne
 8000b28:	3203      	addne	r2, #3
 8000b2a:	ea5f 0cdc 	movs.w	ip, ip, lsr #3
 8000b2e:	bf18      	it	ne
 8000b30:	3203      	addne	r2, #3
 8000b32:	eb02 02dc 	add.w	r2, r2, ip, lsr #3
 8000b36:	f1c2 0320 	rsb	r3, r2, #32
 8000b3a:	fa00 fc03 	lsl.w	ip, r0, r3
 8000b3e:	fa20 f002 	lsr.w	r0, r0, r2
 8000b42:	fa01 fe03 	lsl.w	lr, r1, r3
 8000b46:	ea40 000e 	orr.w	r0, r0, lr
 8000b4a:	fa21 f102 	lsr.w	r1, r1, r2
 8000b4e:	4414      	add	r4, r2
 8000b50:	e6bd      	b.n	80008ce <__adddf3+0xe6>
 8000b52:	bf00      	nop

08000b54 <__aeabi_dmul>:
 8000b54:	b570      	push	{r4, r5, r6, lr}
 8000b56:	f04f 0cff 	mov.w	ip, #255	; 0xff
 8000b5a:	f44c 6ce0 	orr.w	ip, ip, #1792	; 0x700
 8000b5e:	ea1c 5411 	ands.w	r4, ip, r1, lsr #20
 8000b62:	bf1d      	ittte	ne
 8000b64:	ea1c 5513 	andsne.w	r5, ip, r3, lsr #20
 8000b68:	ea94 0f0c 	teqne	r4, ip
 8000b6c:	ea95 0f0c 	teqne	r5, ip
 8000b70:	f000 f8de 	bleq	8000d30 <__aeabi_dmul+0x1dc>
 8000b74:	442c      	add	r4, r5
 8000b76:	ea81 0603 	eor.w	r6, r1, r3
 8000b7a:	ea21 514c 	bic.w	r1, r1, ip, lsl #21
 8000b7e:	ea23 534c 	bic.w	r3, r3, ip, lsl #21
 8000b82:	ea50 3501 	orrs.w	r5, r0, r1, lsl #12
 8000b86:	bf18      	it	ne
 8000b88:	ea52 3503 	orrsne.w	r5, r2, r3, lsl #12
 8000b8c:	f441 1180 	orr.w	r1, r1, #1048576	; 0x100000
 8000b90:	f443 1380 	orr.w	r3, r3, #1048576	; 0x100000
 8000b94:	d038      	beq.n	8000c08 <__aeabi_dmul+0xb4>
 8000b96:	fba0 ce02 	umull	ip, lr, r0, r2
 8000b9a:	f04f 0500 	mov.w	r5, #0
 8000b9e:	fbe1 e502 	umlal	lr, r5, r1, r2
 8000ba2:	f006 4200 	and.w	r2, r6, #2147483648	; 0x80000000
 8000ba6:	fbe0 e503 	umlal	lr, r5, r0, r3
 8000baa:	f04f 0600 	mov.w	r6, #0
 8000bae:	fbe1 5603 	umlal	r5, r6, r1, r3
 8000bb2:	f09c 0f00 	teq	ip, #0
 8000bb6:	bf18      	it	ne
 8000bb8:	f04e 0e01 	orrne.w	lr, lr, #1
 8000bbc:	f1a4 04ff 	sub.w	r4, r4, #255	; 0xff
 8000bc0:	f5b6 7f00 	cmp.w	r6, #512	; 0x200
 8000bc4:	f564 7440 	sbc.w	r4, r4, #768	; 0x300
 8000bc8:	d204      	bcs.n	8000bd4 <__aeabi_dmul+0x80>
 8000bca:	ea5f 0e4e 	movs.w	lr, lr, lsl #1
 8000bce:	416d      	adcs	r5, r5
 8000bd0:	eb46 0606 	adc.w	r6, r6, r6
 8000bd4:	ea42 21c6 	orr.w	r1, r2, r6, lsl #11
 8000bd8:	ea41 5155 	orr.w	r1, r1, r5, lsr #21
 8000bdc:	ea4f 20c5 	mov.w	r0, r5, lsl #11
 8000be0:	ea40 505e 	orr.w	r0, r0, lr, lsr #21
 8000be4:	ea4f 2ece 	mov.w	lr, lr, lsl #11
 8000be8:	f1b4 0cfd 	subs.w	ip, r4, #253	; 0xfd
 8000bec:	bf88      	it	hi
 8000bee:	f5bc 6fe0 	cmphi.w	ip, #1792	; 0x700
 8000bf2:	d81e      	bhi.n	8000c32 <__aeabi_dmul+0xde>
 8000bf4:	f1be 4f00 	cmp.w	lr, #2147483648	; 0x80000000
 8000bf8:	bf08      	it	eq
 8000bfa:	ea5f 0e50 	movseq.w	lr, r0, lsr #1
 8000bfe:	f150 0000 	adcs.w	r0, r0, #0
 8000c02:	eb41 5104 	adc.w	r1, r1, r4, lsl #20
 8000c06:	bd70      	pop	{r4, r5, r6, pc}
 8000c08:	f006 4600 	and.w	r6, r6, #2147483648	; 0x80000000
 8000c0c:	ea46 0101 	orr.w	r1, r6, r1
 8000c10:	ea40 0002 	orr.w	r0, r0, r2
 8000c14:	ea81 0103 	eor.w	r1, r1, r3
 8000c18:	ebb4 045c 	subs.w	r4, r4, ip, lsr #1
 8000c1c:	bfc2      	ittt	gt
 8000c1e:	ebd4 050c 	rsbsgt	r5, r4, ip
 8000c22:	ea41 5104 	orrgt.w	r1, r1, r4, lsl #20
 8000c26:	bd70      	popgt	{r4, r5, r6, pc}
 8000c28:	f441 1180 	orr.w	r1, r1, #1048576	; 0x100000
 8000c2c:	f04f 0e00 	mov.w	lr, #0
 8000c30:	3c01      	subs	r4, #1
 8000c32:	f300 80ab 	bgt.w	8000d8c <__aeabi_dmul+0x238>
 8000c36:	f114 0f36 	cmn.w	r4, #54	; 0x36
 8000c3a:	bfde      	ittt	le
 8000c3c:	2000      	movle	r0, #0
 8000c3e:	f001 4100 	andle.w	r1, r1, #2147483648	; 0x80000000
 8000c42:	bd70      	pople	{r4, r5, r6, pc}
 8000c44:	f1c4 0400 	rsb	r4, r4, #0
 8000c48:	3c20      	subs	r4, #32
 8000c4a:	da35      	bge.n	8000cb8 <__aeabi_dmul+0x164>
 8000c4c:	340c      	adds	r4, #12
 8000c4e:	dc1b      	bgt.n	8000c88 <__aeabi_dmul+0x134>
 8000c50:	f104 0414 	add.w	r4, r4, #20
 8000c54:	f1c4 0520 	rsb	r5, r4, #32
 8000c58:	fa00 f305 	lsl.w	r3, r0, r5
 8000c5c:	fa20 f004 	lsr.w	r0, r0, r4
 8000c60:	fa01 f205 	lsl.w	r2, r1, r5
 8000c64:	ea40 0002 	orr.w	r0, r0, r2
 8000c68:	f001 4200 	and.w	r2, r1, #2147483648	; 0x80000000
 8000c6c:	f021 4100 	bic.w	r1, r1, #2147483648	; 0x80000000
 8000c70:	eb10 70d3 	adds.w	r0, r0, r3, lsr #31
 8000c74:	fa21 f604 	lsr.w	r6, r1, r4
 8000c78:	eb42 0106 	adc.w	r1, r2, r6
 8000c7c:	ea5e 0e43 	orrs.w	lr, lr, r3, lsl #1
 8000c80:	bf08      	it	eq
 8000c82:	ea20 70d3 	biceq.w	r0, r0, r3, lsr #31
 8000c86:	bd70      	pop	{r4, r5, r6, pc}
 8000c88:	f1c4 040c 	rsb	r4, r4, #12
 8000c8c:	f1c4 0520 	rsb	r5, r4, #32
 8000c90:	fa00 f304 	lsl.w	r3, r0, r4
 8000c94:	fa20 f005 	lsr.w	r0, r0, r5
 8000c98:	fa01 f204 	lsl.w	r2, r1, r4
 8000c9c:	ea40 0002 	orr.w	r0, r0, r2
 8000ca0:	f001 4100 	and.w	r1, r1, #2147483648	; 0x80000000
 8000ca4:	eb10 70d3 	adds.w	r0, r0, r3, lsr #31
 8000ca8:	f141 0100 	adc.w	r1, r1, #0
 8000cac:	ea5e 0e43 	orrs.w	lr, lr, r3, lsl #1
 8000cb0:	bf08      	it	eq
 8000cb2:	ea20 70d3 	biceq.w	r0, r0, r3, lsr #31
 8000cb6:	bd70      	pop	{r4, r5, r6, pc}
 8000cb8:	f1c4 0520 	rsb	r5, r4, #32
 8000cbc:	fa00 f205 	lsl.w	r2, r0, r5
 8000cc0:	ea4e 0e02 	orr.w	lr, lr, r2
 8000cc4:	fa20 f304 	lsr.w	r3, r0, r4
 8000cc8:	fa01 f205 	lsl.w	r2, r1, r5
 8000ccc:	ea43 0302 	orr.w	r3, r3, r2
 8000cd0:	fa21 f004 	lsr.w	r0, r1, r4
 8000cd4:	f001 4100 	and.w	r1, r1, #2147483648	; 0x80000000
 8000cd8:	fa21 f204 	lsr.w	r2, r1, r4
 8000cdc:	ea20 0002 	bic.w	r0, r0, r2
 8000ce0:	eb00 70d3 	add.w	r0, r0, r3, lsr #31
 8000ce4:	ea5e 0e43 	orrs.w	lr, lr, r3, lsl #1
 8000ce8:	bf08      	it	eq
 8000cea:	ea20 70d3 	biceq.w	r0, r0, r3, lsr #31
 8000cee:	bd70      	pop	{r4, r5, r6, pc}
 8000cf0:	f094 0f00 	teq	r4, #0
 8000cf4:	d10f      	bne.n	8000d16 <__aeabi_dmul+0x1c2>
 8000cf6:	f001 4600 	and.w	r6, r1, #2147483648	; 0x80000000
 8000cfa:	0040      	lsls	r0, r0, #1
 8000cfc:	eb41 0101 	adc.w	r1, r1, r1
 8000d00:	f411 1f80 	tst.w	r1, #1048576	; 0x100000
 8000d04:	bf08      	it	eq
 8000d06:	3c01      	subeq	r4, #1
 8000d08:	d0f7      	beq.n	8000cfa <__aeabi_dmul+0x1a6>
 8000d0a:	ea41 0106 	orr.w	r1, r1, r6
 8000d0e:	f095 0f00 	teq	r5, #0
 8000d12:	bf18      	it	ne
 8000d14:	4770      	bxne	lr
 8000d16:	f003 4600 	and.w	r6, r3, #2147483648	; 0x80000000
 8000d1a:	0052      	lsls	r2, r2, #1
 8000d1c:	eb43 0303 	adc.w	r3, r3, r3
 8000d20:	f413 1f80 	tst.w	r3, #1048576	; 0x100000
 8000d24:	bf08      	it	eq
 8000d26:	3d01      	subeq	r5, #1
 8000d28:	d0f7      	beq.n	8000d1a <__aeabi_dmul+0x1c6>
 8000d2a:	ea43 0306 	orr.w	r3, r3, r6
 8000d2e:	4770      	bx	lr
 8000d30:	ea94 0f0c 	teq	r4, ip
 8000d34:	ea0c 5513 	and.w	r5, ip, r3, lsr #20
 8000d38:	bf18      	it	ne
 8000d3a:	ea95 0f0c 	teqne	r5, ip
 8000d3e:	d00c      	beq.n	8000d5a <__aeabi_dmul+0x206>
 8000d40:	ea50 0641 	orrs.w	r6, r0, r1, lsl #1
 8000d44:	bf18      	it	ne
 8000d46:	ea52 0643 	orrsne.w	r6, r2, r3, lsl #1
 8000d4a:	d1d1      	bne.n	8000cf0 <__aeabi_dmul+0x19c>
 8000d4c:	ea81 0103 	eor.w	r1, r1, r3
 8000d50:	f001 4100 	and.w	r1, r1, #2147483648	; 0x80000000
 8000d54:	f04f 0000 	mov.w	r0, #0
 8000d58:	bd70      	pop	{r4, r5, r6, pc}
 8000d5a:	ea50 0641 	orrs.w	r6, r0, r1, lsl #1
 8000d5e:	bf06      	itte	eq
 8000d60:	4610      	moveq	r0, r2
 8000d62:	4619      	moveq	r1, r3
 8000d64:	ea52 0643 	orrsne.w	r6, r2, r3, lsl #1
 8000d68:	d019      	beq.n	8000d9e <__aeabi_dmul+0x24a>
 8000d6a:	ea94 0f0c 	teq	r4, ip
 8000d6e:	d102      	bne.n	8000d76 <__aeabi_dmul+0x222>
 8000d70:	ea50 3601 	orrs.w	r6, r0, r1, lsl #12
 8000d74:	d113      	bne.n	8000d9e <__aeabi_dmul+0x24a>
 8000d76:	ea95 0f0c 	teq	r5, ip
 8000d7a:	d105      	bne.n	8000d88 <__aeabi_dmul+0x234>
 8000d7c:	ea52 3603 	orrs.w	r6, r2, r3, lsl #12
 8000d80:	bf1c      	itt	ne
 8000d82:	4610      	movne	r0, r2
 8000d84:	4619      	movne	r1, r3
 8000d86:	d10a      	bne.n	8000d9e <__aeabi_dmul+0x24a>
 8000d88:	ea81 0103 	eor.w	r1, r1, r3
 8000d8c:	f001 4100 	and.w	r1, r1, #2147483648	; 0x80000000
 8000d90:	f041 41fe 	orr.w	r1, r1, #2130706432	; 0x7f000000
 8000d94:	f441 0170 	orr.w	r1, r1, #15728640	; 0xf00000
 8000d98:	f04f 0000 	mov.w	r0, #0
 8000d9c:	bd70      	pop	{r4, r5, r6, pc}
 8000d9e:	f041 41fe 	orr.w	r1, r1, #2130706432	; 0x7f000000
 8000da2:	f441 0178 	orr.w	r1, r1, #16252928	; 0xf80000
 8000da6:	bd70      	pop	{r4, r5, r6, pc}

08000da8 <__aeabi_ddiv>:
 8000da8:	b570      	push	{r4, r5, r6, lr}
 8000daa:	f04f 0cff 	mov.w	ip, #255	; 0xff
 8000dae:	f44c 6ce0 	orr.w	ip, ip, #1792	; 0x700
 8000db2:	ea1c 5411 	ands.w	r4, ip, r1, lsr #20
 8000db6:	bf1d      	ittte	ne
 8000db8:	ea1c 5513 	andsne.w	r5, ip, r3, lsr #20
 8000dbc:	ea94 0f0c 	teqne	r4, ip
 8000dc0:	ea95 0f0c 	teqne	r5, ip
 8000dc4:	f000 f8a7 	bleq	8000f16 <__aeabi_ddiv+0x16e>
 8000dc8:	eba4 0405 	sub.w	r4, r4, r5
 8000dcc:	ea81 0e03 	eor.w	lr, r1, r3
 8000dd0:	ea52 3503 	orrs.w	r5, r2, r3, lsl #12
 8000dd4:	ea4f 3101 	mov.w	r1, r1, lsl #12
 8000dd8:	f000 8088 	beq.w	8000eec <__aeabi_ddiv+0x144>
 8000ddc:	ea4f 3303 	mov.w	r3, r3, lsl #12
 8000de0:	f04f 5580 	mov.w	r5, #268435456	; 0x10000000
 8000de4:	ea45 1313 	orr.w	r3, r5, r3, lsr #4
 8000de8:	ea43 6312 	orr.w	r3, r3, r2, lsr #24
 8000dec:	ea4f 2202 	mov.w	r2, r2, lsl #8
 8000df0:	ea45 1511 	orr.w	r5, r5, r1, lsr #4
 8000df4:	ea45 6510 	orr.w	r5, r5, r0, lsr #24
 8000df8:	ea4f 2600 	mov.w	r6, r0, lsl #8
 8000dfc:	f00e 4100 	and.w	r1, lr, #2147483648	; 0x80000000
 8000e00:	429d      	cmp	r5, r3
 8000e02:	bf08      	it	eq
 8000e04:	4296      	cmpeq	r6, r2
 8000e06:	f144 04fd 	adc.w	r4, r4, #253	; 0xfd
 8000e0a:	f504 7440 	add.w	r4, r4, #768	; 0x300
 8000e0e:	d202      	bcs.n	8000e16 <__aeabi_ddiv+0x6e>
 8000e10:	085b      	lsrs	r3, r3, #1
 8000e12:	ea4f 0232 	mov.w	r2, r2, rrx
 8000e16:	1ab6      	subs	r6, r6, r2
 8000e18:	eb65 0503 	sbc.w	r5, r5, r3
 8000e1c:	085b      	lsrs	r3, r3, #1
 8000e1e:	ea4f 0232 	mov.w	r2, r2, rrx
 8000e22:	f44f 1080 	mov.w	r0, #1048576	; 0x100000
 8000e26:	f44f 2c00 	mov.w	ip, #524288	; 0x80000
 8000e2a:	ebb6 0e02 	subs.w	lr, r6, r2
 8000e2e:	eb75 0e03 	sbcs.w	lr, r5, r3
 8000e32:	bf22      	ittt	cs
 8000e34:	1ab6      	subcs	r6, r6, r2
 8000e36:	4675      	movcs	r5, lr
 8000e38:	ea40 000c 	orrcs.w	r0, r0, ip
 8000e3c:	085b      	lsrs	r3, r3, #1
 8000e3e:	ea4f 0232 	mov.w	r2, r2, rrx
 8000e42:	ebb6 0e02 	subs.w	lr, r6, r2
 8000e46:	eb75 0e03 	sbcs.w	lr, r5, r3
 8000e4a:	bf22      	ittt	cs
 8000e4c:	1ab6      	subcs	r6, r6, r2
 8000e4e:	4675      	movcs	r5, lr
 8000e50:	ea40 005c 	orrcs.w	r0, r0, ip, lsr #1
 8000e54:	085b      	lsrs	r3, r3, #1
 8000e56:	ea4f 0232 	mov.w	r2, r2, rrx
 8000e5a:	ebb6 0e02 	subs.w	lr, r6, r2
 8000e5e:	eb75 0e03 	sbcs.w	lr, r5, r3
 8000e62:	bf22      	ittt	cs
 8000e64:	1ab6      	subcs	r6, r6, r2
 8000e66:	4675      	movcs	r5, lr
 8000e68:	ea40 009c 	orrcs.w	r0, r0, ip, lsr #2
 8000e6c:	085b      	lsrs	r3, r3, #1
 8000e6e:	ea4f 0232 	mov.w	r2, r2, rrx
 8000e72:	ebb6 0e02 	subs.w	lr, r6, r2
 8000e76:	eb75 0e03 	sbcs.w	lr, r5, r3
 8000e7a:	bf22      	ittt	cs
 8000e7c:	1ab6      	subcs	r6, r6, r2
 8000e7e:	4675      	movcs	r5, lr
 8000e80:	ea40 00dc 	orrcs.w	r0, r0, ip, lsr #3
 8000e84:	ea55 0e06 	orrs.w	lr, r5, r6
 8000e88:	d018      	beq.n	8000ebc <__aeabi_ddiv+0x114>
 8000e8a:	ea4f 1505 	mov.w	r5, r5, lsl #4
 8000e8e:	ea45 7516 	orr.w	r5, r5, r6, lsr #28
 8000e92:	ea4f 1606 	mov.w	r6, r6, lsl #4
 8000e96:	ea4f 03c3 	mov.w	r3, r3, lsl #3
 8000e9a:	ea43 7352 	orr.w	r3, r3, r2, lsr #29
 8000e9e:	ea4f 02c2 	mov.w	r2, r2, lsl #3
 8000ea2:	ea5f 1c1c 	movs.w	ip, ip, lsr #4
 8000ea6:	d1c0      	bne.n	8000e2a <__aeabi_ddiv+0x82>
 8000ea8:	f411 1f80 	tst.w	r1, #1048576	; 0x100000
 8000eac:	d10b      	bne.n	8000ec6 <__aeabi_ddiv+0x11e>
 8000eae:	ea41 0100 	orr.w	r1, r1, r0
 8000eb2:	f04f 0000 	mov.w	r0, #0
 8000eb6:	f04f 4c00 	mov.w	ip, #2147483648	; 0x80000000
 8000eba:	e7b6      	b.n	8000e2a <__aeabi_ddiv+0x82>
 8000ebc:	f411 1f80 	tst.w	r1, #1048576	; 0x100000
 8000ec0:	bf04      	itt	eq
 8000ec2:	4301      	orreq	r1, r0
 8000ec4:	2000      	moveq	r0, #0
 8000ec6:	f1b4 0cfd 	subs.w	ip, r4, #253	; 0xfd
 8000eca:	bf88      	it	hi
 8000ecc:	f5bc 6fe0 	cmphi.w	ip, #1792	; 0x700
 8000ed0:	f63f aeaf 	bhi.w	8000c32 <__aeabi_dmul+0xde>
 8000ed4:	ebb5 0c03 	subs.w	ip, r5, r3
 8000ed8:	bf04      	itt	eq
 8000eda:	ebb6 0c02 	subseq.w	ip, r6, r2
 8000ede:	ea5f 0c50 	movseq.w	ip, r0, lsr #1
 8000ee2:	f150 0000 	adcs.w	r0, r0, #0
 8000ee6:	eb41 5104 	adc.w	r1, r1, r4, lsl #20
 8000eea:	bd70      	pop	{r4, r5, r6, pc}
 8000eec:	f00e 4e00 	and.w	lr, lr, #2147483648	; 0x80000000
 8000ef0:	ea4e 3111 	orr.w	r1, lr, r1, lsr #12
 8000ef4:	eb14 045c 	adds.w	r4, r4, ip, lsr #1
 8000ef8:	bfc2      	ittt	gt
 8000efa:	ebd4 050c 	rsbsgt	r5, r4, ip
 8000efe:	ea41 5104 	orrgt.w	r1, r1, r4, lsl #20
 8000f02:	bd70      	popgt	{r4, r5, r6, pc}
 8000f04:	f441 1180 	orr.w	r1, r1, #1048576	; 0x100000
 8000f08:	f04f 0e00 	mov.w	lr, #0
 8000f0c:	3c01      	subs	r4, #1
 8000f0e:	e690      	b.n	8000c32 <__aeabi_dmul+0xde>
 8000f10:	ea45 0e06 	orr.w	lr, r5, r6
 8000f14:	e68d      	b.n	8000c32 <__aeabi_dmul+0xde>
 8000f16:	ea0c 5513 	and.w	r5, ip, r3, lsr #20
 8000f1a:	ea94 0f0c 	teq	r4, ip
 8000f1e:	bf08      	it	eq
 8000f20:	ea95 0f0c 	teqeq	r5, ip
 8000f24:	f43f af3b 	beq.w	8000d9e <__aeabi_dmul+0x24a>
 8000f28:	ea94 0f0c 	teq	r4, ip
 8000f2c:	d10a      	bne.n	8000f44 <__aeabi_ddiv+0x19c>
 8000f2e:	ea50 3401 	orrs.w	r4, r0, r1, lsl #12
 8000f32:	f47f af34 	bne.w	8000d9e <__aeabi_dmul+0x24a>
 8000f36:	ea95 0f0c 	teq	r5, ip
 8000f3a:	f47f af25 	bne.w	8000d88 <__aeabi_dmul+0x234>
 8000f3e:	4610      	mov	r0, r2
 8000f40:	4619      	mov	r1, r3
 8000f42:	e72c      	b.n	8000d9e <__aeabi_dmul+0x24a>
 8000f44:	ea95 0f0c 	teq	r5, ip
 8000f48:	d106      	bne.n	8000f58 <__aeabi_ddiv+0x1b0>
 8000f4a:	ea52 3503 	orrs.w	r5, r2, r3, lsl #12
 8000f4e:	f43f aefd 	beq.w	8000d4c <__aeabi_dmul+0x1f8>
 8000f52:	4610      	mov	r0, r2
 8000f54:	4619      	mov	r1, r3
 8000f56:	e722      	b.n	8000d9e <__aeabi_dmul+0x24a>
 8000f58:	ea50 0641 	orrs.w	r6, r0, r1, lsl #1
 8000f5c:	bf18      	it	ne
 8000f5e:	ea52 0643 	orrsne.w	r6, r2, r3, lsl #1
 8000f62:	f47f aec5 	bne.w	8000cf0 <__aeabi_dmul+0x19c>
 8000f66:	ea50 0441 	orrs.w	r4, r0, r1, lsl #1
 8000f6a:	f47f af0d 	bne.w	8000d88 <__aeabi_dmul+0x234>
 8000f6e:	ea52 0543 	orrs.w	r5, r2, r3, lsl #1
 8000f72:	f47f aeeb 	bne.w	8000d4c <__aeabi_dmul+0x1f8>
 8000f76:	e712      	b.n	8000d9e <__aeabi_dmul+0x24a>

08000f78 <__gedf2>:
 8000f78:	f04f 3cff 	mov.w	ip, #4294967295	; 0xffffffff
 8000f7c:	e006      	b.n	8000f8c <__cmpdf2+0x4>
 8000f7e:	bf00      	nop

08000f80 <__ledf2>:
 8000f80:	f04f 0c01 	mov.w	ip, #1
 8000f84:	e002      	b.n	8000f8c <__cmpdf2+0x4>
 8000f86:	bf00      	nop

08000f88 <__cmpdf2>:
 8000f88:	f04f 0c01 	mov.w	ip, #1
 8000f8c:	f84d cd04 	str.w	ip, [sp, #-4]!
 8000f90:	ea4f 0c41 	mov.w	ip, r1, lsl #1
 8000f94:	ea7f 5c6c 	mvns.w	ip, ip, asr #21
 8000f98:	ea4f 0c43 	mov.w	ip, r3, lsl #1
 8000f9c:	bf18      	it	ne
 8000f9e:	ea7f 5c6c 	mvnsne.w	ip, ip, asr #21
 8000fa2:	d01b      	beq.n	8000fdc <__cmpdf2+0x54>
 8000fa4:	b001      	add	sp, #4
 8000fa6:	ea50 0c41 	orrs.w	ip, r0, r1, lsl #1
 8000faa:	bf0c      	ite	eq
 8000fac:	ea52 0c43 	orrseq.w	ip, r2, r3, lsl #1
 8000fb0:	ea91 0f03 	teqne	r1, r3
 8000fb4:	bf02      	ittt	eq
 8000fb6:	ea90 0f02 	teqeq	r0, r2
 8000fba:	2000      	moveq	r0, #0
 8000fbc:	4770      	bxeq	lr
 8000fbe:	f110 0f00 	cmn.w	r0, #0
 8000fc2:	ea91 0f03 	teq	r1, r3
 8000fc6:	bf58      	it	pl
 8000fc8:	4299      	cmppl	r1, r3
 8000fca:	bf08      	it	eq
 8000fcc:	4290      	cmpeq	r0, r2
 8000fce:	bf2c      	ite	cs
 8000fd0:	17d8      	asrcs	r0, r3, #31
 8000fd2:	ea6f 70e3 	mvncc.w	r0, r3, asr #31
 8000fd6:	f040 0001 	orr.w	r0, r0, #1
 8000fda:	4770      	bx	lr
 8000fdc:	ea4f 0c41 	mov.w	ip, r1, lsl #1
 8000fe0:	ea7f 5c6c 	mvns.w	ip, ip, asr #21
 8000fe4:	d102      	bne.n	8000fec <__cmpdf2+0x64>
 8000fe6:	ea50 3c01 	orrs.w	ip, r0, r1, lsl #12
 8000fea:	d107      	bne.n	8000ffc <__cmpdf2+0x74>
 8000fec:	ea4f 0c43 	mov.w	ip, r3, lsl #1
 8000ff0:	ea7f 5c6c 	mvns.w	ip, ip, asr #21
 8000ff4:	d1d6      	bne.n	8000fa4 <__cmpdf2+0x1c>
 8000ff6:	ea52 3c03 	orrs.w	ip, r2, r3, lsl #12
 8000ffa:	d0d3      	beq.n	8000fa4 <__cmpdf2+0x1c>
 8000ffc:	f85d 0b04 	ldr.w	r0, [sp], #4
 8001000:	4770      	bx	lr
 8001002:	bf00      	nop

08001004 <__aeabi_cdrcmple>:
 8001004:	4684      	mov	ip, r0
 8001006:	4610      	mov	r0, r2
 8001008:	4662      	mov	r2, ip
 800100a:	468c      	mov	ip, r1
 800100c:	4619      	mov	r1, r3
 800100e:	4663      	mov	r3, ip
 8001010:	e000      	b.n	8001014 <__aeabi_cdcmpeq>
 8001012:	bf00      	nop

08001014 <__aeabi_cdcmpeq>:
 8001014:	b501      	push	{r0, lr}
 8001016:	f7ff ffb7 	bl	8000f88 <__cmpdf2>
 800101a:	2800      	cmp	r0, #0
 800101c:	bf48      	it	mi
 800101e:	f110 0f00 	cmnmi.w	r0, #0
 8001022:	bd01      	pop	{r0, pc}

08001024 <__aeabi_dcmpeq>:
 8001024:	f84d ed08 	str.w	lr, [sp, #-8]!
 8001028:	f7ff fff4 	bl	8001014 <__aeabi_cdcmpeq>
 800102c:	bf0c      	ite	eq
 800102e:	2001      	moveq	r0, #1
 8001030:	2000      	movne	r0, #0
 8001032:	f85d fb08 	ldr.w	pc, [sp], #8
 8001036:	bf00      	nop

08001038 <__aeabi_dcmplt>:
 8001038:	f84d ed08 	str.w	lr, [sp, #-8]!
 800103c:	f7ff ffea 	bl	8001014 <__aeabi_cdcmpeq>
 8001040:	bf34      	ite	cc
 8001042:	2001      	movcc	r0, #1
 8001044:	2000      	movcs	r0, #0
 8001046:	f85d fb08 	ldr.w	pc, [sp], #8
 800104a:	bf00      	nop

0800104c <__aeabi_dcmple>:
 800104c:	f84d ed08 	str.w	lr, [sp, #-8]!
 8001050:	f7ff ffe0 	bl	8001014 <__aeabi_cdcmpeq>
 8001054:	bf94      	ite	ls
 8001056:	2001      	movls	r0, #1
 8001058:	2000      	movhi	r0, #0
 800105a:	f85d fb08 	ldr.w	pc, [sp], #8
 800105e:	bf00      	nop

08001060 <__aeabi_dcmpge>:
 8001060:	f84d ed08 	str.w	lr, [sp, #-8]!
 8001064:	f7ff ffce 	bl	8001004 <__aeabi_cdrcmple>
 8001068:	bf94      	ite	ls
 800106a:	2001      	movls	r0, #1
 800106c:	2000      	movhi	r0, #0
 800106e:	f85d fb08 	ldr.w	pc, [sp], #8
 8001072:	bf00      	nop

08001074 <__aeabi_dcmpgt>:
 8001074:	f84d ed08 	str.w	lr, [sp, #-8]!
 8001078:	f7ff ffc4 	bl	8001004 <__aeabi_cdrcmple>
 800107c:	bf34      	ite	cc
 800107e:	2001      	movcc	r0, #1
 8001080:	2000      	movcs	r0, #0
 8001082:	f85d fb08 	ldr.w	pc, [sp], #8
 8001086:	bf00      	nop

08001088 <__aeabi_dcmpun>:
 8001088:	ea4f 0c41 	mov.w	ip, r1, lsl #1
 800108c:	ea7f 5c6c 	mvns.w	ip, ip, asr #21
 8001090:	d102      	bne.n	8001098 <__aeabi_dcmpun+0x10>
 8001092:	ea50 3c01 	orrs.w	ip, r0, r1, lsl #12
 8001096:	d10a      	bne.n	80010ae <__aeabi_dcmpun+0x26>
 8001098:	ea4f 0c43 	mov.w	ip, r3, lsl #1
 800109c:	ea7f 5c6c 	mvns.w	ip, ip, asr #21
 80010a0:	d102      	bne.n	80010a8 <__aeabi_dcmpun+0x20>
 80010a2:	ea52 3c03 	orrs.w	ip, r2, r3, lsl #12
 80010a6:	d102      	bne.n	80010ae <__aeabi_dcmpun+0x26>
 80010a8:	f04f 0000 	mov.w	r0, #0
 80010ac:	4770      	bx	lr
 80010ae:	f04f 0001 	mov.w	r0, #1
 80010b2:	4770      	bx	lr

080010b4 <__aeabi_d2iz>:
 80010b4:	ea4f 0241 	mov.w	r2, r1, lsl #1
 80010b8:	f512 1200 	adds.w	r2, r2, #2097152	; 0x200000
 80010bc:	d215      	bcs.n	80010ea <__aeabi_d2iz+0x36>
 80010be:	d511      	bpl.n	80010e4 <__aeabi_d2iz+0x30>
 80010c0:	f46f 7378 	mvn.w	r3, #992	; 0x3e0
 80010c4:	ebb3 5262 	subs.w	r2, r3, r2, asr #21
 80010c8:	d912      	bls.n	80010f0 <__aeabi_d2iz+0x3c>
 80010ca:	ea4f 23c1 	mov.w	r3, r1, lsl #11
 80010ce:	f043 4300 	orr.w	r3, r3, #2147483648	; 0x80000000
 80010d2:	ea43 5350 	orr.w	r3, r3, r0, lsr #21
 80010d6:	f011 4f00 	tst.w	r1, #2147483648	; 0x80000000
 80010da:	fa23 f002 	lsr.w	r0, r3, r2
 80010de:	bf18      	it	ne
 80010e0:	4240      	negne	r0, r0
 80010e2:	4770      	bx	lr
 80010e4:	f04f 0000 	mov.w	r0, #0
 80010e8:	4770      	bx	lr
 80010ea:	ea50 3001 	orrs.w	r0, r0, r1, lsl #12
 80010ee:	d105      	bne.n	80010fc <__aeabi_d2iz+0x48>
 80010f0:	f011 4000 	ands.w	r0, r1, #2147483648	; 0x80000000
 80010f4:	bf08      	it	eq
 80010f6:	f06f 4000 	mvneq.w	r0, #2147483648	; 0x80000000
 80010fa:	4770      	bx	lr
 80010fc:	f04f 0000 	mov.w	r0, #0
 8001100:	4770      	bx	lr
 8001102:	bf00      	nop

08001104 <HAL_Init>:
 8001104:	b580      	push	{r7, lr}
 8001106:	466f      	mov	r7, sp
 8001108:	2003      	movs	r0, #3
 800110a:	f000 f819 	bl	8001140 <HAL_NVIC_SetPriorityGrouping>
 800110e:	200f      	movs	r0, #15
 8001110:	f000 fb84 	bl	800181c <HAL_InitTick>
 8001114:	2800      	cmp	r0, #0
 8001116:	bf1c      	itt	ne
 8001118:	2001      	movne	r0, #1
 800111a:	bd80      	popne	{r7, pc}
 800111c:	f000 f94b 	bl	80013b6 <HAL_MspInit>
 8001120:	2000      	movs	r0, #0
 8001122:	bd80      	pop	{r7, pc}

08001124 <HAL_IncTick>:
 8001124:	f640 20e0 	movw	r0, #2784	; 0xae0
 8001128:	f2c2 0000 	movt	r0, #8192	; 0x2000
 800112c:	6801      	ldr	r1, [r0, #0]
 800112e:	3101      	adds	r1, #1
 8001130:	6001      	str	r1, [r0, #0]
 8001132:	4770      	bx	lr

08001134 <HAL_GetTick>:
 8001134:	f640 20e0 	movw	r0, #2784	; 0xae0
 8001138:	f2c2 0000 	movt	r0, #8192	; 0x2000
 800113c:	6800      	ldr	r0, [r0, #0]
 800113e:	4770      	bx	lr

08001140 <HAL_NVIC_SetPriorityGrouping>:
 8001140:	f64e 510c 	movw	r1, #60684	; 0xed0c
 8001144:	f64f 03ff 	movw	r3, #63743	; 0xf8ff
 8001148:	f2ce 0100 	movt	r1, #57344	; 0xe000
 800114c:	680a      	ldr	r2, [r1, #0]
 800114e:	401a      	ands	r2, r3
 8001150:	f360 220a 	bfi	r2, r0, #8, #3
 8001154:	f042 6080 	orr.w	r0, r2, #67108864	; 0x4000000
 8001158:	f040 70fd 	orr.w	r0, r0, #33161216	; 0x1fa0000
 800115c:	6008      	str	r0, [r1, #0]
 800115e:	4770      	bx	lr

08001160 <HAL_NVIC_SetPriority>:
 8001160:	b580      	push	{r7, lr}
 8001162:	466f      	mov	r7, sp
 8001164:	f100 4360 	add.w	r3, r0, #3758096384	; 0xe0000000
 8001168:	f64e 5e0c 	movw	lr, #60684	; 0xed0c
 800116c:	2800      	cmp	r0, #0
 800116e:	f503 4c64 	add.w	ip, r3, #58368	; 0xe400
 8001172:	f000 030f 	and.w	r3, r0, #15
 8001176:	f2ce 0e00 	movt	lr, #57344	; 0xe000
 800117a:	f1a3 0304 	sub.w	r3, r3, #4
 800117e:	4473      	add	r3, lr
 8001180:	bfb8      	it	lt
 8001182:	f103 0c0c 	addlt.w	ip, r3, #12
 8001186:	f8de 0000 	ldr.w	r0, [lr]
 800118a:	f3c0 2002 	ubfx	r0, r0, #8, #3
 800118e:	f100 0e04 	add.w	lr, r0, #4
 8001192:	1ec3      	subs	r3, r0, #3
 8001194:	f080 0007 	eor.w	r0, r0, #7
 8001198:	f1be 0f07 	cmp.w	lr, #7
 800119c:	f04f 0e01 	mov.w	lr, #1
 80011a0:	bf38      	it	cc
 80011a2:	2300      	movcc	r3, #0
 80011a4:	2804      	cmp	r0, #4
 80011a6:	bf28      	it	cs
 80011a8:	2004      	movcs	r0, #4
 80011aa:	fa0e f000 	lsl.w	r0, lr, r0
 80011ae:	3801      	subs	r0, #1
 80011b0:	4008      	ands	r0, r1
 80011b2:	fa0e f103 	lsl.w	r1, lr, r3
 80011b6:	310f      	adds	r1, #15
 80011b8:	4098      	lsls	r0, r3
 80011ba:	4011      	ands	r1, r2
 80011bc:	4308      	orrs	r0, r1
 80011be:	0100      	lsls	r0, r0, #4
 80011c0:	f88c 0000 	strb.w	r0, [ip]
 80011c4:	bd80      	pop	{r7, pc}

080011c6 <HAL_NVIC_EnableIRQ>:
 80011c6:	f000 011f 	and.w	r1, r0, #31
 80011ca:	2201      	movs	r2, #1
 80011cc:	0940      	lsrs	r0, r0, #5
 80011ce:	fa02 f101 	lsl.w	r1, r2, r1
 80011d2:	f24e 1200 	movw	r2, #57600	; 0xe100
 80011d6:	f2ce 0200 	movt	r2, #57344	; 0xe000
 80011da:	f842 1020 	str.w	r1, [r2, r0, lsl #2]
 80011de:	4770      	bx	lr

080011e0 <HAL_SYSTICK_IRQHandler>:
 80011e0:	f000 b800 	b.w	80011e4 <HAL_SYSTICK_Callback>

080011e4 <HAL_SYSTICK_Callback>:
 80011e4:	4770      	bx	lr

080011e6 <HAL_GPIO_Init>:
 80011e6:	b5f0      	push	{r4, r5, r6, r7, lr}
 80011e8:	af03      	add	r7, sp, #12
 80011ea:	e92d 0f00 	stmdb	sp!, {r8, r9, sl, fp}
 80011ee:	b082      	sub	sp, #8
 80011f0:	680e      	ldr	r6, [r1, #0]
 80011f2:	2e00      	cmp	r6, #0
 80011f4:	f000 80db 	beq.w	80013ae <HAL_GPIO_Init+0x1c8>
 80011f8:	f641 0200 	movw	r2, #6144	; 0x1800
 80011fc:	2507      	movs	r5, #7
 80011fe:	f04f 0801 	mov.w	r8, #1
 8001202:	f6c4 0200 	movt	r2, #18432	; 0x4800
 8001206:	4290      	cmp	r0, r2
 8001208:	f100 4238 	add.w	r2, r0, #3087007744	; 0xb8000000
 800120c:	ea4f 23b2 	mov.w	r3, r2, ror #10
 8001210:	bf08      	it	eq
 8001212:	2506      	moveq	r5, #6
 8001214:	2b06      	cmp	r3, #6
 8001216:	bf38      	it	cc
 8001218:	ea4f 25b2 	movcc.w	r5, r2, ror #10
 800121c:	2200      	movs	r2, #0
 800121e:	9500      	str	r5, [sp, #0]
 8001220:	2500      	movs	r5, #0
 8001222:	f1a8 0a01 	sub.w	sl, r8, #1
 8001226:	2301      	movs	r3, #1
 8001228:	fa03 fb0a 	lsl.w	fp, r3, sl
 800122c:	ea16 090b 	ands.w	r9, r6, fp
 8001230:	f000 80b4 	beq.w	800139c <HAL_GPIO_Init+0x1b6>
 8001234:	f8d1 e004 	ldr.w	lr, [r1, #4]
 8001238:	f04e 0610 	orr.w	r6, lr, #16
 800123c:	2e12      	cmp	r6, #18
 800123e:	d115      	bne.n	800126c <HAL_GPIO_Init+0x86>
 8001240:	f005 061c 	and.w	r6, r5, #28
 8001244:	230f      	movs	r3, #15
 8001246:	fa03 fc06 	lsl.w	ip, r3, r6
 800124a:	f64f 73fc 	movw	r3, #65532	; 0xfffc
 800124e:	f6c7 73ff 	movt	r3, #32767	; 0x7fff
 8001252:	ea03 045a 	and.w	r4, r3, sl, lsr #1
 8001256:	4404      	add	r4, r0
 8001258:	6a23      	ldr	r3, [r4, #32]
 800125a:	ea23 0c0c 	bic.w	ip, r3, ip
 800125e:	690b      	ldr	r3, [r1, #16]
 8001260:	40b3      	lsls	r3, r6
 8001262:	ea43 030c 	orr.w	r3, r3, ip
 8001266:	6223      	str	r3, [r4, #32]
 8001268:	f8d1 e004 	ldr.w	lr, [r1, #4]
 800126c:	6806      	ldr	r6, [r0, #0]
 800126e:	2403      	movs	r4, #3
 8001270:	f00e 0c03 	and.w	ip, lr, #3
 8001274:	f1be 0f12 	cmp.w	lr, #18
 8001278:	fa04 f402 	lsl.w	r4, r4, r2
 800127c:	fa0c f302 	lsl.w	r3, ip, r2
 8001280:	ea26 0604 	bic.w	r6, r6, r4
 8001284:	ea43 0306 	orr.w	r3, r3, r6
 8001288:	ea6f 0604 	mvn.w	r6, r4
 800128c:	6003      	str	r3, [r0, #0]
 800128e:	d816      	bhi.n	80012be <HAL_GPIO_Init+0xd8>
 8001290:	2301      	movs	r3, #1
 8001292:	fa03 f30e 	lsl.w	r3, r3, lr
 8001296:	f013 1f06 	tst.w	r3, #393222	; 0x60006
 800129a:	bf1f      	itttt	ne
 800129c:	6883      	ldrne	r3, [r0, #8]
 800129e:	4033      	andne	r3, r6
 80012a0:	68cc      	ldrne	r4, [r1, #12]
 80012a2:	4094      	lslne	r4, r2
 80012a4:	bf1f      	itttt	ne
 80012a6:	4323      	orrne	r3, r4
 80012a8:	6083      	strne	r3, [r0, #8]
 80012aa:	f3ce 1300 	ubfxne	r3, lr, #4, #1
 80012ae:	fa03 f30a 	lslne.w	r3, r3, sl
 80012b2:	bf1f      	itttt	ne
 80012b4:	6844      	ldrne	r4, [r0, #4]
 80012b6:	ea24 040b 	bicne.w	r4, r4, fp
 80012ba:	4323      	orrne	r3, r4
 80012bc:	6043      	strne	r3, [r0, #4]
 80012be:	f1bc 0f03 	cmp.w	ip, #3
 80012c2:	d108      	bne.n	80012d6 <HAL_GPIO_Init+0xf0>
 80012c4:	f3ce 03c0 	ubfx	r3, lr, #3, #1
 80012c8:	6ac4      	ldr	r4, [r0, #44]	; 0x2c
 80012ca:	fa03 f30a 	lsl.w	r3, r3, sl
 80012ce:	ea24 040b 	bic.w	r4, r4, fp
 80012d2:	4323      	orrs	r3, r4
 80012d4:	62c3      	str	r3, [r0, #44]	; 0x2c
 80012d6:	68c3      	ldr	r3, [r0, #12]
 80012d8:	4033      	ands	r3, r6
 80012da:	688e      	ldr	r6, [r1, #8]
 80012dc:	4096      	lsls	r6, r2
 80012de:	4333      	orrs	r3, r6
 80012e0:	60c3      	str	r3, [r0, #12]
 80012e2:	ea5f 03ce 	movs.w	r3, lr, lsl #3
 80012e6:	d559      	bpl.n	800139c <HAL_GPIO_Init+0x1b6>
 80012e8:	f241 0360 	movw	r3, #4192	; 0x1060
 80012ec:	f005 040c 	and.w	r4, r5, #12
 80012f0:	f2c4 0302 	movt	r3, #16386	; 0x4002
 80012f4:	461e      	mov	r6, r3
 80012f6:	6833      	ldr	r3, [r6, #0]
 80012f8:	f043 0301 	orr.w	r3, r3, #1
 80012fc:	6033      	str	r3, [r6, #0]
 80012fe:	6833      	ldr	r3, [r6, #0]
 8001300:	f240 4600 	movw	r6, #1024	; 0x400
 8001304:	f2c4 0601 	movt	r6, #16385	; 0x4001
 8001308:	46b6      	mov	lr, r6
 800130a:	f003 0301 	and.w	r3, r3, #1
 800130e:	9301      	str	r3, [sp, #4]
 8001310:	f02a 0303 	bic.w	r3, sl, #3
 8001314:	9e01      	ldr	r6, [sp, #4]
 8001316:	4473      	add	r3, lr
 8001318:	f64f 4608 	movw	r6, #64520	; 0xfc08
 800131c:	f6cf 76ff 	movt	r6, #65535	; 0xffff
 8001320:	46b2      	mov	sl, r6
 8001322:	260f      	movs	r6, #15
 8001324:	f853 c00a 	ldr.w	ip, [r3, sl]
 8001328:	40a6      	lsls	r6, r4
 800132a:	ea2c 0c06 	bic.w	ip, ip, r6
 800132e:	9e00      	ldr	r6, [sp, #0]
 8001330:	fa06 f404 	lsl.w	r4, r6, r4
 8001334:	ea4c 0604 	orr.w	r6, ip, r4
 8001338:	f843 600a 	str.w	r6, [r3, sl]
 800133c:	f8de 3000 	ldr.w	r3, [lr]
 8001340:	684e      	ldr	r6, [r1, #4]
 8001342:	ea23 0309 	bic.w	r3, r3, r9
 8001346:	f416 3f80 	tst.w	r6, #65536	; 0x10000
 800134a:	bf18      	it	ne
 800134c:	ea43 0309 	orrne.w	r3, r3, r9
 8001350:	f416 3f00 	tst.w	r6, #131072	; 0x20000
 8001354:	f8ce 3000 	str.w	r3, [lr]
 8001358:	f8de 3004 	ldr.w	r3, [lr, #4]
 800135c:	ea23 0309 	bic.w	r3, r3, r9
 8001360:	bf18      	it	ne
 8001362:	ea43 0309 	orrne.w	r3, r3, r9
 8001366:	f416 1f80 	tst.w	r6, #1048576	; 0x100000
 800136a:	f8ce 3004 	str.w	r3, [lr, #4]
 800136e:	f8de 3008 	ldr.w	r3, [lr, #8]
 8001372:	ea23 0309 	bic.w	r3, r3, r9
 8001376:	bf18      	it	ne
 8001378:	ea43 0309 	orrne.w	r3, r3, r9
 800137c:	f416 1f00 	tst.w	r6, #2097152	; 0x200000
 8001380:	f8ce 3008 	str.w	r3, [lr, #8]
 8001384:	f240 430c 	movw	r3, #1036	; 0x40c
 8001388:	f2c4 0301 	movt	r3, #16385	; 0x4001
 800138c:	461c      	mov	r4, r3
 800138e:	6823      	ldr	r3, [r4, #0]
 8001390:	ea23 0309 	bic.w	r3, r3, r9
 8001394:	bf18      	it	ne
 8001396:	ea43 0309 	orrne.w	r3, r3, r9
 800139a:	6023      	str	r3, [r4, #0]
 800139c:	680e      	ldr	r6, [r1, #0]
 800139e:	3202      	adds	r2, #2
 80013a0:	3504      	adds	r5, #4
 80013a2:	fa36 f308 	lsrs.w	r3, r6, r8
 80013a6:	f108 0801 	add.w	r8, r8, #1
 80013aa:	f47f af3a 	bne.w	8001222 <HAL_GPIO_Init+0x3c>
 80013ae:	b002      	add	sp, #8
 80013b0:	e8bd 0f00 	ldmia.w	sp!, {r8, r9, sl, fp}
 80013b4:	bdf0      	pop	{r4, r5, r6, r7, pc}

080013b6 <HAL_MspInit>:
 80013b6:	4770      	bx	lr

080013b8 <HAL_RCC_GetSysClockFreq>:
 80013b8:	b580      	push	{r7, lr}
 80013ba:	466f      	mov	r7, sp
 80013bc:	f241 010c 	movw	r1, #4108	; 0x100c
 80013c0:	f241 2e00 	movw	lr, #4608	; 0x1200
 80013c4:	f242 4c00 	movw	ip, #9216	; 0x2400
 80013c8:	f2c4 0102 	movt	r1, #16386	; 0x4002
 80013cc:	f2c0 0e7a 	movt	lr, #122	; 0x7a
 80013d0:	f2c0 0cf4 	movt	ip, #244	; 0xf4
 80013d4:	f851 2c04 	ldr.w	r2, [r1, #-4]
 80013d8:	6808      	ldr	r0, [r1, #0]
 80013da:	f012 030c 	ands.w	r3, r2, #12
 80013de:	d005      	beq.n	80013ec <HAL_RCC_GetSysClockFreq+0x34>
 80013e0:	2b0c      	cmp	r3, #12
 80013e2:	bf04      	itt	eq
 80013e4:	f000 0003 	andeq.w	r0, r0, #3
 80013e8:	2801      	cmpeq	r0, #1
 80013ea:	d118      	bne.n	800141e <HAL_RCC_GetSysClockFreq+0x66>
 80013ec:	f851 0c0c 	ldr.w	r0, [r1, #-12]
 80013f0:	f010 0f08 	tst.w	r0, #8
 80013f4:	d103      	bne.n	80013fe <HAL_RCC_GetSysClockFreq+0x46>
 80013f6:	f8d1 0088 	ldr.w	r0, [r1, #136]	; 0x88
 80013fa:	0a00      	lsrs	r0, r0, #8
 80013fc:	e002      	b.n	8001404 <HAL_RCC_GetSysClockFreq+0x4c>
 80013fe:	f851 0c0c 	ldr.w	r0, [r1, #-12]
 8001402:	0900      	lsrs	r0, r0, #4
 8001404:	f647 22f8 	movw	r2, #31480	; 0x7af8
 8001408:	f000 000f 	and.w	r0, r0, #15
 800140c:	2b00      	cmp	r3, #0
 800140e:	f6c0 0200 	movt	r2, #2048	; 0x800
 8001412:	f852 2020 	ldr.w	r2, [r2, r0, lsl #2]
 8001416:	4610      	mov	r0, r2
 8001418:	bf18      	it	ne
 800141a:	2000      	movne	r0, #0
 800141c:	e00b      	b.n	8001436 <HAL_RCC_GetSysClockFreq+0x7e>
 800141e:	f003 000f 	and.w	r0, r3, #15
 8001422:	2804      	cmp	r0, #4
 8001424:	bf04      	itt	eq
 8001426:	4660      	moveq	r0, ip
 8001428:	bd80      	popeq	{r7, pc}
 800142a:	2808      	cmp	r0, #8
 800142c:	bf04      	itt	eq
 800142e:	4670      	moveq	r0, lr
 8001430:	bd80      	popeq	{r7, pc}
 8001432:	2000      	movs	r0, #0
 8001434:	2200      	movs	r2, #0
 8001436:	2b0c      	cmp	r3, #12
 8001438:	bf18      	it	ne
 800143a:	bd80      	popne	{r7, pc}
 800143c:	6808      	ldr	r0, [r1, #0]
 800143e:	f000 0303 	and.w	r3, r0, #3
 8001442:	6808      	ldr	r0, [r1, #0]
 8001444:	2b03      	cmp	r3, #3
 8001446:	f3c0 1002 	ubfx	r0, r0, #4, #3
 800144a:	f100 0001 	add.w	r0, r0, #1
 800144e:	d003      	beq.n	8001458 <HAL_RCC_GetSysClockFreq+0xa0>
 8001450:	2b02      	cmp	r3, #2
 8001452:	46e6      	mov	lr, ip
 8001454:	bf18      	it	ne
 8001456:	4696      	movne	lr, r2
 8001458:	680a      	ldr	r2, [r1, #0]
 800145a:	fbbe f0f0 	udiv	r0, lr, r0
 800145e:	f3c2 2206 	ubfx	r2, r2, #8, #7
 8001462:	6809      	ldr	r1, [r1, #0]
 8001464:	4350      	muls	r0, r2
 8001466:	2202      	movs	r2, #2
 8001468:	f3c1 6141 	ubfx	r1, r1, #25, #2
 800146c:	eb02 0141 	add.w	r1, r2, r1, lsl #1
 8001470:	fbb0 f0f1 	udiv	r0, r0, r1
 8001474:	bd80      	pop	{r7, pc}

08001476 <HAL_RCC_GetPCLK1Freq>:
 8001476:	f240 0054 	movw	r0, #84	; 0x54
 800147a:	f241 0108 	movw	r1, #4104	; 0x1008
 800147e:	f647 22f0 	movw	r2, #31472	; 0x7af0
 8001482:	f2c2 0000 	movt	r0, #8192	; 0x2000
 8001486:	f2c4 0102 	movt	r1, #16386	; 0x4002
 800148a:	f6c0 0200 	movt	r2, #2048	; 0x800
 800148e:	6800      	ldr	r0, [r0, #0]
 8001490:	6809      	ldr	r1, [r1, #0]
 8001492:	f3c1 2102 	ubfx	r1, r1, #8, #3
 8001496:	5c51      	ldrb	r1, [r2, r1]
 8001498:	f001 011f 	and.w	r1, r1, #31
 800149c:	40c8      	lsrs	r0, r1
 800149e:	4770      	bx	lr

080014a0 <HAL_RCC_GetPCLK2Freq>:
 80014a0:	f240 0054 	movw	r0, #84	; 0x54
 80014a4:	f241 0108 	movw	r1, #4104	; 0x1008
 80014a8:	f647 22f0 	movw	r2, #31472	; 0x7af0
 80014ac:	f2c2 0000 	movt	r0, #8192	; 0x2000
 80014b0:	f2c4 0102 	movt	r1, #16386	; 0x4002
 80014b4:	f6c0 0200 	movt	r2, #2048	; 0x800
 80014b8:	6800      	ldr	r0, [r0, #0]
 80014ba:	6809      	ldr	r1, [r1, #0]
 80014bc:	f3c1 21c2 	ubfx	r1, r1, #11, #3
 80014c0:	5c51      	ldrb	r1, [r2, r1]
 80014c2:	f001 011f 	and.w	r1, r1, #31
 80014c6:	40c8      	lsrs	r0, r1
 80014c8:	4770      	bx	lr

080014ca <HAL_RCC_GetClockConfig>:
 80014ca:	220f      	movs	r2, #15
 80014cc:	6002      	str	r2, [r0, #0]
 80014ce:	f241 0208 	movw	r2, #4104	; 0x1008
 80014d2:	f2c4 0202 	movt	r2, #16386	; 0x4002
 80014d6:	6813      	ldr	r3, [r2, #0]
 80014d8:	f003 0303 	and.w	r3, r3, #3
 80014dc:	6043      	str	r3, [r0, #4]
 80014de:	6813      	ldr	r3, [r2, #0]
 80014e0:	f003 03f0 	and.w	r3, r3, #240	; 0xf0
 80014e4:	6083      	str	r3, [r0, #8]
 80014e6:	6813      	ldr	r3, [r2, #0]
 80014e8:	f403 63e0 	and.w	r3, r3, #1792	; 0x700
 80014ec:	60c3      	str	r3, [r0, #12]
 80014ee:	f44f 63e0 	mov.w	r3, #1792	; 0x700
 80014f2:	6812      	ldr	r2, [r2, #0]
 80014f4:	ea03 02d2 	and.w	r2, r3, r2, lsr #3
 80014f8:	6102      	str	r2, [r0, #16]
 80014fa:	f242 0000 	movw	r0, #8192	; 0x2000
 80014fe:	f2c4 0002 	movt	r0, #16386	; 0x4002
 8001502:	6800      	ldr	r0, [r0, #0]
 8001504:	f000 0007 	and.w	r0, r0, #7
 8001508:	6008      	str	r0, [r1, #0]
 800150a:	4770      	bx	lr

0800150c <HAL_TIM_Base_Init>:
 800150c:	b5d0      	push	{r4, r6, r7, lr}
 800150e:	af02      	add	r7, sp, #8
 8001510:	4604      	mov	r4, r0
 8001512:	2c00      	cmp	r4, #0
 8001514:	bf04      	itt	eq
 8001516:	2001      	moveq	r0, #1
 8001518:	bdd0      	popeq	{r4, r6, r7, pc}
 800151a:	6c20      	ldr	r0, [r4, #64]	; 0x40
 800151c:	b920      	cbnz	r0, 8001528 <HAL_TIM_Base_Init+0x1c>
 800151e:	2000      	movs	r0, #0
 8001520:	63e0      	str	r0, [r4, #60]	; 0x3c
 8001522:	4620      	mov	r0, r4
 8001524:	f000 f892 	bl	800164c <HAL_TIM_Base_MspInit>
 8001528:	2002      	movs	r0, #2
 800152a:	f640 32ff 	movw	r2, #3071	; 0xbff
 800152e:	6420      	str	r0, [r4, #64]	; 0x40
 8001530:	f2c4 0200 	movt	r2, #16384	; 0x4000
 8001534:	6820      	ldr	r0, [r4, #0]
 8001536:	6801      	ldr	r1, [r0, #0]
 8001538:	4290      	cmp	r0, r2
 800153a:	dc0f      	bgt.n	800155c <HAL_TIM_Base_Init+0x50>
 800153c:	f1b0 4f80 	cmp.w	r0, #1073741824	; 0x40000000
 8001540:	bf1e      	ittt	ne
 8001542:	f240 4200 	movwne	r2, #1024	; 0x400
 8001546:	f2c4 0200 	movtne	r2, #16384	; 0x4000
 800154a:	4290      	cmpne	r0, r2
 800154c:	d018      	beq.n	8001580 <HAL_TIM_Base_Init+0x74>
 800154e:	f640 0200 	movw	r2, #2048	; 0x800
 8001552:	f2c4 0200 	movt	r2, #16384	; 0x4000
 8001556:	4290      	cmp	r0, r2
 8001558:	d012      	beq.n	8001580 <HAL_TIM_Base_Init+0x74>
 800155a:	e015      	b.n	8001588 <HAL_TIM_Base_Init+0x7c>
 800155c:	f640 4200 	movw	r2, #3072	; 0xc00
 8001560:	f2c4 0200 	movt	r2, #16384	; 0x4000
 8001564:	4290      	cmp	r0, r2
 8001566:	bf1e      	ittt	ne
 8001568:	f243 4200 	movwne	r2, #13312	; 0x3400
 800156c:	f2c4 0201 	movtne	r2, #16385	; 0x4001
 8001570:	4290      	cmpne	r0, r2
 8001572:	d005      	beq.n	8001580 <HAL_TIM_Base_Init+0x74>
 8001574:	f642 4200 	movw	r2, #11264	; 0x2c00
 8001578:	f2c4 0201 	movt	r2, #16385	; 0x4001
 800157c:	4290      	cmp	r0, r2
 800157e:	d103      	bne.n	8001588 <HAL_TIM_Base_Init+0x7c>
 8001580:	68a2      	ldr	r2, [r4, #8]
 8001582:	f021 0170 	bic.w	r1, r1, #112	; 0x70
 8001586:	4311      	orrs	r1, r2
 8001588:	f642 32ff 	movw	r2, #11263	; 0x2bff
 800158c:	f2c4 0201 	movt	r2, #16385	; 0x4001
 8001590:	4290      	cmp	r0, r2
 8001592:	dd14      	ble.n	80015be <HAL_TIM_Base_Init+0xb2>
 8001594:	f643 72ff 	movw	r2, #16383	; 0x3fff
 8001598:	f2c4 0201 	movt	r2, #16385	; 0x4001
 800159c:	4290      	cmp	r0, r2
 800159e:	dd1a      	ble.n	80015d6 <HAL_TIM_Base_Init+0xca>
 80015a0:	f244 0200 	movw	r2, #16384	; 0x4000
 80015a4:	f2c4 0201 	movt	r2, #16385	; 0x4001
 80015a8:	4290      	cmp	r0, r2
 80015aa:	bf1e      	ittt	ne
 80015ac:	f644 0200 	movwne	r2, #18432	; 0x4800
 80015b0:	f2c4 0201 	movtne	r2, #16385	; 0x4001
 80015b4:	4290      	cmpne	r0, r2
 80015b6:	d027      	beq.n	8001608 <HAL_TIM_Base_Init+0xfc>
 80015b8:	f244 4200 	movw	r2, #17408	; 0x4400
 80015bc:	e013      	b.n	80015e6 <HAL_TIM_Base_Init+0xda>
 80015be:	f240 72ff 	movw	r2, #2047	; 0x7ff
 80015c2:	f2c4 0200 	movt	r2, #16384	; 0x4000
 80015c6:	4290      	cmp	r0, r2
 80015c8:	dc12      	bgt.n	80015f0 <HAL_TIM_Base_Init+0xe4>
 80015ca:	f1b0 4f80 	cmp.w	r0, #1073741824	; 0x40000000
 80015ce:	d01b      	beq.n	8001608 <HAL_TIM_Base_Init+0xfc>
 80015d0:	f240 4200 	movw	r2, #1024	; 0x400
 80015d4:	e014      	b.n	8001600 <HAL_TIM_Base_Init+0xf4>
 80015d6:	f642 4200 	movw	r2, #11264	; 0x2c00
 80015da:	f2c4 0201 	movt	r2, #16385	; 0x4001
 80015de:	4290      	cmp	r0, r2
 80015e0:	d012      	beq.n	8001608 <HAL_TIM_Base_Init+0xfc>
 80015e2:	f243 4200 	movw	r2, #13312	; 0x3400
 80015e6:	f2c4 0201 	movt	r2, #16385	; 0x4001
 80015ea:	4290      	cmp	r0, r2
 80015ec:	d00c      	beq.n	8001608 <HAL_TIM_Base_Init+0xfc>
 80015ee:	e00f      	b.n	8001610 <HAL_TIM_Base_Init+0x104>
 80015f0:	f640 0200 	movw	r2, #2048	; 0x800
 80015f4:	f2c4 0200 	movt	r2, #16384	; 0x4000
 80015f8:	4290      	cmp	r0, r2
 80015fa:	d005      	beq.n	8001608 <HAL_TIM_Base_Init+0xfc>
 80015fc:	f640 4200 	movw	r2, #3072	; 0xc00
 8001600:	f2c4 0200 	movt	r2, #16384	; 0x4000
 8001604:	4290      	cmp	r0, r2
 8001606:	d103      	bne.n	8001610 <HAL_TIM_Base_Init+0x104>
 8001608:	6922      	ldr	r2, [r4, #16]
 800160a:	f421 7140 	bic.w	r1, r1, #768	; 0x300
 800160e:	4311      	orrs	r1, r2
 8001610:	69a2      	ldr	r2, [r4, #24]
 8001612:	f021 0180 	bic.w	r1, r1, #128	; 0x80
 8001616:	4311      	orrs	r1, r2
 8001618:	6001      	str	r1, [r0, #0]
 800161a:	68e1      	ldr	r1, [r4, #12]
 800161c:	62c1      	str	r1, [r0, #44]	; 0x2c
 800161e:	6861      	ldr	r1, [r4, #4]
 8001620:	6281      	str	r1, [r0, #40]	; 0x28
 8001622:	f1a0 4180 	sub.w	r1, r0, #1073741824	; 0x40000000
 8001626:	f5a1 3196 	sub.w	r1, r1, #76800	; 0x12c00
 800162a:	ea4f 21b1 	mov.w	r1, r1, ror #10
 800162e:	2907      	cmp	r1, #7
 8001630:	d807      	bhi.n	8001642 <HAL_TIM_Base_Init+0x136>
 8001632:	2201      	movs	r2, #1
 8001634:	fa02 f101 	lsl.w	r1, r2, r1
 8001638:	f011 0fe5 	tst.w	r1, #229	; 0xe5
 800163c:	bf1c      	itt	ne
 800163e:	6961      	ldrne	r1, [r4, #20]
 8001640:	6301      	strne	r1, [r0, #48]	; 0x30
 8001642:	2101      	movs	r1, #1
 8001644:	6141      	str	r1, [r0, #20]
 8001646:	2000      	movs	r0, #0
 8001648:	6421      	str	r1, [r4, #64]	; 0x40
 800164a:	bdd0      	pop	{r4, r6, r7, pc}

0800164c <HAL_TIM_Base_MspInit>:
 800164c:	4770      	bx	lr

0800164e <HAL_TIM_Base_Start_IT>:
 800164e:	6800      	ldr	r0, [r0, #0]
 8001650:	68c1      	ldr	r1, [r0, #12]
 8001652:	f041 0101 	orr.w	r1, r1, #1
 8001656:	60c1      	str	r1, [r0, #12]
 8001658:	2107      	movs	r1, #7
 800165a:	6882      	ldr	r2, [r0, #8]
 800165c:	f2c0 0101 	movt	r1, #1
 8001660:	400a      	ands	r2, r1
 8001662:	2a06      	cmp	r2, #6
 8001664:	d008      	beq.n	8001678 <HAL_TIM_Base_Start_IT+0x2a>
 8001666:	6882      	ldr	r2, [r0, #8]
 8001668:	4011      	ands	r1, r2
 800166a:	f5b1 3f80 	cmp.w	r1, #65536	; 0x10000
 800166e:	bf1e      	ittt	ne
 8001670:	6801      	ldrne	r1, [r0, #0]
 8001672:	f041 0101 	orrne.w	r1, r1, #1
 8001676:	6001      	strne	r1, [r0, #0]
 8001678:	2000      	movs	r0, #0
 800167a:	4770      	bx	lr

0800167c <HAL_TIM_IRQHandler>:
 800167c:	b5d0      	push	{r4, r6, r7, lr}
 800167e:	af02      	add	r7, sp, #8
 8001680:	4604      	mov	r4, r0
 8001682:	6820      	ldr	r0, [r4, #0]
 8001684:	6901      	ldr	r1, [r0, #16]
 8001686:	f011 0f02 	tst.w	r1, #2
 800168a:	bf1c      	itt	ne
 800168c:	68c1      	ldrne	r1, [r0, #12]
 800168e:	f011 0f02 	tstne.w	r1, #2
 8001692:	d015      	beq.n	80016c0 <HAL_TIM_IRQHandler+0x44>
 8001694:	f06f 0102 	mvn.w	r1, #2
 8001698:	6101      	str	r1, [r0, #16]
 800169a:	2101      	movs	r1, #1
 800169c:	61e1      	str	r1, [r4, #28]
 800169e:	6980      	ldr	r0, [r0, #24]
 80016a0:	f010 0f03 	tst.w	r0, #3
 80016a4:	d003      	beq.n	80016ae <HAL_TIM_IRQHandler+0x32>
 80016a6:	4620      	mov	r0, r4
 80016a8:	f000 f8b1 	bl	800180e <HAL_TIM_IC_CaptureCallback>
 80016ac:	e005      	b.n	80016ba <HAL_TIM_IRQHandler+0x3e>
 80016ae:	4620      	mov	r0, r4
 80016b0:	f000 f8ae 	bl	8001810 <HAL_TIM_OC_DelayElapsedCallback>
 80016b4:	4620      	mov	r0, r4
 80016b6:	f000 f8ac 	bl	8001812 <HAL_TIM_PWM_PulseFinishedCallback>
 80016ba:	2000      	movs	r0, #0
 80016bc:	61e0      	str	r0, [r4, #28]
 80016be:	6820      	ldr	r0, [r4, #0]
 80016c0:	6901      	ldr	r1, [r0, #16]
 80016c2:	f011 0f04 	tst.w	r1, #4
 80016c6:	bf1c      	itt	ne
 80016c8:	68c1      	ldrne	r1, [r0, #12]
 80016ca:	f011 0f04 	tstne.w	r1, #4
 80016ce:	d015      	beq.n	80016fc <HAL_TIM_IRQHandler+0x80>
 80016d0:	f06f 0104 	mvn.w	r1, #4
 80016d4:	6101      	str	r1, [r0, #16]
 80016d6:	2102      	movs	r1, #2
 80016d8:	61e1      	str	r1, [r4, #28]
 80016da:	6980      	ldr	r0, [r0, #24]
 80016dc:	f410 7f40 	tst.w	r0, #768	; 0x300
 80016e0:	d003      	beq.n	80016ea <HAL_TIM_IRQHandler+0x6e>
 80016e2:	4620      	mov	r0, r4
 80016e4:	f000 f893 	bl	800180e <HAL_TIM_IC_CaptureCallback>
 80016e8:	e005      	b.n	80016f6 <HAL_TIM_IRQHandler+0x7a>
 80016ea:	4620      	mov	r0, r4
 80016ec:	f000 f890 	bl	8001810 <HAL_TIM_OC_DelayElapsedCallback>
 80016f0:	4620      	mov	r0, r4
 80016f2:	f000 f88e 	bl	8001812 <HAL_TIM_PWM_PulseFinishedCallback>
 80016f6:	2000      	movs	r0, #0
 80016f8:	61e0      	str	r0, [r4, #28]
 80016fa:	6820      	ldr	r0, [r4, #0]
 80016fc:	6901      	ldr	r1, [r0, #16]
 80016fe:	f011 0f08 	tst.w	r1, #8
 8001702:	bf1c      	itt	ne
 8001704:	68c1      	ldrne	r1, [r0, #12]
 8001706:	f011 0f08 	tstne.w	r1, #8
 800170a:	d015      	beq.n	8001738 <HAL_TIM_IRQHandler+0xbc>
 800170c:	f06f 0108 	mvn.w	r1, #8
 8001710:	6101      	str	r1, [r0, #16]
 8001712:	2104      	movs	r1, #4
 8001714:	61e1      	str	r1, [r4, #28]
 8001716:	69c0      	ldr	r0, [r0, #28]
 8001718:	f010 0f03 	tst.w	r0, #3
 800171c:	d003      	beq.n	8001726 <HAL_TIM_IRQHandler+0xaa>
 800171e:	4620      	mov	r0, r4
 8001720:	f000 f875 	bl	800180e <HAL_TIM_IC_CaptureCallback>
 8001724:	e005      	b.n	8001732 <HAL_TIM_IRQHandler+0xb6>
 8001726:	4620      	mov	r0, r4
 8001728:	f000 f872 	bl	8001810 <HAL_TIM_OC_DelayElapsedCallback>
 800172c:	4620      	mov	r0, r4
 800172e:	f000 f870 	bl	8001812 <HAL_TIM_PWM_PulseFinishedCallback>
 8001732:	2000      	movs	r0, #0
 8001734:	61e0      	str	r0, [r4, #28]
 8001736:	6820      	ldr	r0, [r4, #0]
 8001738:	6901      	ldr	r1, [r0, #16]
 800173a:	f011 0f10 	tst.w	r1, #16
 800173e:	bf1c      	itt	ne
 8001740:	68c1      	ldrne	r1, [r0, #12]
 8001742:	f011 0f10 	tstne.w	r1, #16
 8001746:	d015      	beq.n	8001774 <HAL_TIM_IRQHandler+0xf8>
 8001748:	f06f 0110 	mvn.w	r1, #16
 800174c:	6101      	str	r1, [r0, #16]
 800174e:	2108      	movs	r1, #8
 8001750:	61e1      	str	r1, [r4, #28]
 8001752:	69c0      	ldr	r0, [r0, #28]
 8001754:	f410 7f40 	tst.w	r0, #768	; 0x300
 8001758:	d003      	beq.n	8001762 <HAL_TIM_IRQHandler+0xe6>
 800175a:	4620      	mov	r0, r4
 800175c:	f000 f857 	bl	800180e <HAL_TIM_IC_CaptureCallback>
 8001760:	e005      	b.n	800176e <HAL_TIM_IRQHandler+0xf2>
 8001762:	4620      	mov	r0, r4
 8001764:	f000 f854 	bl	8001810 <HAL_TIM_OC_DelayElapsedCallback>
 8001768:	4620      	mov	r0, r4
 800176a:	f000 f852 	bl	8001812 <HAL_TIM_PWM_PulseFinishedCallback>
 800176e:	2000      	movs	r0, #0
 8001770:	61e0      	str	r0, [r4, #28]
 8001772:	6820      	ldr	r0, [r4, #0]
 8001774:	6901      	ldr	r1, [r0, #16]
 8001776:	f011 0f01 	tst.w	r1, #1
 800177a:	bf1c      	itt	ne
 800177c:	68c1      	ldrne	r1, [r0, #12]
 800177e:	f011 0f01 	tstne.w	r1, #1
 8001782:	d006      	beq.n	8001792 <HAL_TIM_IRQHandler+0x116>
 8001784:	f06f 0101 	mvn.w	r1, #1
 8001788:	6101      	str	r1, [r0, #16]
 800178a:	4620      	mov	r0, r4
 800178c:	f000 f894 	bl	80018b8 <HAL_TIM_PeriodElapsedCallback>
 8001790:	6820      	ldr	r0, [r4, #0]
 8001792:	6901      	ldr	r1, [r0, #16]
 8001794:	f011 0f80 	tst.w	r1, #128	; 0x80
 8001798:	bf1c      	itt	ne
 800179a:	68c1      	ldrne	r1, [r0, #12]
 800179c:	f011 0f80 	tstne.w	r1, #128	; 0x80
 80017a0:	d006      	beq.n	80017b0 <HAL_TIM_IRQHandler+0x134>
 80017a2:	f06f 0180 	mvn.w	r1, #128	; 0x80
 80017a6:	6101      	str	r1, [r0, #16]
 80017a8:	4620      	mov	r0, r4
 80017aa:	f000 f835 	bl	8001818 <HAL_TIMEx_BreakCallback>
 80017ae:	6820      	ldr	r0, [r4, #0]
 80017b0:	6901      	ldr	r1, [r0, #16]
 80017b2:	f411 7f80 	tst.w	r1, #256	; 0x100
 80017b6:	bf1c      	itt	ne
 80017b8:	68c1      	ldrne	r1, [r0, #12]
 80017ba:	f011 0f80 	tstne.w	r1, #128	; 0x80
 80017be:	d006      	beq.n	80017ce <HAL_TIM_IRQHandler+0x152>
 80017c0:	f46f 7180 	mvn.w	r1, #256	; 0x100
 80017c4:	6101      	str	r1, [r0, #16]
 80017c6:	4620      	mov	r0, r4
 80017c8:	f000 f827 	bl	800181a <HAL_TIMEx_Break2Callback>
 80017cc:	6820      	ldr	r0, [r4, #0]
 80017ce:	6901      	ldr	r1, [r0, #16]
 80017d0:	f011 0f40 	tst.w	r1, #64	; 0x40
 80017d4:	bf1c      	itt	ne
 80017d6:	68c1      	ldrne	r1, [r0, #12]
 80017d8:	f011 0f40 	tstne.w	r1, #64	; 0x40
 80017dc:	d006      	beq.n	80017ec <HAL_TIM_IRQHandler+0x170>
 80017de:	f06f 0140 	mvn.w	r1, #64	; 0x40
 80017e2:	6101      	str	r1, [r0, #16]
 80017e4:	4620      	mov	r0, r4
 80017e6:	f000 f815 	bl	8001814 <HAL_TIM_TriggerCallback>
 80017ea:	6820      	ldr	r0, [r4, #0]
 80017ec:	6901      	ldr	r1, [r0, #16]
 80017ee:	f011 0f20 	tst.w	r1, #32
 80017f2:	bf1c      	itt	ne
 80017f4:	68c1      	ldrne	r1, [r0, #12]
 80017f6:	f011 0f20 	tstne.w	r1, #32
 80017fa:	d100      	bne.n	80017fe <HAL_TIM_IRQHandler+0x182>
 80017fc:	bdd0      	pop	{r4, r6, r7, pc}
 80017fe:	f06f 0120 	mvn.w	r1, #32
 8001802:	6101      	str	r1, [r0, #16]
 8001804:	4620      	mov	r0, r4
 8001806:	e8bd 40d0 	ldmia.w	sp!, {r4, r6, r7, lr}
 800180a:	f000 b804 	b.w	8001816 <HAL_TIMEx_CommutationCallback>

0800180e <HAL_TIM_IC_CaptureCallback>:
 800180e:	4770      	bx	lr

08001810 <HAL_TIM_OC_DelayElapsedCallback>:
 8001810:	4770      	bx	lr

08001812 <HAL_TIM_PWM_PulseFinishedCallback>:
 8001812:	4770      	bx	lr

08001814 <HAL_TIM_TriggerCallback>:
 8001814:	4770      	bx	lr

08001816 <HAL_TIMEx_CommutationCallback>:
 8001816:	4770      	bx	lr

08001818 <HAL_TIMEx_BreakCallback>:
 8001818:	4770      	bx	lr

0800181a <HAL_TIMEx_Break2Callback>:
 800181a:	4770      	bx	lr

0800181c <HAL_InitTick>:
 800181c:	b5b0      	push	{r4, r5, r7, lr}
 800181e:	af02      	add	r7, sp, #8
 8001820:	b086      	sub	sp, #24
 8001822:	4601      	mov	r1, r0
 8001824:	2036      	movs	r0, #54	; 0x36
 8001826:	2200      	movs	r2, #0
 8001828:	2400      	movs	r4, #0
 800182a:	f7ff fc99 	bl	8001160 <HAL_NVIC_SetPriority>
 800182e:	2036      	movs	r0, #54	; 0x36
 8001830:	f7ff fcc9 	bl	80011c6 <HAL_NVIC_EnableIRQ>
 8001834:	f241 0058 	movw	r0, #4184	; 0x1058
 8001838:	f2c4 0002 	movt	r0, #16386	; 0x4002
 800183c:	6801      	ldr	r1, [r0, #0]
 800183e:	f041 0110 	orr.w	r1, r1, #16
 8001842:	6001      	str	r1, [r0, #0]
 8001844:	4669      	mov	r1, sp
 8001846:	6800      	ldr	r0, [r0, #0]
 8001848:	f000 0010 	and.w	r0, r0, #16
 800184c:	9001      	str	r0, [sp, #4]
 800184e:	9801      	ldr	r0, [sp, #4]
 8001850:	a801      	add	r0, sp, #4
 8001852:	f7ff fe3a 	bl	80014ca <HAL_RCC_GetClockConfig>
 8001856:	9d04      	ldr	r5, [sp, #16]
 8001858:	f7ff fe0d 	bl	8001476 <HAL_RCC_GetPCLK1Freq>
 800185c:	2d00      	cmp	r5, #0
 800185e:	f640 21e4 	movw	r1, #2788	; 0xae4
 8001862:	f241 0200 	movw	r2, #4096	; 0x1000
 8001866:	f240 33e7 	movw	r3, #999	; 0x3e7
 800186a:	bf18      	it	ne
 800186c:	2501      	movne	r5, #1
 800186e:	f2c2 0100 	movt	r1, #8192	; 0x2000
 8001872:	f2c4 0200 	movt	r2, #16384	; 0x4000
 8001876:	40a8      	lsls	r0, r5
 8001878:	f64d 6583 	movw	r5, #56963	; 0xde83
 800187c:	618c      	str	r4, [r1, #24]
 800187e:	f2c4 351b 	movt	r5, #17179	; 0x431b
 8001882:	fba0 0505 	umull	r0, r5, r0, r5
 8001886:	f04f 30ff 	mov.w	r0, #4294967295	; 0xffffffff
 800188a:	eb00 4095 	add.w	r0, r0, r5, lsr #18
 800188e:	e9c1 2000 	strd	r2, r0, [r1]
 8001892:	4608      	mov	r0, r1
 8001894:	e9c1 4302 	strd	r4, r3, [r1, #8]
 8001898:	610c      	str	r4, [r1, #16]
 800189a:	f7ff fe37 	bl	800150c <HAL_TIM_Base_Init>
 800189e:	2800      	cmp	r0, #0
 80018a0:	bf1e      	ittt	ne
 80018a2:	2001      	movne	r0, #1
 80018a4:	b006      	addne	sp, #24
 80018a6:	bdb0      	popne	{r4, r5, r7, pc}
 80018a8:	f640 20e4 	movw	r0, #2788	; 0xae4
 80018ac:	f2c2 0000 	movt	r0, #8192	; 0x2000
 80018b0:	f7ff fecd 	bl	800164e <HAL_TIM_Base_Start_IT>
 80018b4:	b006      	add	sp, #24
 80018b6:	bdb0      	pop	{r4, r5, r7, pc}

080018b8 <HAL_TIM_PeriodElapsedCallback>:
 80018b8:	f7ff bc34 	b.w	8001124 <HAL_IncTick>

080018bc <TIM6_DAC_IRQHandler>:
 80018bc:	f640 20e4 	movw	r0, #2788	; 0xae4
 80018c0:	f2c2 0000 	movt	r0, #8192	; 0x2000
 80018c4:	f7ff beda 	b.w	800167c <HAL_TIM_IRQHandler>

080018c8 <HAL_UART_Init>:
 80018c8:	b5d0      	push	{r4, r6, r7, lr}
 80018ca:	af02      	add	r7, sp, #8
 80018cc:	4604      	mov	r4, r0
 80018ce:	b194      	cbz	r4, 80018f6 <HAL_UART_Init+0x2e>
 80018d0:	6f60      	ldr	r0, [r4, #116]	; 0x74
 80018d2:	b920      	cbnz	r0, 80018de <HAL_UART_Init+0x16>
 80018d4:	2000      	movs	r0, #0
 80018d6:	6720      	str	r0, [r4, #112]	; 0x70
 80018d8:	4620      	mov	r0, r4
 80018da:	f000 f826 	bl	800192a <HAL_UART_MspInit>
 80018de:	2024      	movs	r0, #36	; 0x24
 80018e0:	6760      	str	r0, [r4, #116]	; 0x74
 80018e2:	6820      	ldr	r0, [r4, #0]
 80018e4:	6801      	ldr	r1, [r0, #0]
 80018e6:	f021 0101 	bic.w	r1, r1, #1
 80018ea:	6001      	str	r1, [r0, #0]
 80018ec:	4620      	mov	r0, r4
 80018ee:	f000 f81d 	bl	800192c <UART_SetConfig>
 80018f2:	2801      	cmp	r0, #1
 80018f4:	d101      	bne.n	80018fa <HAL_UART_Init+0x32>
 80018f6:	2001      	movs	r0, #1
 80018f8:	bdd0      	pop	{r4, r6, r7, pc}
 80018fa:	6a60      	ldr	r0, [r4, #36]	; 0x24
 80018fc:	2800      	cmp	r0, #0
 80018fe:	bf1c      	itt	ne
 8001900:	4620      	movne	r0, r4
 8001902:	f000 f944 	blne	8001b8e <UART_AdvFeatureConfig>
 8001906:	6820      	ldr	r0, [r4, #0]
 8001908:	6841      	ldr	r1, [r0, #4]
 800190a:	f421 4190 	bic.w	r1, r1, #18432	; 0x4800
 800190e:	6041      	str	r1, [r0, #4]
 8001910:	6881      	ldr	r1, [r0, #8]
 8001912:	f021 012a 	bic.w	r1, r1, #42	; 0x2a
 8001916:	6081      	str	r1, [r0, #8]
 8001918:	6801      	ldr	r1, [r0, #0]
 800191a:	f041 0101 	orr.w	r1, r1, #1
 800191e:	6001      	str	r1, [r0, #0]
 8001920:	4620      	mov	r0, r4
 8001922:	e8bd 40d0 	ldmia.w	sp!, {r4, r6, r7, lr}
 8001926:	f000 b99d 	b.w	8001c64 <UART_CheckIdleState>

0800192a <HAL_UART_MspInit>:
 800192a:	4770      	bx	lr

0800192c <UART_SetConfig>:
 800192c:	b5b0      	push	{r4, r5, r7, lr}
 800192e:	af02      	add	r7, sp, #8
 8001930:	4604      	mov	r4, r0
 8001932:	f646 15f3 	movw	r5, #27123	; 0x69f3
 8001936:	f248 0e00 	movw	lr, #32768	; 0x8000
 800193a:	f241 0c88 	movw	ip, #4232	; 0x1088
 800193e:	6821      	ldr	r1, [r4, #0]
 8001940:	68a0      	ldr	r0, [r4, #8]
 8001942:	e9d4 2304 	ldrd	r2, r3, [r4, #16]
 8001946:	f6ce 75ff 	movt	r5, #61439	; 0xefff
 800194a:	f2c4 0e00 	movt	lr, #16384	; 0x4000
 800194e:	f2c4 0c02 	movt	ip, #16386	; 0x4002
 8001952:	4310      	orrs	r0, r2
 8001954:	69e2      	ldr	r2, [r4, #28]
 8001956:	4571      	cmp	r1, lr
 8001958:	ea40 0003 	orr.w	r0, r0, r3
 800195c:	680b      	ldr	r3, [r1, #0]
 800195e:	ea40 0002 	orr.w	r0, r0, r2
 8001962:	ea03 0305 	and.w	r3, r3, r5
 8001966:	f04f 0510 	mov.w	r5, #16
 800196a:	ea40 0003 	orr.w	r0, r0, r3
 800196e:	6008      	str	r0, [r1, #0]
 8001970:	6848      	ldr	r0, [r1, #4]
 8001972:	68e3      	ldr	r3, [r4, #12]
 8001974:	f420 5040 	bic.w	r0, r0, #12288	; 0x3000
 8001978:	ea40 0003 	orr.w	r0, r0, r3
 800197c:	6048      	str	r0, [r1, #4]
 800197e:	69a0      	ldr	r0, [r4, #24]
 8001980:	bf1c      	itt	ne
 8001982:	6a23      	ldrne	r3, [r4, #32]
 8001984:	4318      	orrne	r0, r3
 8001986:	688b      	ldr	r3, [r1, #8]
 8001988:	f423 6330 	bic.w	r3, r3, #2816	; 0xb00
 800198c:	4318      	orrs	r0, r3
 800198e:	f644 73ff 	movw	r3, #20479	; 0x4fff
 8001992:	6088      	str	r0, [r1, #8]
 8001994:	f242 4000 	movw	r0, #9216	; 0x2400
 8001998:	f2c4 0300 	movt	r3, #16384	; 0x4000
 800199c:	f2c0 00f4 	movt	r0, #244	; 0xf4
 80019a0:	4299      	cmp	r1, r3
 80019a2:	dc15      	bgt.n	80019d0 <UART_SetConfig+0xa4>
 80019a4:	f244 4300 	movw	r3, #17408	; 0x4400
 80019a8:	f2c4 0300 	movt	r3, #16384	; 0x4000
 80019ac:	4299      	cmp	r1, r3
 80019ae:	d024      	beq.n	80019fa <UART_SetConfig+0xce>
 80019b0:	f644 0300 	movw	r3, #18432	; 0x4800
 80019b4:	f2c4 0300 	movt	r3, #16384	; 0x4000
 80019b8:	4299      	cmp	r1, r3
 80019ba:	d022      	beq.n	8001a02 <UART_SetConfig+0xd6>
 80019bc:	f644 4300 	movw	r3, #19456	; 0x4c00
 80019c0:	f2c4 0300 	movt	r3, #16384	; 0x4000
 80019c4:	4299      	cmp	r1, r3
 80019c6:	d131      	bne.n	8001a2c <UART_SetConfig+0x100>
 80019c8:	f8dc 3000 	ldr.w	r3, [ip]
 80019cc:	099d      	lsrs	r5, r3, #6
 80019ce:	e023      	b.n	8001a18 <UART_SetConfig+0xec>
 80019d0:	f245 0300 	movw	r3, #20480	; 0x5000
 80019d4:	f2c4 0300 	movt	r3, #16384	; 0x4000
 80019d8:	4299      	cmp	r1, r3
 80019da:	d016      	beq.n	8001a0a <UART_SetConfig+0xde>
 80019dc:	4571      	cmp	r1, lr
 80019de:	d018      	beq.n	8001a12 <UART_SetConfig+0xe6>
 80019e0:	f643 0300 	movw	r3, #14336	; 0x3800
 80019e4:	f2c4 0301 	movt	r3, #16385	; 0x4001
 80019e8:	4299      	cmp	r1, r3
 80019ea:	d11f      	bne.n	8001a2c <UART_SetConfig+0x100>
 80019ec:	f8dc 5000 	ldr.w	r5, [ip]
 80019f0:	f647 3328 	movw	r3, #31528	; 0x7b28
 80019f4:	f6c0 0300 	movt	r3, #2048	; 0x800
 80019f8:	e012      	b.n	8001a20 <UART_SetConfig+0xf4>
 80019fa:	f8dc 3000 	ldr.w	r3, [ip]
 80019fe:	089d      	lsrs	r5, r3, #2
 8001a00:	e00a      	b.n	8001a18 <UART_SetConfig+0xec>
 8001a02:	f8dc 3000 	ldr.w	r3, [ip]
 8001a06:	091d      	lsrs	r5, r3, #4
 8001a08:	e006      	b.n	8001a18 <UART_SetConfig+0xec>
 8001a0a:	f8dc 3000 	ldr.w	r3, [ip]
 8001a0e:	0a1d      	lsrs	r5, r3, #8
 8001a10:	e002      	b.n	8001a18 <UART_SetConfig+0xec>
 8001a12:	f8dc 3000 	ldr.w	r3, [ip]
 8001a16:	0a9d      	lsrs	r5, r3, #10
 8001a18:	f647 3338 	movw	r3, #31544	; 0x7b38
 8001a1c:	f6c0 0300 	movt	r3, #2048	; 0x800
 8001a20:	f005 0503 	and.w	r5, r5, #3
 8001a24:	f085 0502 	eor.w	r5, r5, #2
 8001a28:	f853 5025 	ldr.w	r5, [r3, r5, lsl #2]
 8001a2c:	4571      	cmp	r1, lr
 8001a2e:	d012      	beq.n	8001a56 <UART_SetConfig+0x12a>
 8001a30:	f5b2 4f00 	cmp.w	r2, #32768	; 0x8000
 8001a34:	d11d      	bne.n	8001a72 <UART_SetConfig+0x146>
 8001a36:	f005 001f 	and.w	r0, r5, #31
 8001a3a:	2101      	movs	r1, #1
 8001a3c:	2808      	cmp	r0, #8
 8001a3e:	f200 809f 	bhi.w	8001b80 <UART_SetConfig+0x254>
 8001a42:	e8df f000 	tbb	[pc, r0]
 8001a46:	4005      	.short	0x4005
 8001a48:	9d499d43 	.word	0x9d499d43
 8001a4c:	004f9d9d 	.word	0x004f9d9d
 8001a50:	f7ff fd11 	bl	8001476 <HAL_RCC_GetPCLK1Freq>
 8001a54:	e042      	b.n	8001adc <UART_SetConfig+0x1b0>
 8001a56:	ea4f 0575 	mov.w	r5, r5, ror #1
 8001a5a:	2101      	movs	r1, #1
 8001a5c:	2d04      	cmp	r5, #4
 8001a5e:	f200 808f 	bhi.w	8001b80 <UART_SetConfig+0x254>
 8001a62:	e8df f005 	tbb	[pc, r5]
 8001a66:	1c03      	.short	0x1c03
 8001a68:	001a8d16 	.word	0x001a8d16
 8001a6c:	f7ff fd03 	bl	8001476 <HAL_RCC_GetPCLK1Freq>
 8001a70:	e011      	b.n	8001a96 <UART_SetConfig+0x16a>
 8001a72:	f005 021f 	and.w	r2, r5, #31
 8001a76:	2101      	movs	r1, #1
 8001a78:	2a08      	cmp	r2, #8
 8001a7a:	f200 8081 	bhi.w	8001b80 <UART_SetConfig+0x254>
 8001a7e:	e8df f002 	tbb	[pc, r2]
 8001a82:	4305      	.short	0x4305
 8001a84:	7f487f46 	.word	0x7f487f46
 8001a88:	004e7f7f 	.word	0x004e7f7f
 8001a8c:	f7ff fcf3 	bl	8001476 <HAL_RCC_GetPCLK1Freq>
 8001a90:	e041      	b.n	8001b16 <UART_SetConfig+0x1ea>
 8001a92:	f7ff fc91 	bl	80013b8 <HAL_RCC_GetSysClockFreq>
 8001a96:	b910      	cbnz	r0, 8001a9e <UART_SetConfig+0x172>
 8001a98:	e071      	b.n	8001b7e <UART_SetConfig+0x252>
 8001a9a:	f44f 4000 	mov.w	r0, #32768	; 0x8000
 8001a9e:	6862      	ldr	r2, [r4, #4]
 8001aa0:	2101      	movs	r1, #1
 8001aa2:	eb02 0342 	add.w	r3, r2, r2, lsl #1
 8001aa6:	4298      	cmp	r0, r3
 8001aa8:	d36a      	bcc.n	8001b80 <UART_SetConfig+0x254>
 8001aaa:	0313      	lsls	r3, r2, #12
 8001aac:	4298      	cmp	r0, r3
 8001aae:	bf9c      	itt	ls
 8001ab0:	2101      	movls	r1, #1
 8001ab2:	2d04      	cmpls	r5, #4
 8001ab4:	d864      	bhi.n	8001b80 <UART_SetConfig+0x254>
 8001ab6:	e8df f005 	tbb	[pc, r5]
 8001aba:	3e03      	.short	0x3e03
 8001abc:	00526345 	.word	0x00526345
 8001ac0:	f7ff fcd9 	bl	8001476 <HAL_RCC_GetPCLK1Freq>
 8001ac4:	e040      	b.n	8001b48 <UART_SetConfig+0x21c>
 8001ac6:	f7ff fceb 	bl	80014a0 <HAL_RCC_GetPCLK2Freq>
 8001aca:	e007      	b.n	8001adc <UART_SetConfig+0x1b0>
 8001acc:	6861      	ldr	r1, [r4, #4]
 8001ace:	f644 0200 	movw	r2, #18432	; 0x4800
 8001ad2:	f2c0 12e8 	movt	r2, #488	; 0x1e8
 8001ad6:	e008      	b.n	8001aea <UART_SetConfig+0x1be>
 8001ad8:	f7ff fc6e 	bl	80013b8 <HAL_RCC_GetSysClockFreq>
 8001adc:	6861      	ldr	r1, [r4, #4]
 8001ade:	0040      	lsls	r0, r0, #1
 8001ae0:	084a      	lsrs	r2, r1, #1
 8001ae2:	e003      	b.n	8001aec <UART_SetConfig+0x1c0>
 8001ae4:	6861      	ldr	r1, [r4, #4]
 8001ae6:	f44f 3280 	mov.w	r2, #65536	; 0x10000
 8001aea:	0848      	lsrs	r0, r1, #1
 8001aec:	4410      	add	r0, r2
 8001aee:	fbb0 f0f1 	udiv	r0, r0, r1
 8001af2:	f64f 71f0 	movw	r1, #65520	; 0xfff0
 8001af6:	4001      	ands	r1, r0
 8001af8:	2910      	cmp	r1, #16
 8001afa:	d303      	bcc.n	8001b04 <UART_SetConfig+0x1d8>
 8001afc:	f3c0 0042 	ubfx	r0, r0, #1, #3
 8001b00:	4308      	orrs	r0, r1
 8001b02:	e03a      	b.n	8001b7a <UART_SetConfig+0x24e>
 8001b04:	2101      	movs	r1, #1
 8001b06:	e03b      	b.n	8001b80 <UART_SetConfig+0x254>
 8001b08:	f7ff fcca 	bl	80014a0 <HAL_RCC_GetPCLK2Freq>
 8001b0c:	e003      	b.n	8001b16 <UART_SetConfig+0x1ea>
 8001b0e:	6862      	ldr	r2, [r4, #4]
 8001b10:	e008      	b.n	8001b24 <UART_SetConfig+0x1f8>
 8001b12:	f7ff fc51 	bl	80013b8 <HAL_RCC_GetSysClockFreq>
 8001b16:	6862      	ldr	r2, [r4, #4]
 8001b18:	4601      	mov	r1, r0
 8001b1a:	0850      	lsrs	r0, r2, #1
 8001b1c:	e003      	b.n	8001b26 <UART_SetConfig+0x1fa>
 8001b1e:	6862      	ldr	r2, [r4, #4]
 8001b20:	f44f 4000 	mov.w	r0, #32768	; 0x8000
 8001b24:	0851      	lsrs	r1, r2, #1
 8001b26:	4408      	add	r0, r1
 8001b28:	fbb0 f0f2 	udiv	r0, r0, r2
 8001b2c:	b280      	uxth	r0, r0
 8001b2e:	2810      	cmp	r0, #16
 8001b30:	d223      	bcs.n	8001b7a <UART_SetConfig+0x24e>
 8001b32:	2101      	movs	r1, #1
 8001b34:	e024      	b.n	8001b80 <UART_SetConfig+0x254>
 8001b36:	2000      	movs	r0, #0
 8001b38:	2100      	movs	r1, #0
 8001b3a:	f2cf 4024 	movt	r0, #62500	; 0xf424
 8001b3e:	eb10 0052 	adds.w	r0, r0, r2, lsr #1
 8001b42:	e006      	b.n	8001b52 <UART_SetConfig+0x226>
 8001b44:	f7ff fc38 	bl	80013b8 <HAL_RCC_GetSysClockFreq>
 8001b48:	6862      	ldr	r2, [r4, #4]
 8001b4a:	0e01      	lsrs	r1, r0, #24
 8001b4c:	0853      	lsrs	r3, r2, #1
 8001b4e:	eb13 2000 	adds.w	r0, r3, r0, lsl #8
 8001b52:	f141 0100 	adc.w	r1, r1, #0
 8001b56:	2300      	movs	r3, #0
 8001b58:	f7fe fb52 	bl	8000200 <__aeabi_uldivmod>
 8001b5c:	e005      	b.n	8001b6a <UART_SetConfig+0x23e>
 8001b5e:	f44f 0000 	mov.w	r0, #8388608	; 0x800000
 8001b62:	eb00 0052 	add.w	r0, r0, r2, lsr #1
 8001b66:	fbb0 f0f2 	udiv	r0, r0, r2
 8001b6a:	f64f 42ff 	movw	r2, #64767	; 0xfcff
 8001b6e:	f5a0 7140 	sub.w	r1, r0, #768	; 0x300
 8001b72:	f2c0 020f 	movt	r2, #15
 8001b76:	4291      	cmp	r1, r2
 8001b78:	d807      	bhi.n	8001b8a <UART_SetConfig+0x25e>
 8001b7a:	6821      	ldr	r1, [r4, #0]
 8001b7c:	60c8      	str	r0, [r1, #12]
 8001b7e:	2100      	movs	r1, #0
 8001b80:	2000      	movs	r0, #0
 8001b82:	e9c4 0018 	strd	r0, r0, [r4, #96]	; 0x60
 8001b86:	4608      	mov	r0, r1
 8001b88:	bdb0      	pop	{r4, r5, r7, pc}
 8001b8a:	2101      	movs	r1, #1
 8001b8c:	e7f8      	b.n	8001b80 <UART_SetConfig+0x254>

08001b8e <UART_AdvFeatureConfig>:
 8001b8e:	6a41      	ldr	r1, [r0, #36]	; 0x24
 8001b90:	f011 0f01 	tst.w	r1, #1
 8001b94:	d008      	beq.n	8001ba8 <UART_AdvFeatureConfig+0x1a>
 8001b96:	6802      	ldr	r2, [r0, #0]
 8001b98:	6853      	ldr	r3, [r2, #4]
 8001b9a:	f8d0 c028 	ldr.w	ip, [r0, #40]	; 0x28
 8001b9e:	f423 3300 	bic.w	r3, r3, #131072	; 0x20000
 8001ba2:	ea43 030c 	orr.w	r3, r3, ip
 8001ba6:	6053      	str	r3, [r2, #4]
 8001ba8:	078a      	lsls	r2, r1, #30
 8001baa:	d508      	bpl.n	8001bbe <UART_AdvFeatureConfig+0x30>
 8001bac:	6802      	ldr	r2, [r0, #0]
 8001bae:	6853      	ldr	r3, [r2, #4]
 8001bb0:	f8d0 c02c 	ldr.w	ip, [r0, #44]	; 0x2c
 8001bb4:	f423 3380 	bic.w	r3, r3, #65536	; 0x10000
 8001bb8:	ea43 030c 	orr.w	r3, r3, ip
 8001bbc:	6053      	str	r3, [r2, #4]
 8001bbe:	074a      	lsls	r2, r1, #29
 8001bc0:	d508      	bpl.n	8001bd4 <UART_AdvFeatureConfig+0x46>
 8001bc2:	6802      	ldr	r2, [r0, #0]
 8001bc4:	6853      	ldr	r3, [r2, #4]
 8001bc6:	f8d0 c030 	ldr.w	ip, [r0, #48]	; 0x30
 8001bca:	f423 2380 	bic.w	r3, r3, #262144	; 0x40000
 8001bce:	ea43 030c 	orr.w	r3, r3, ip
 8001bd2:	6053      	str	r3, [r2, #4]
 8001bd4:	070a      	lsls	r2, r1, #28
 8001bd6:	d508      	bpl.n	8001bea <UART_AdvFeatureConfig+0x5c>
 8001bd8:	6802      	ldr	r2, [r0, #0]
 8001bda:	6853      	ldr	r3, [r2, #4]
 8001bdc:	f8d0 c034 	ldr.w	ip, [r0, #52]	; 0x34
 8001be0:	f423 4300 	bic.w	r3, r3, #32768	; 0x8000
 8001be4:	ea43 030c 	orr.w	r3, r3, ip
 8001be8:	6053      	str	r3, [r2, #4]
 8001bea:	06ca      	lsls	r2, r1, #27
 8001bec:	d508      	bpl.n	8001c00 <UART_AdvFeatureConfig+0x72>
 8001bee:	6802      	ldr	r2, [r0, #0]
 8001bf0:	6893      	ldr	r3, [r2, #8]
 8001bf2:	f8d0 c038 	ldr.w	ip, [r0, #56]	; 0x38
 8001bf6:	f423 5380 	bic.w	r3, r3, #4096	; 0x1000
 8001bfa:	ea43 030c 	orr.w	r3, r3, ip
 8001bfe:	6093      	str	r3, [r2, #8]
 8001c00:	068a      	lsls	r2, r1, #26
 8001c02:	d508      	bpl.n	8001c16 <UART_AdvFeatureConfig+0x88>
 8001c04:	6802      	ldr	r2, [r0, #0]
 8001c06:	6893      	ldr	r3, [r2, #8]
 8001c08:	f8d0 c03c 	ldr.w	ip, [r0, #60]	; 0x3c
 8001c0c:	f423 5300 	bic.w	r3, r3, #8192	; 0x2000
 8001c10:	ea43 030c 	orr.w	r3, r3, ip
 8001c14:	6093      	str	r3, [r2, #8]
 8001c16:	b580      	push	{r7, lr}
 8001c18:	466f      	mov	r7, sp
 8001c1a:	064a      	lsls	r2, r1, #25
 8001c1c:	d515      	bpl.n	8001c4a <UART_AdvFeatureConfig+0xbc>
 8001c1e:	f8d0 e000 	ldr.w	lr, [r0]
 8001c22:	f8de c004 	ldr.w	ip, [lr, #4]
 8001c26:	6c03      	ldr	r3, [r0, #64]	; 0x40
 8001c28:	f42c 1280 	bic.w	r2, ip, #1048576	; 0x100000
 8001c2c:	f5b3 1f80 	cmp.w	r3, #1048576	; 0x100000
 8001c30:	ea42 0203 	orr.w	r2, r2, r3
 8001c34:	f8ce 2004 	str.w	r2, [lr, #4]
 8001c38:	d107      	bne.n	8001c4a <UART_AdvFeatureConfig+0xbc>
 8001c3a:	f8de 2004 	ldr.w	r2, [lr, #4]
 8001c3e:	6c43      	ldr	r3, [r0, #68]	; 0x44
 8001c40:	f422 02c0 	bic.w	r2, r2, #6291456	; 0x600000
 8001c44:	431a      	orrs	r2, r3
 8001c46:	f8ce 2004 	str.w	r2, [lr, #4]
 8001c4a:	0609      	lsls	r1, r1, #24
 8001c4c:	e8bd 4080 	ldmia.w	sp!, {r7, lr}
 8001c50:	bf58      	it	pl
 8001c52:	4770      	bxpl	lr
 8001c54:	6801      	ldr	r1, [r0, #0]
 8001c56:	684a      	ldr	r2, [r1, #4]
 8001c58:	6c80      	ldr	r0, [r0, #72]	; 0x48
 8001c5a:	f422 2200 	bic.w	r2, r2, #524288	; 0x80000
 8001c5e:	4310      	orrs	r0, r2
 8001c60:	6048      	str	r0, [r1, #4]
 8001c62:	4770      	bx	lr

08001c64 <UART_CheckIdleState>:
 8001c64:	b5f0      	push	{r4, r5, r6, r7, lr}
 8001c66:	af03      	add	r7, sp, #12
 8001c68:	f84d bd04 	str.w	fp, [sp, #-4]!
 8001c6c:	4604      	mov	r4, r0
 8001c6e:	2000      	movs	r0, #0
 8001c70:	67e0      	str	r0, [r4, #124]	; 0x7c
 8001c72:	f7ff fa5f 	bl	8001134 <HAL_GetTick>
 8001c76:	4605      	mov	r5, r0
 8001c78:	6820      	ldr	r0, [r4, #0]
 8001c7a:	6801      	ldr	r1, [r0, #0]
 8001c7c:	f011 0f08 	tst.w	r1, #8
 8001c80:	d00f      	beq.n	8001ca2 <UART_CheckIdleState+0x3e>
 8001c82:	69c1      	ldr	r1, [r0, #28]
 8001c84:	f411 1f00 	tst.w	r1, #2097152	; 0x200000
 8001c88:	d10b      	bne.n	8001ca2 <UART_CheckIdleState+0x3e>
 8001c8a:	2600      	movs	r6, #0
 8001c8c:	f7ff fa52 	bl	8001134 <HAL_GetTick>
 8001c90:	1b41      	subs	r1, r0, r5
 8001c92:	6820      	ldr	r0, [r4, #0]
 8001c94:	ebb6 6f51 	cmp.w	r6, r1, lsr #25
 8001c98:	d11b      	bne.n	8001cd2 <UART_CheckIdleState+0x6e>
 8001c9a:	69c1      	ldr	r1, [r0, #28]
 8001c9c:	f411 1f00 	tst.w	r1, #2097152	; 0x200000
 8001ca0:	d0f4      	beq.n	8001c8c <UART_CheckIdleState+0x28>
 8001ca2:	6801      	ldr	r1, [r0, #0]
 8001ca4:	f011 0f04 	tst.w	r1, #4
 8001ca8:	d101      	bne.n	8001cae <UART_CheckIdleState+0x4a>
 8001caa:	2600      	movs	r6, #0
 8001cac:	e01a      	b.n	8001ce4 <UART_CheckIdleState+0x80>
 8001cae:	69c0      	ldr	r0, [r0, #28]
 8001cb0:	2600      	movs	r6, #0
 8001cb2:	f410 0f80 	tst.w	r0, #4194304	; 0x400000
 8001cb6:	d115      	bne.n	8001ce4 <UART_CheckIdleState+0x80>
 8001cb8:	f7ff fa3c 	bl	8001134 <HAL_GetTick>
 8001cbc:	1b41      	subs	r1, r0, r5
 8001cbe:	6820      	ldr	r0, [r4, #0]
 8001cc0:	ebb6 6f51 	cmp.w	r6, r1, lsr #25
 8001cc4:	d105      	bne.n	8001cd2 <UART_CheckIdleState+0x6e>
 8001cc6:	69c0      	ldr	r0, [r0, #28]
 8001cc8:	f410 0f80 	tst.w	r0, #4194304	; 0x400000
 8001ccc:	d0f4      	beq.n	8001cb8 <UART_CheckIdleState+0x54>
 8001cce:	2600      	movs	r6, #0
 8001cd0:	e008      	b.n	8001ce4 <UART_CheckIdleState+0x80>
 8001cd2:	6801      	ldr	r1, [r0, #0]
 8001cd4:	2603      	movs	r6, #3
 8001cd6:	f421 71d0 	bic.w	r1, r1, #416	; 0x1a0
 8001cda:	6001      	str	r1, [r0, #0]
 8001cdc:	6881      	ldr	r1, [r0, #8]
 8001cde:	f021 0101 	bic.w	r1, r1, #1
 8001ce2:	6081      	str	r1, [r0, #8]
 8001ce4:	2020      	movs	r0, #32
 8001ce6:	6760      	str	r0, [r4, #116]	; 0x74
 8001ce8:	67a0      	str	r0, [r4, #120]	; 0x78
 8001cea:	2000      	movs	r0, #0
 8001cec:	6720      	str	r0, [r4, #112]	; 0x70
 8001cee:	4630      	mov	r0, r6
 8001cf0:	f85d bb04 	ldr.w	fp, [sp], #4
 8001cf4:	bdf0      	pop	{r4, r5, r6, r7, pc}

08001cf6 <HAL_UART_Transmit>:
 8001cf6:	b5f0      	push	{r4, r5, r6, r7, lr}
 8001cf8:	af03      	add	r7, sp, #12
 8001cfa:	e92d 0f00 	stmdb	sp!, {r8, r9, sl, fp}
 8001cfe:	b081      	sub	sp, #4
 8001d00:	4604      	mov	r4, r0
 8001d02:	461d      	mov	r5, r3
 8001d04:	4616      	mov	r6, r2
 8001d06:	4689      	mov	r9, r1
 8001d08:	6f60      	ldr	r0, [r4, #116]	; 0x74
 8001d0a:	2820      	cmp	r0, #32
 8001d0c:	d109      	bne.n	8001d22 <HAL_UART_Transmit+0x2c>
 8001d0e:	f1b9 0f00 	cmp.w	r9, #0
 8001d12:	f04f 0001 	mov.w	r0, #1
 8001d16:	bf18      	it	ne
 8001d18:	2e00      	cmpne	r6, #0
 8001d1a:	d003      	beq.n	8001d24 <HAL_UART_Transmit+0x2e>
 8001d1c:	6f20      	ldr	r0, [r4, #112]	; 0x70
 8001d1e:	2801      	cmp	r0, #1
 8001d20:	d104      	bne.n	8001d2c <HAL_UART_Transmit+0x36>
 8001d22:	2002      	movs	r0, #2
 8001d24:	b001      	add	sp, #4
 8001d26:	e8bd 0f00 	ldmia.w	sp!, {r8, r9, sl, fp}
 8001d2a:	bdf0      	pop	{r4, r5, r6, r7, pc}
 8001d2c:	2001      	movs	r0, #1
 8001d2e:	6720      	str	r0, [r4, #112]	; 0x70
 8001d30:	2000      	movs	r0, #0
 8001d32:	67e0      	str	r0, [r4, #124]	; 0x7c
 8001d34:	2021      	movs	r0, #33	; 0x21
 8001d36:	6760      	str	r0, [r4, #116]	; 0x74
 8001d38:	f7ff f9fc 	bl	8001134 <HAL_GetTick>
 8001d3c:	f8a4 6050 	strh.w	r6, [r4, #80]	; 0x50
 8001d40:	f8a4 6052 	strh.w	r6, [r4, #82]	; 0x52
 8001d44:	4680      	mov	r8, r0
 8001d46:	f8b4 1052 	ldrh.w	r1, [r4, #82]	; 0x52
 8001d4a:	f8d4 b000 	ldr.w	fp, [r4]
 8001d4e:	f8db 001c 	ldr.w	r0, [fp, #28]
 8001d52:	2900      	cmp	r1, #0
 8001d54:	d040      	beq.n	8001dd8 <HAL_UART_Transmit+0xe2>
 8001d56:	f105 0a01 	add.w	sl, r5, #1
 8001d5a:	0600      	lsls	r0, r0, #24
 8001d5c:	d410      	bmi.n	8001d80 <HAL_UART_Transmit+0x8a>
 8001d5e:	465e      	mov	r6, fp
 8001d60:	f1ba 0f00 	cmp.w	sl, #0
 8001d64:	d007      	beq.n	8001d76 <HAL_UART_Transmit+0x80>
 8001d66:	b33d      	cbz	r5, 8001db8 <HAL_UART_Transmit+0xc2>
 8001d68:	f7ff f9e4 	bl	8001134 <HAL_GetTick>
 8001d6c:	6826      	ldr	r6, [r4, #0]
 8001d6e:	eba0 0008 	sub.w	r0, r0, r8
 8001d72:	42a8      	cmp	r0, r5
 8001d74:	d821      	bhi.n	8001dba <HAL_UART_Transmit+0xc4>
 8001d76:	69f0      	ldr	r0, [r6, #28]
 8001d78:	f010 0f80 	tst.w	r0, #128	; 0x80
 8001d7c:	d0f0      	beq.n	8001d60 <HAL_UART_Transmit+0x6a>
 8001d7e:	e000      	b.n	8001d82 <HAL_UART_Transmit+0x8c>
 8001d80:	465e      	mov	r6, fp
 8001d82:	68a0      	ldr	r0, [r4, #8]
 8001d84:	f5b0 5f80 	cmp.w	r0, #4096	; 0x1000
 8001d88:	bf04      	itt	eq
 8001d8a:	6920      	ldreq	r0, [r4, #16]
 8001d8c:	2800      	cmpeq	r0, #0
 8001d8e:	d002      	beq.n	8001d96 <HAL_UART_Transmit+0xa0>
 8001d90:	f819 0b01 	ldrb.w	r0, [r9], #1
 8001d94:	e003      	b.n	8001d9e <HAL_UART_Transmit+0xa8>
 8001d96:	f839 0b02 	ldrh.w	r0, [r9], #2
 8001d9a:	f36f 205f 	bfc	r0, #9, #23
 8001d9e:	8530      	strh	r0, [r6, #40]	; 0x28
 8001da0:	46b3      	mov	fp, r6
 8001da2:	f8b4 0052 	ldrh.w	r0, [r4, #82]	; 0x52
 8001da6:	3801      	subs	r0, #1
 8001da8:	f8a4 0052 	strh.w	r0, [r4, #82]	; 0x52
 8001dac:	f8b4 1052 	ldrh.w	r1, [r4, #82]	; 0x52
 8001db0:	69f0      	ldr	r0, [r6, #28]
 8001db2:	2900      	cmp	r1, #0
 8001db4:	d1d1      	bne.n	8001d5a <HAL_UART_Transmit+0x64>
 8001db6:	e010      	b.n	8001dda <HAL_UART_Transmit+0xe4>
 8001db8:	465e      	mov	r6, fp
 8001dba:	6830      	ldr	r0, [r6, #0]
 8001dbc:	f420 70d0 	bic.w	r0, r0, #416	; 0x1a0
 8001dc0:	6030      	str	r0, [r6, #0]
 8001dc2:	68b0      	ldr	r0, [r6, #8]
 8001dc4:	f020 0001 	bic.w	r0, r0, #1
 8001dc8:	60b0      	str	r0, [r6, #8]
 8001dca:	2020      	movs	r0, #32
 8001dcc:	6760      	str	r0, [r4, #116]	; 0x74
 8001dce:	67a0      	str	r0, [r4, #120]	; 0x78
 8001dd0:	2000      	movs	r0, #0
 8001dd2:	6720      	str	r0, [r4, #112]	; 0x70
 8001dd4:	2003      	movs	r0, #3
 8001dd6:	e7a5      	b.n	8001d24 <HAL_UART_Transmit+0x2e>
 8001dd8:	465e      	mov	r6, fp
 8001dda:	0640      	lsls	r0, r0, #25
 8001ddc:	d411      	bmi.n	8001e02 <HAL_UART_Transmit+0x10c>
 8001dde:	f105 0901 	add.w	r9, r5, #1
 8001de2:	4630      	mov	r0, r6
 8001de4:	f1b9 0f00 	cmp.w	r9, #0
 8001de8:	d007      	beq.n	8001dfa <HAL_UART_Transmit+0x104>
 8001dea:	b17d      	cbz	r5, 8001e0c <HAL_UART_Transmit+0x116>
 8001dec:	f7ff f9a2 	bl	8001134 <HAL_GetTick>
 8001df0:	eba0 0108 	sub.w	r1, r0, r8
 8001df4:	6820      	ldr	r0, [r4, #0]
 8001df6:	42a9      	cmp	r1, r5
 8001df8:	d809      	bhi.n	8001e0e <HAL_UART_Transmit+0x118>
 8001dfa:	69c1      	ldr	r1, [r0, #28]
 8001dfc:	f011 0f40 	tst.w	r1, #64	; 0x40
 8001e00:	d0f0      	beq.n	8001de4 <HAL_UART_Transmit+0xee>
 8001e02:	2020      	movs	r0, #32
 8001e04:	6760      	str	r0, [r4, #116]	; 0x74
 8001e06:	2000      	movs	r0, #0
 8001e08:	6720      	str	r0, [r4, #112]	; 0x70
 8001e0a:	e78b      	b.n	8001d24 <HAL_UART_Transmit+0x2e>
 8001e0c:	4630      	mov	r0, r6
 8001e0e:	6801      	ldr	r1, [r0, #0]
 8001e10:	f421 71d0 	bic.w	r1, r1, #416	; 0x1a0
 8001e14:	6001      	str	r1, [r0, #0]
 8001e16:	6881      	ldr	r1, [r0, #8]
 8001e18:	f021 0101 	bic.w	r1, r1, #1
 8001e1c:	6081      	str	r1, [r0, #8]
 8001e1e:	e7d4      	b.n	8001dca <HAL_UART_Transmit+0xd4>

08001e20 <BSP_COM_Init>:
 8001e20:	b5f0      	push	{r4, r5, r6, r7, lr}
 8001e22:	af03      	add	r7, sp, #12
 8001e24:	e92d 0b00 	stmdb	sp!, {r8, r9, fp}
 8001e28:	b086      	sub	sp, #24
 8001e2a:	4605      	mov	r5, r0
 8001e2c:	4688      	mov	r8, r1
 8001e2e:	b9f5      	cbnz	r5, 8001e6e <BSP_COM_Init+0x4e>
 8001e30:	f241 004c 	movw	r0, #4172	; 0x104c
 8001e34:	f2c4 0002 	movt	r0, #16386	; 0x4002
 8001e38:	6801      	ldr	r1, [r0, #0]
 8001e3a:	f041 0102 	orr.w	r1, r1, #2
 8001e3e:	6001      	str	r1, [r0, #0]
 8001e40:	6801      	ldr	r1, [r0, #0]
 8001e42:	f001 0102 	and.w	r1, r1, #2
 8001e46:	9101      	str	r1, [sp, #4]
 8001e48:	9901      	ldr	r1, [sp, #4]
 8001e4a:	6801      	ldr	r1, [r0, #0]
 8001e4c:	f041 0102 	orr.w	r1, r1, #2
 8001e50:	6001      	str	r1, [r0, #0]
 8001e52:	6801      	ldr	r1, [r0, #0]
 8001e54:	f001 0102 	and.w	r1, r1, #2
 8001e58:	9101      	str	r1, [sp, #4]
 8001e5a:	9901      	ldr	r1, [sp, #4]
 8001e5c:	6941      	ldr	r1, [r0, #20]
 8001e5e:	f441 4180 	orr.w	r1, r1, #16384	; 0x4000
 8001e62:	6141      	str	r1, [r0, #20]
 8001e64:	6940      	ldr	r0, [r0, #20]
 8001e66:	f400 4080 	and.w	r0, r0, #16384	; 0x4000
 8001e6a:	9001      	str	r0, [sp, #4]
 8001e6c:	9801      	ldr	r0, [sp, #4]
 8001e6e:	2040      	movs	r0, #64	; 0x40
 8001e70:	2402      	movs	r4, #2
 8001e72:	ae01      	add	r6, sp, #4
 8001e74:	f04f 0907 	mov.w	r9, #7
 8001e78:	9001      	str	r0, [sp, #4]
 8001e7a:	2000      	movs	r0, #0
 8001e7c:	9402      	str	r4, [sp, #8]
 8001e7e:	9404      	str	r4, [sp, #16]
 8001e80:	4631      	mov	r1, r6
 8001e82:	9003      	str	r0, [sp, #12]
 8001e84:	f240 000c 	movw	r0, #12
 8001e88:	f8cd 9014 	str.w	r9, [sp, #20]
 8001e8c:	f2c2 0000 	movt	r0, #8192	; 0x2000
 8001e90:	f850 0025 	ldr.w	r0, [r0, r5, lsl #2]
 8001e94:	f7ff f9a7 	bl	80011e6 <HAL_GPIO_Init>
 8001e98:	2080      	movs	r0, #128	; 0x80
 8001e9a:	4631      	mov	r1, r6
 8001e9c:	e9cd 0401 	strd	r0, r4, [sp, #4]
 8001ea0:	f240 0010 	movw	r0, #16
 8001ea4:	f8cd 9014 	str.w	r9, [sp, #20]
 8001ea8:	f2c2 0000 	movt	r0, #8192	; 0x2000
 8001eac:	f850 0025 	ldr.w	r0, [r0, r5, lsl #2]
 8001eb0:	f7ff f999 	bl	80011e6 <HAL_GPIO_Init>
 8001eb4:	f240 0008 	movw	r0, #8
 8001eb8:	f2c2 0000 	movt	r0, #8192	; 0x2000
 8001ebc:	f850 0025 	ldr.w	r0, [r0, r5, lsl #2]
 8001ec0:	f8c8 0000 	str.w	r0, [r8]
 8001ec4:	4640      	mov	r0, r8
 8001ec6:	f7ff fcff 	bl	80018c8 <HAL_UART_Init>
 8001eca:	b006      	add	sp, #24
 8001ecc:	e8bd 0b00 	ldmia.w	sp!, {r8, r9, fp}
 8001ed0:	bdf0      	pop	{r4, r5, r6, r7, pc}

08001ed2 <slre_match>:
 8001ed2:	b5f0      	push	{r4, r5, r6, r7, lr}
 8001ed4:	af03      	add	r7, sp, #12
 8001ed6:	e92d 0f00 	stmdb	sp!, {r8, r9, sl, fp}
 8001eda:	f5ad 6d19 	sub.w	sp, sp, #2448	; 0x990
 8001ede:	b081      	sub	sp, #4
 8001ee0:	4681      	mov	r9, r0
 8001ee2:	2000      	movs	r0, #0
 8001ee4:	9103      	str	r1, [sp, #12]
 8001ee6:	4692      	mov	sl, r2
 8001ee8:	f8cd 0984 	str.w	r0, [sp, #2436]	; 0x984
 8001eec:	f8cd 0660 	str.w	r0, [sp, #1632]	; 0x660
 8001ef0:	f8cd 0990 	str.w	r0, [sp, #2448]	; 0x990
 8001ef4:	68b8      	ldr	r0, [r7, #8]
 8001ef6:	f8cd 098c 	str.w	r0, [sp, #2444]	; 0x98c
 8001efa:	f8cd 3988 	str.w	r3, [sp, #2440]	; 0x988
 8001efe:	f899 0000 	ldrb.w	r0, [r9]
 8001f02:	f899 1001 	ldrb.w	r1, [r9, #1]
 8001f06:	f899 2002 	ldrb.w	r2, [r9, #2]
 8001f0a:	f899 3003 	ldrb.w	r3, [r9, #3]
 8001f0e:	ea40 2001 	orr.w	r0, r0, r1, lsl #8
 8001f12:	f643 7128 	movw	r1, #16168	; 0x3f28
 8001f16:	ea42 2203 	orr.w	r2, r2, r3, lsl #8
 8001f1a:	ea40 4002 	orr.w	r0, r0, r2, lsl #16
 8001f1e:	f6c2 1169 	movt	r1, #10601	; 0x2969
 8001f22:	4288      	cmp	r0, r1
 8001f24:	bf02      	ittt	eq
 8001f26:	2001      	moveq	r0, #1
 8001f28:	f8cd 0990 	streq.w	r0, [sp, #2448]	; 0x990
 8001f2c:	f109 0904 	addeq.w	r9, r9, #4
 8001f30:	4648      	mov	r0, r9
 8001f32:	f7fe fbe5 	bl	8000700 <strlen>
 8001f36:	4684      	mov	ip, r0
 8001f38:	2101      	movs	r1, #1
 8001f3a:	2001      	movs	r0, #1
 8001f3c:	f04f 0800 	mov.w	r8, #0
 8001f40:	f1bc 0f01 	cmp.w	ip, #1
 8001f44:	e9cd 9c08 	strd	r9, ip, [sp, #32]
 8001f48:	9007      	str	r0, [sp, #28]
 8001f4a:	f8cd 1660 	str.w	r1, [sp, #1632]	; 0x660
 8001f4e:	f2c0 80ea 	blt.w	8002126 <slre_match+0x254>
 8001f52:	f1ac 0003 	sub.w	r0, ip, #3
 8001f56:	f8cd a008 	str.w	sl, [sp, #8]
 8001f5a:	f04f 0e00 	mov.w	lr, #0
 8001f5e:	f04f 0a00 	mov.w	sl, #0
 8001f62:	f8cd c014 	str.w	ip, [sp, #20]
 8001f66:	9004      	str	r0, [sp, #16]
 8001f68:	f1ac 0001 	sub.w	r0, ip, #1
 8001f6c:	9006      	str	r0, [sp, #24]
 8001f6e:	f819 000a 	ldrb.w	r0, [r9, sl]
 8001f72:	eb09 0b0a 	add.w	fp, r9, sl
 8001f76:	285b      	cmp	r0, #91	; 0x5b
 8001f78:	d11b      	bne.n	8001fb2 <slre_match+0xe0>
 8001f7a:	ebac 010a 	sub.w	r1, ip, sl
 8001f7e:	2902      	cmp	r1, #2
 8001f80:	db26      	blt.n	8001fd0 <slre_match+0xfe>
 8001f82:	1e4b      	subs	r3, r1, #1
 8001f84:	f10b 0501 	add.w	r5, fp, #1
 8001f88:	2200      	movs	r2, #0
 8001f8a:	5cac      	ldrb	r4, [r5, r2]
 8001f8c:	2c5d      	cmp	r4, #93	; 0x5d
 8001f8e:	d020      	beq.n	8001fd2 <slre_match+0x100>
 8001f90:	2c5c      	cmp	r4, #92	; 0x5c
 8001f92:	d105      	bne.n	8001fa0 <slre_match+0xce>
 8001f94:	18ae      	adds	r6, r5, r2
 8001f96:	7876      	ldrb	r6, [r6, #1]
 8001f98:	2e78      	cmp	r6, #120	; 0x78
 8001f9a:	d101      	bne.n	8001fa0 <slre_match+0xce>
 8001f9c:	2404      	movs	r4, #4
 8001f9e:	e004      	b.n	8001faa <slre_match+0xd8>
 8001fa0:	2c5c      	cmp	r4, #92	; 0x5c
 8001fa2:	f04f 0401 	mov.w	r4, #1
 8001fa6:	bf08      	it	eq
 8001fa8:	2402      	moveq	r4, #2
 8001faa:	4422      	add	r2, r4
 8001fac:	429a      	cmp	r2, r3
 8001fae:	dbec      	blt.n	8001f8a <slre_match+0xb8>
 8001fb0:	e00f      	b.n	8001fd2 <slre_match+0x100>
 8001fb2:	285c      	cmp	r0, #92	; 0x5c
 8001fb4:	bf04      	itt	eq
 8001fb6:	f89b 1001 	ldrbeq.w	r1, [fp, #1]
 8001fba:	2978      	cmpeq	r1, #120	; 0x78
 8001fbc:	d057      	beq.n	800206e <slre_match+0x19c>
 8001fbe:	285c      	cmp	r0, #92	; 0x5c
 8001fc0:	f04f 0801 	mov.w	r8, #1
 8001fc4:	bf08      	it	eq
 8001fc6:	f04f 0802 	moveq.w	r8, #2
 8001fca:	285b      	cmp	r0, #91	; 0x5b
 8001fcc:	dd09      	ble.n	8001fe2 <slre_match+0x110>
 8001fce:	e02d      	b.n	800202c <slre_match+0x15a>
 8001fd0:	2200      	movs	r2, #0
 8001fd2:	428a      	cmp	r2, r1
 8001fd4:	f04f 0800 	mov.w	r8, #0
 8001fd8:	bfb8      	it	lt
 8001fda:	f102 0802 	addlt.w	r8, r2, #2
 8001fde:	285b      	cmp	r0, #91	; 0x5b
 8001fe0:	dc24      	bgt.n	800202c <slre_match+0x15a>
 8001fe2:	2828      	cmp	r0, #40	; 0x28
 8001fe4:	d069      	beq.n	80020ba <slre_match+0x1e8>
 8001fe6:	2829      	cmp	r0, #41	; 0x29
 8001fe8:	f040 8093 	bne.w	8002112 <slre_match+0x240>
 8001fec:	9807      	ldr	r0, [sp, #28]
 8001fee:	a908      	add	r1, sp, #32
 8001ff0:	460a      	mov	r2, r1
 8001ff2:	3801      	subs	r0, #1
 8001ff4:	eb02 1100 	add.w	r1, r2, r0, lsl #4
 8001ff8:	6849      	ldr	r1, [r1, #4]
 8001ffa:	3101      	adds	r1, #1
 8001ffc:	bf18      	it	ne
 8001ffe:	4670      	movne	r0, lr
 8002000:	f1be 0f01 	cmp.w	lr, #1
 8002004:	eb02 1100 	add.w	r1, r2, r0, lsl #4
 8002008:	ea4f 1000 	mov.w	r0, r0, lsl #4
 800200c:	5810      	ldr	r0, [r2, r0]
 800200e:	ebab 0000 	sub.w	r0, fp, r0
 8002012:	6048      	str	r0, [r1, #4]
 8002014:	f2c0 8137 	blt.w	8002286 <slre_match+0x3b4>
 8002018:	f1ae 0e01 	sub.w	lr, lr, #1
 800201c:	f1ba 0f01 	cmp.w	sl, #1
 8002020:	db77      	blt.n	8002112 <slre_match+0x240>
 8002022:	f81b 0c01 	ldrb.w	r0, [fp, #-1]
 8002026:	2828      	cmp	r0, #40	; 0x28
 8002028:	d173      	bne.n	8002112 <slre_match+0x240>
 800202a:	e0e9      	b.n	8002200 <slre_match+0x32e>
 800202c:	285c      	cmp	r0, #92	; 0x5c
 800202e:	d020      	beq.n	8002072 <slre_match+0x1a0>
 8002030:	287c      	cmp	r0, #124	; 0x7c
 8002032:	d16e      	bne.n	8002112 <slre_match+0x240>
 8002034:	f8dd 0984 	ldr.w	r0, [sp, #2436]	; 0x984
 8002038:	2863      	cmp	r0, #99	; 0x63
 800203a:	f300 8127 	bgt.w	800228c <slre_match+0x3ba>
 800203e:	9907      	ldr	r1, [sp, #28]
 8002040:	aa08      	add	r2, sp, #32
 8002042:	4613      	mov	r3, r2
 8002044:	3901      	subs	r1, #1
 8002046:	eb03 1201 	add.w	r2, r3, r1, lsl #4
 800204a:	6852      	ldr	r2, [r2, #4]
 800204c:	3201      	adds	r2, #1
 800204e:	bf18      	it	ne
 8002050:	4671      	movne	r1, lr
 8002052:	f203 6244 	addw	r2, r3, #1604	; 0x644
 8002056:	f842 1030 	str.w	r1, [r2, r0, lsl #3]
 800205a:	f8dd 0984 	ldr.w	r0, [sp, #2436]	; 0x984
 800205e:	eb02 01c0 	add.w	r1, r2, r0, lsl #3
 8002062:	3001      	adds	r0, #1
 8002064:	f8c1 b004 	str.w	fp, [r1, #4]
 8002068:	f8cd 0984 	str.w	r0, [sp, #2436]	; 0x984
 800206c:	e051      	b.n	8002112 <slre_match+0x240>
 800206e:	f04f 0804 	mov.w	r8, #4
 8002072:	9806      	ldr	r0, [sp, #24]
 8002074:	4582      	cmp	sl, r0
 8002076:	f280 80fa 	bge.w	800226e <slre_match+0x39c>
 800207a:	f89b 1001 	ldrb.w	r1, [fp, #1]
 800207e:	2978      	cmp	r1, #120	; 0x78
 8002080:	d139      	bne.n	80020f6 <slre_match+0x224>
 8002082:	9804      	ldr	r0, [sp, #16]
 8002084:	4582      	cmp	sl, r0
 8002086:	f280 80f5 	bge.w	8002274 <slre_match+0x3a2>
 800208a:	4674      	mov	r4, lr
 800208c:	f000 fe84 	bl	8002d98 <__locale_ctype_ptr>
 8002090:	f89b 1002 	ldrb.w	r1, [fp, #2]
 8002094:	4408      	add	r0, r1
 8002096:	7840      	ldrb	r0, [r0, #1]
 8002098:	f010 0f44 	tst.w	r0, #68	; 0x44
 800209c:	f000 80ea 	beq.w	8002274 <slre_match+0x3a2>
 80020a0:	f000 fe7a 	bl	8002d98 <__locale_ctype_ptr>
 80020a4:	f89b 1003 	ldrb.w	r1, [fp, #3]
 80020a8:	f8dd c014 	ldr.w	ip, [sp, #20]
 80020ac:	46a6      	mov	lr, r4
 80020ae:	4408      	add	r0, r1
 80020b0:	7840      	ldrb	r0, [r0, #1]
 80020b2:	f010 0f44 	tst.w	r0, #68	; 0x44
 80020b6:	d12c      	bne.n	8002112 <slre_match+0x240>
 80020b8:	e0e2      	b.n	8002280 <slre_match+0x3ae>
 80020ba:	9807      	ldr	r0, [sp, #28]
 80020bc:	2863      	cmp	r0, #99	; 0x63
 80020be:	f300 80e8 	bgt.w	8002292 <slre_match+0x3c0>
 80020c2:	0100      	lsls	r0, r0, #4
 80020c4:	f10b 0101 	add.w	r1, fp, #1
 80020c8:	aa08      	add	r2, sp, #32
 80020ca:	f10e 0e01 	add.w	lr, lr, #1
 80020ce:	5011      	str	r1, [r2, r0]
 80020d0:	f8dd 0660 	ldr.w	r0, [sp, #1632]	; 0x660
 80020d4:	eb02 1100 	add.w	r1, r2, r0, lsl #4
 80020d8:	f04f 32ff 	mov.w	r2, #4294967295	; 0xffffffff
 80020dc:	604a      	str	r2, [r1, #4]
 80020de:	1c42      	adds	r2, r0, #1
 80020e0:	4611      	mov	r1, r2
 80020e2:	f8cd 2660 	str.w	r2, [sp, #1632]	; 0x660
 80020e6:	9107      	str	r1, [sp, #28]
 80020e8:	f8dd 198c 	ldr.w	r1, [sp, #2444]	; 0x98c
 80020ec:	2901      	cmp	r1, #1
 80020ee:	bfa8      	it	ge
 80020f0:	4288      	cmpge	r0, r1
 80020f2:	dd0e      	ble.n	8002112 <slre_match+0x240>
 80020f4:	e0c1      	b.n	800227a <slre_match+0x3a8>
 80020f6:	f647 3071 	movw	r0, #31601	; 0x7b71
 80020fa:	2210      	movs	r2, #16
 80020fc:	4674      	mov	r4, lr
 80020fe:	f6c0 0000 	movt	r0, #2048	; 0x800
 8002102:	f7fe f9fd 	bl	8000500 <memchr>
 8002106:	f8dd c014 	ldr.w	ip, [sp, #20]
 800210a:	46a6      	mov	lr, r4
 800210c:	2800      	cmp	r0, #0
 800210e:	f000 80b7 	beq.w	8002280 <slre_match+0x3ae>
 8002112:	44c2      	add	sl, r8
 8002114:	45e2      	cmp	sl, ip
 8002116:	f6ff af2a 	blt.w	8001f6e <slre_match+0x9c>
 800211a:	f1be 0f00 	cmp.w	lr, #0
 800211e:	d072      	beq.n	8002206 <slre_match+0x334>
 8002120:	f06f 0002 	mvn.w	r0, #2
 8002124:	e0b7      	b.n	8002296 <slre_match+0x3c4>
 8002126:	2000      	movs	r0, #0
 8002128:	f04f 0901 	mov.w	r9, #1
 800212c:	f10d 0c20 	add.w	ip, sp, #32
 8002130:	2200      	movs	r2, #0
 8002132:	2300      	movs	r3, #0
 8002134:	f20c 6e44 	addw	lr, ip, #1604	; 0x644
 8002138:	eb0c 1503 	add.w	r5, ip, r3, lsl #4
 800213c:	4282      	cmp	r2, r0
 800213e:	f845 8f0c 	str.w	r8, [r5, #12]!
 8002142:	f845 2c04 	str.w	r2, [r5, #-4]
 8002146:	da0e      	bge.n	8002166 <slre_match+0x294>
 8002148:	eb0e 01c2 	add.w	r1, lr, r2, lsl #3
 800214c:	2400      	movs	r4, #0
 800214e:	f851 6034 	ldr.w	r6, [r1, r4, lsl #3]
 8002152:	429e      	cmp	r6, r3
 8002154:	d106      	bne.n	8002164 <slre_match+0x292>
 8002156:	3401      	adds	r4, #1
 8002158:	1916      	adds	r6, r2, r4
 800215a:	602c      	str	r4, [r5, #0]
 800215c:	4286      	cmp	r6, r0
 800215e:	dbf6      	blt.n	800214e <slre_match+0x27c>
 8002160:	4632      	mov	r2, r6
 8002162:	e000      	b.n	8002166 <slre_match+0x294>
 8002164:	4422      	add	r2, r4
 8002166:	3301      	adds	r3, #1
 8002168:	454b      	cmp	r3, r9
 800216a:	d1e5      	bne.n	8002138 <slre_match+0x266>
 800216c:	f1ba 0f00 	cmp.w	sl, #0
 8002170:	db46      	blt.n	8002200 <slre_match+0x32e>
 8002172:	9808      	ldr	r0, [sp, #32]
 8002174:	4652      	mov	r2, sl
 8002176:	f04f 0900 	mov.w	r9, #0
 800217a:	f10d 0b20 	add.w	fp, sp, #32
 800217e:	f04f 0a00 	mov.w	sl, #0
 8002182:	7800      	ldrb	r0, [r0, #0]
 8002184:	9007      	str	r0, [sp, #28]
 8002186:	9803      	ldr	r0, [sp, #12]
 8002188:	4690      	mov	r8, r2
 800218a:	eba2 050a 	sub.w	r5, r2, sl
 800218e:	2400      	movs	r4, #0
 8002190:	eb00 060a 	add.w	r6, r0, sl
 8002194:	b13c      	cbz	r4, 80021a6 <slre_match+0x2d4>
 8002196:	980a      	ldr	r0, [sp, #40]	; 0x28
 8002198:	4420      	add	r0, r4
 800219a:	eb0b 00c0 	add.w	r0, fp, r0, lsl #3
 800219e:	f8d0 0640 	ldr.w	r0, [r0, #1600]	; 0x640
 80021a2:	3001      	adds	r0, #1
 80021a4:	e000      	b.n	80021a8 <slre_match+0x2d6>
 80021a6:	9808      	ldr	r0, [sp, #32]
 80021a8:	990b      	ldr	r1, [sp, #44]	; 0x2c
 80021aa:	b129      	cbz	r1, 80021b8 <slre_match+0x2e6>
 80021ac:	428c      	cmp	r4, r1
 80021ae:	d105      	bne.n	80021bc <slre_match+0x2ea>
 80021b0:	e9dd 1208 	ldrd	r1, r2, [sp, #32]
 80021b4:	4411      	add	r1, r2
 80021b6:	e007      	b.n	80021c8 <slre_match+0x2f6>
 80021b8:	9909      	ldr	r1, [sp, #36]	; 0x24
 80021ba:	e006      	b.n	80021ca <slre_match+0x2f8>
 80021bc:	990a      	ldr	r1, [sp, #40]	; 0x28
 80021be:	4421      	add	r1, r4
 80021c0:	eb0b 01c1 	add.w	r1, fp, r1, lsl #3
 80021c4:	f8d1 1648 	ldr.w	r1, [r1, #1608]	; 0x648
 80021c8:	1a09      	subs	r1, r1, r0
 80021ca:	4632      	mov	r2, r6
 80021cc:	462b      	mov	r3, r5
 80021ce:	e9cd b900 	strd	fp, r9, [sp]
 80021d2:	f000 f8c0 	bl	8002356 <bar>
 80021d6:	2800      	cmp	r0, #0
 80021d8:	dc10      	bgt.n	80021fc <slre_match+0x32a>
 80021da:	9a0b      	ldr	r2, [sp, #44]	; 0x2c
 80021dc:	1c61      	adds	r1, r4, #1
 80021de:	4294      	cmp	r4, r2
 80021e0:	460c      	mov	r4, r1
 80021e2:	dbd7      	blt.n	8002194 <slre_match+0x2c2>
 80021e4:	2800      	cmp	r0, #0
 80021e6:	da09      	bge.n	80021fc <slre_match+0x32a>
 80021e8:	9907      	ldr	r1, [sp, #28]
 80021ea:	295e      	cmp	r1, #94	; 0x5e
 80021ec:	d053      	beq.n	8002296 <slre_match+0x3c4>
 80021ee:	4642      	mov	r2, r8
 80021f0:	f10a 0101 	add.w	r1, sl, #1
 80021f4:	4592      	cmp	sl, r2
 80021f6:	468a      	mov	sl, r1
 80021f8:	dbc5      	blt.n	8002186 <slre_match+0x2b4>
 80021fa:	e04c      	b.n	8002296 <slre_match+0x3c4>
 80021fc:	4450      	add	r0, sl
 80021fe:	e04a      	b.n	8002296 <slre_match+0x3c4>
 8002200:	f04f 30ff 	mov.w	r0, #4294967295	; 0xffffffff
 8002204:	e047      	b.n	8002296 <slre_match+0x3c4>
 8002206:	f8dd 0984 	ldr.w	r0, [sp, #2436]	; 0x984
 800220a:	2801      	cmp	r0, #1
 800220c:	db49      	blt.n	80022a2 <slre_match+0x3d0>
 800220e:	f8dd a008 	ldr.w	sl, [sp, #8]
 8002212:	f8dd 901c 	ldr.w	r9, [sp, #28]
 8002216:	a908      	add	r1, sp, #32
 8002218:	f04f 0c00 	mov.w	ip, #0
 800221c:	f04f 0800 	mov.w	r8, #0
 8002220:	f201 6e4c 	addw	lr, r1, #1612	; 0x64c
 8002224:	4663      	mov	r3, ip
 8002226:	f103 0c01 	add.w	ip, r3, #1
 800222a:	4584      	cmp	ip, r0
 800222c:	da1c      	bge.n	8002268 <slre_match+0x396>
 800222e:	a908      	add	r1, sp, #32
 8002230:	eb01 06c3 	add.w	r6, r1, r3, lsl #3
 8002234:	f206 6644 	addw	r6, r6, #1604	; 0x644
 8002238:	f85e 5033 	ldr.w	r5, [lr, r3, lsl #3]
 800223c:	6834      	ldr	r4, [r6, #0]
 800223e:	42ac      	cmp	r4, r5
 8002240:	dd0d      	ble.n	800225e <slre_match+0x38c>
 8002242:	eb0e 00c3 	add.w	r0, lr, r3, lsl #3
 8002246:	f85e 4033 	ldr.w	r4, [lr, r3, lsl #3]
 800224a:	6845      	ldr	r5, [r0, #4]
 800224c:	e9d6 2100 	ldrd	r2, r1, [r6]
 8002250:	e9c6 4500 	strd	r4, r5, [r6]
 8002254:	f84e 2033 	str.w	r2, [lr, r3, lsl #3]
 8002258:	6041      	str	r1, [r0, #4]
 800225a:	f8dd 0984 	ldr.w	r0, [sp, #2436]	; 0x984
 800225e:	1c9a      	adds	r2, r3, #2
 8002260:	1c59      	adds	r1, r3, #1
 8002262:	4282      	cmp	r2, r0
 8002264:	460b      	mov	r3, r1
 8002266:	dbe7      	blt.n	8002238 <slre_match+0x366>
 8002268:	4584      	cmp	ip, r0
 800226a:	dbdb      	blt.n	8002224 <slre_match+0x352>
 800226c:	e01f      	b.n	80022ae <slre_match+0x3dc>
 800226e:	f06f 0005 	mvn.w	r0, #5
 8002272:	e010      	b.n	8002296 <slre_match+0x3c4>
 8002274:	f06f 0005 	mvn.w	r0, #5
 8002278:	e00d      	b.n	8002296 <slre_match+0x3c4>
 800227a:	f06f 0006 	mvn.w	r0, #6
 800227e:	e00a      	b.n	8002296 <slre_match+0x3c4>
 8002280:	f06f 0005 	mvn.w	r0, #5
 8002284:	e007      	b.n	8002296 <slre_match+0x3c4>
 8002286:	f06f 0002 	mvn.w	r0, #2
 800228a:	e004      	b.n	8002296 <slre_match+0x3c4>
 800228c:	f06f 0007 	mvn.w	r0, #7
 8002290:	e001      	b.n	8002296 <slre_match+0x3c4>
 8002292:	f06f 0008 	mvn.w	r0, #8
 8002296:	f50d 6d19 	add.w	sp, sp, #2448	; 0x990
 800229a:	b001      	add	sp, #4
 800229c:	e8bd 0f00 	ldmia.w	sp!, {r8, r9, sl, fp}
 80022a0:	bdf0      	pop	{r4, r5, r6, r7, pc}
 80022a2:	f8dd a008 	ldr.w	sl, [sp, #8]
 80022a6:	f8dd 901c 	ldr.w	r9, [sp, #28]
 80022aa:	f04f 0800 	mov.w	r8, #0
 80022ae:	f1b9 0f01 	cmp.w	r9, #1
 80022b2:	f6bf af3b 	bge.w	800212c <slre_match+0x25a>
 80022b6:	e759      	b.n	800216c <slre_match+0x29a>

080022b8 <initialise_benchmark>:
 80022b8:	4770      	bx	lr

080022ba <benchmark>:
 80022ba:	b5f0      	push	{r4, r5, r6, r7, lr}
 80022bc:	af03      	add	r7, sp, #12
 80022be:	e92d 0b00 	stmdb	sp!, {r8, r9, fp}
 80022c2:	b084      	sub	sp, #16
 80022c4:	f240 0414 	movw	r4, #20
 80022c8:	f2c2 0400 	movt	r4, #8192	; 0x2000
 80022cc:	4620      	mov	r0, r4
 80022ce:	f7fe fa17 	bl	8000700 <strlen>
 80022d2:	4605      	mov	r5, r0
 80022d4:	f240 0644 	movw	r6, #68	; 0x44
 80022d8:	2000      	movs	r0, #0
 80022da:	f10d 0808 	add.w	r8, sp, #8
 80022de:	f04f 0901 	mov.w	r9, #1
 80022e2:	4621      	mov	r1, r4
 80022e4:	9001      	str	r0, [sp, #4]
 80022e6:	f2c2 0600 	movt	r6, #8192	; 0x2000
 80022ea:	462a      	mov	r2, r5
 80022ec:	4643      	mov	r3, r8
 80022ee:	f8cd 9000 	str.w	r9, [sp]
 80022f2:	6830      	ldr	r0, [r6, #0]
 80022f4:	f7ff fded 	bl	8001ed2 <slre_match>
 80022f8:	9901      	ldr	r1, [sp, #4]
 80022fa:	462a      	mov	r2, r5
 80022fc:	4643      	mov	r3, r8
 80022fe:	4408      	add	r0, r1
 8002300:	4621      	mov	r1, r4
 8002302:	9001      	str	r0, [sp, #4]
 8002304:	f8cd 9000 	str.w	r9, [sp]
 8002308:	6870      	ldr	r0, [r6, #4]
 800230a:	f7ff fde2 	bl	8001ed2 <slre_match>
 800230e:	9901      	ldr	r1, [sp, #4]
 8002310:	462a      	mov	r2, r5
 8002312:	4643      	mov	r3, r8
 8002314:	4408      	add	r0, r1
 8002316:	4621      	mov	r1, r4
 8002318:	9001      	str	r0, [sp, #4]
 800231a:	f8cd 9000 	str.w	r9, [sp]
 800231e:	68b0      	ldr	r0, [r6, #8]
 8002320:	f7ff fdd7 	bl	8001ed2 <slre_match>
 8002324:	9901      	ldr	r1, [sp, #4]
 8002326:	462a      	mov	r2, r5
 8002328:	4643      	mov	r3, r8
 800232a:	4408      	add	r0, r1
 800232c:	4621      	mov	r1, r4
 800232e:	9001      	str	r0, [sp, #4]
 8002330:	f8cd 9000 	str.w	r9, [sp]
 8002334:	68f0      	ldr	r0, [r6, #12]
 8002336:	f7ff fdcc 	bl	8001ed2 <slre_match>
 800233a:	9901      	ldr	r1, [sp, #4]
 800233c:	4408      	add	r0, r1
 800233e:	9001      	str	r0, [sp, #4]
 8002340:	9801      	ldr	r0, [sp, #4]
 8002342:	b004      	add	sp, #16
 8002344:	e8bd 0b00 	ldmia.w	sp!, {r8, r9, fp}
 8002348:	bdf0      	pop	{r4, r5, r6, r7, pc}

0800234a <verify_benchmark>:
 800234a:	2100      	movs	r1, #0
 800234c:	2866      	cmp	r0, #102	; 0x66
 800234e:	bf08      	it	eq
 8002350:	2101      	moveq	r1, #1
 8002352:	4608      	mov	r0, r1
 8002354:	4770      	bx	lr

08002356 <bar>:
 8002356:	b5f0      	push	{r4, r5, r6, r7, lr}
 8002358:	af03      	add	r7, sp, #12
 800235a:	e92d 0f00 	stmdb	sp!, {r8, r9, sl, fp}
 800235e:	b093      	sub	sp, #76	; 0x4c
 8002360:	461d      	mov	r5, r3
 8002362:	4688      	mov	r8, r1
 8002364:	9207      	str	r2, [sp, #28]
 8002366:	4683      	mov	fp, r0
 8002368:	2400      	movs	r4, #0
 800236a:	2d00      	cmp	r5, #0
 800236c:	bfa8      	it	ge
 800236e:	f1b8 0f01 	cmpge.w	r8, #1
 8002372:	f2c0 8319 	blt.w	80029a8 <bar+0x652>
 8002376:	68f8      	ldr	r0, [r7, #12]
 8002378:	f04f 0e00 	mov.w	lr, #0
 800237c:	2600      	movs	r6, #0
 800237e:	f04f 0a00 	mov.w	sl, #0
 8002382:	9008      	str	r0, [sp, #32]
 8002384:	f1a8 0002 	sub.w	r0, r8, #2
 8002388:	9003      	str	r0, [sp, #12]
 800238a:	e9cd 8b04 	strd	r8, fp, [sp, #16]
 800238e:	9509      	str	r5, [sp, #36]	; 0x24
 8002390:	f81b 1006 	ldrb.w	r1, [fp, r6]
 8002394:	eb0b 0906 	add.w	r9, fp, r6
 8002398:	2928      	cmp	r1, #40	; 0x28
 800239a:	d108      	bne.n	80023ae <bar+0x58>
 800239c:	68ba      	ldr	r2, [r7, #8]
 800239e:	9b08      	ldr	r3, [sp, #32]
 80023a0:	eb02 1203 	add.w	r2, r2, r3, lsl #4
 80023a4:	6952      	ldr	r2, [r2, #20]
 80023a6:	1c94      	adds	r4, r2, #2
 80023a8:	2c01      	cmp	r4, #1
 80023aa:	da45      	bge.n	8002438 <bar+0xe2>
 80023ac:	e26f      	b.n	800288e <bar+0x538>
 80023ae:	295b      	cmp	r1, #91	; 0x5b
 80023b0:	d11d      	bne.n	80023ee <bar+0x98>
 80023b2:	eba8 0c06 	sub.w	ip, r8, r6
 80023b6:	f1bc 0f02 	cmp.w	ip, #2
 80023ba:	db25      	blt.n	8002408 <bar+0xb2>
 80023bc:	f1ac 0001 	sub.w	r0, ip, #1
 80023c0:	f109 0501 	add.w	r5, r9, #1
 80023c4:	2300      	movs	r3, #0
 80023c6:	5cea      	ldrb	r2, [r5, r3]
 80023c8:	2a5d      	cmp	r2, #93	; 0x5d
 80023ca:	d01e      	beq.n	800240a <bar+0xb4>
 80023cc:	2a5c      	cmp	r2, #92	; 0x5c
 80023ce:	d105      	bne.n	80023dc <bar+0x86>
 80023d0:	18ec      	adds	r4, r5, r3
 80023d2:	7864      	ldrb	r4, [r4, #1]
 80023d4:	2c78      	cmp	r4, #120	; 0x78
 80023d6:	d101      	bne.n	80023dc <bar+0x86>
 80023d8:	2204      	movs	r2, #4
 80023da:	e004      	b.n	80023e6 <bar+0x90>
 80023dc:	2a5c      	cmp	r2, #92	; 0x5c
 80023de:	f04f 0201 	mov.w	r2, #1
 80023e2:	bf08      	it	eq
 80023e4:	2202      	moveq	r2, #2
 80023e6:	4413      	add	r3, r2
 80023e8:	4283      	cmp	r3, r0
 80023ea:	dbec      	blt.n	80023c6 <bar+0x70>
 80023ec:	e00d      	b.n	800240a <bar+0xb4>
 80023ee:	295c      	cmp	r1, #92	; 0x5c
 80023f0:	bf04      	itt	eq
 80023f2:	f899 2001 	ldrbeq.w	r2, [r9, #1]
 80023f6:	2a78      	cmpeq	r2, #120	; 0x78
 80023f8:	f000 81a5 	beq.w	8002746 <bar+0x3f0>
 80023fc:	295c      	cmp	r1, #92	; 0x5c
 80023fe:	f04f 0401 	mov.w	r4, #1
 8002402:	bf08      	it	eq
 8002404:	2402      	moveq	r4, #2
 8002406:	e005      	b.n	8002414 <bar+0xbe>
 8002408:	2300      	movs	r3, #0
 800240a:	4563      	cmp	r3, ip
 800240c:	f04f 0400 	mov.w	r4, #0
 8002410:	bfb8      	it	lt
 8002412:	1c9c      	addlt	r4, r3, #2
 8002414:	f1a1 022a 	sub.w	r2, r1, #42	; 0x2a
 8002418:	b2d2      	uxtb	r2, r2
 800241a:	2a15      	cmp	r2, #21
 800241c:	d809      	bhi.n	8002432 <bar+0xdc>
 800241e:	2303      	movs	r3, #3
 8002420:	f2c0 0320 	movt	r3, #32
 8002424:	f36f 539f 	bfc	r3, #22, #10
 8002428:	fa23 f202 	lsr.w	r2, r3, r2
 800242c:	07d2      	lsls	r2, r2, #31
 800242e:	f040 8233 	bne.w	8002898 <bar+0x542>
 8002432:	2c01      	cmp	r4, #1
 8002434:	f2c0 822b 	blt.w	800288e <bar+0x538>
 8002438:	f8cd a034 	str.w	sl, [sp, #52]	; 0x34
 800243c:	eb04 0a06 	add.w	sl, r4, r6
 8002440:	960e      	str	r6, [sp, #56]	; 0x38
 8002442:	45c2      	cmp	sl, r8
 8002444:	da0f      	bge.n	8002466 <bar+0x110>
 8002446:	f819 2004 	ldrb.w	r2, [r9, r4]
 800244a:	3a2a      	subs	r2, #42	; 0x2a
 800244c:	b2d2      	uxtb	r2, r2
 800244e:	2a15      	cmp	r2, #21
 8002450:	d809      	bhi.n	8002466 <bar+0x110>
 8002452:	2303      	movs	r3, #3
 8002454:	f2c0 0320 	movt	r3, #32
 8002458:	f36f 539f 	bfc	r3, #22, #10
 800245c:	fa23 f202 	lsr.w	r2, r3, r2
 8002460:	07d2      	lsls	r2, r2, #31
 8002462:	f040 8160 	bne.w	8002726 <bar+0x3d0>
 8002466:	295a      	cmp	r1, #90	; 0x5a
 8002468:	f300 8084 	bgt.w	8002574 <bar+0x21e>
 800246c:	2924      	cmp	r1, #36	; 0x24
 800246e:	f000 812e 	beq.w	80026ce <bar+0x378>
 8002472:	2928      	cmp	r1, #40	; 0x28
 8002474:	f040 813d 	bne.w	80026f2 <bar+0x39c>
 8002478:	9908      	ldr	r1, [sp, #32]
 800247a:	1c4a      	adds	r2, r1, #1
 800247c:	68b9      	ldr	r1, [r7, #8]
 800247e:	4610      	mov	r0, r2
 8002480:	f8d1 1640 	ldr.w	r1, [r1, #1600]	; 0x640
 8002484:	9012      	str	r0, [sp, #72]	; 0x48
 8002486:	428a      	cmp	r2, r1
 8002488:	f280 8209 	bge.w	800289e <bar+0x548>
 800248c:	eba8 000a 	sub.w	r0, r8, sl
 8002490:	9406      	str	r4, [sp, #24]
 8002492:	2801      	cmp	r0, #1
 8002494:	900b      	str	r0, [sp, #44]	; 0x2c
 8002496:	f2c0 8162 	blt.w	800275e <bar+0x408>
 800249a:	990d      	ldr	r1, [sp, #52]	; 0x34
 800249c:	9a09      	ldr	r2, [sp, #36]	; 0x24
 800249e:	1a53      	subs	r3, r2, r1
 80024a0:	4618      	mov	r0, r3
 80024a2:	2b00      	cmp	r3, #0
 80024a4:	900c      	str	r0, [sp, #48]	; 0x30
 80024a6:	f2c0 827d 	blt.w	80029a4 <bar+0x64e>
 80024aa:	eb09 0004 	add.w	r0, r9, r4
 80024ae:	900a      	str	r0, [sp, #40]	; 0x28
 80024b0:	eb0e 0002 	add.w	r0, lr, r2
 80024b4:	900f      	str	r0, [sp, #60]	; 0x3c
 80024b6:	9807      	ldr	r0, [sp, #28]
 80024b8:	eb00 0a01 	add.w	sl, r0, r1
 80024bc:	68b8      	ldr	r0, [r7, #8]
 80024be:	9912      	ldr	r1, [sp, #72]	; 0x48
 80024c0:	eb00 1501 	add.w	r5, r0, r1, lsl #4
 80024c4:	1d28      	adds	r0, r5, #4
 80024c6:	f105 0908 	add.w	r9, r5, #8
 80024ca:	f105 080c 	add.w	r8, r5, #12
 80024ce:	9011      	str	r0, [sp, #68]	; 0x44
 80024d0:	2000      	movs	r0, #0
 80024d2:	4601      	mov	r1, r0
 80024d4:	980f      	ldr	r0, [sp, #60]	; 0x3c
 80024d6:	2600      	movs	r6, #0
 80024d8:	9110      	str	r1, [sp, #64]	; 0x40
 80024da:	eba0 0b01 	sub.w	fp, r0, r1
 80024de:	b14e      	cbz	r6, 80024f4 <bar+0x19e>
 80024e0:	f8d9 0000 	ldr.w	r0, [r9]
 80024e4:	68b9      	ldr	r1, [r7, #8]
 80024e6:	4430      	add	r0, r6
 80024e8:	eb01 00c0 	add.w	r0, r1, r0, lsl #3
 80024ec:	f8d0 0640 	ldr.w	r0, [r0, #1600]	; 0x640
 80024f0:	3001      	adds	r0, #1
 80024f2:	e000      	b.n	80024f6 <bar+0x1a0>
 80024f4:	6828      	ldr	r0, [r5, #0]
 80024f6:	f8d8 1000 	ldr.w	r1, [r8]
 80024fa:	b131      	cbz	r1, 800250a <bar+0x1b4>
 80024fc:	428e      	cmp	r6, r1
 80024fe:	d107      	bne.n	8002510 <bar+0x1ba>
 8002500:	9911      	ldr	r1, [sp, #68]	; 0x44
 8002502:	682a      	ldr	r2, [r5, #0]
 8002504:	6809      	ldr	r1, [r1, #0]
 8002506:	4411      	add	r1, r2
 8002508:	e00a      	b.n	8002520 <bar+0x1ca>
 800250a:	9911      	ldr	r1, [sp, #68]	; 0x44
 800250c:	6809      	ldr	r1, [r1, #0]
 800250e:	e008      	b.n	8002522 <bar+0x1cc>
 8002510:	f8d9 1000 	ldr.w	r1, [r9]
 8002514:	68ba      	ldr	r2, [r7, #8]
 8002516:	4431      	add	r1, r6
 8002518:	eb02 01c1 	add.w	r1, r2, r1, lsl #3
 800251c:	f8d1 1648 	ldr.w	r1, [r1, #1608]	; 0x648
 8002520:	1a09      	subs	r1, r1, r0
 8002522:	68ba      	ldr	r2, [r7, #8]
 8002524:	465b      	mov	r3, fp
 8002526:	9200      	str	r2, [sp, #0]
 8002528:	9a12      	ldr	r2, [sp, #72]	; 0x48
 800252a:	9201      	str	r2, [sp, #4]
 800252c:	4652      	mov	r2, sl
 800252e:	f7ff ff12 	bl	8002356 <bar>
 8002532:	4604      	mov	r4, r0
 8002534:	2c00      	cmp	r4, #0
 8002536:	dc07      	bgt.n	8002548 <bar+0x1f2>
 8002538:	f8d8 0000 	ldr.w	r0, [r8]
 800253c:	1c71      	adds	r1, r6, #1
 800253e:	4286      	cmp	r6, r0
 8002540:	460e      	mov	r6, r1
 8002542:	dbcc      	blt.n	80024de <bar+0x188>
 8002544:	2c00      	cmp	r4, #0
 8002546:	db0f      	blt.n	8002568 <bar+0x212>
 8002548:	68b8      	ldr	r0, [r7, #8]
 800254a:	eb0a 0204 	add.w	r2, sl, r4
 800254e:	9000      	str	r0, [sp, #0]
 8002550:	9812      	ldr	r0, [sp, #72]	; 0x48
 8002552:	9001      	str	r0, [sp, #4]
 8002554:	980f      	ldr	r0, [sp, #60]	; 0x3c
 8002556:	1b03      	subs	r3, r0, r4
 8002558:	e9dd 010a 	ldrd	r0, r1, [sp, #40]	; 0x28
 800255c:	f7ff fefb 	bl	8002356 <bar>
 8002560:	f1b0 3fff 	cmp.w	r0, #4294967295	; 0xffffffff
 8002564:	f300 814c 	bgt.w	8002800 <bar+0x4aa>
 8002568:	9a10      	ldr	r2, [sp, #64]	; 0x40
 800256a:	990c      	ldr	r1, [sp, #48]	; 0x30
 800256c:	1c50      	adds	r0, r2, #1
 800256e:	428a      	cmp	r2, r1
 8002570:	dbaf      	blt.n	80024d2 <bar+0x17c>
 8002572:	e13d      	b.n	80027f0 <bar+0x49a>
 8002574:	295e      	cmp	r1, #94	; 0x5e
 8002576:	f000 80b1 	beq.w	80026dc <bar+0x386>
 800257a:	295b      	cmp	r1, #91	; 0x5b
 800257c:	f040 80b9 	bne.w	80026f2 <bar+0x39c>
 8002580:	9803      	ldr	r0, [sp, #12]
 8002582:	eba0 0b06 	sub.w	fp, r0, r6
 8002586:	f819 0f01 	ldrb.w	r0, [r9, #1]!
 800258a:	285e      	cmp	r0, #94	; 0x5e
 800258c:	9011      	str	r0, [sp, #68]	; 0x44
 800258e:	bf04      	itt	eq
 8002590:	f1ab 0b01 	subeq.w	fp, fp, #1
 8002594:	f109 0901 	addeq.w	r9, r9, #1
 8002598:	f1bb 0f00 	cmp.w	fp, #0
 800259c:	f2c0 80d5 	blt.w	800274a <bar+0x3f4>
 80025a0:	980d      	ldr	r0, [sp, #52]	; 0x34
 80025a2:	9907      	ldr	r1, [sp, #28]
 80025a4:	f04f 0a00 	mov.w	sl, #0
 80025a8:	9406      	str	r4, [sp, #24]
 80025aa:	4408      	add	r0, r1
 80025ac:	9012      	str	r0, [sp, #72]	; 0x48
 80025ae:	f04f 30ff 	mov.w	r0, #4294967295	; 0xffffffff
 80025b2:	2800      	cmp	r0, #0
 80025b4:	dc79      	bgt.n	80026aa <bar+0x354>
 80025b6:	f819 100a 	ldrb.w	r1, [r9, sl]
 80025ba:	295d      	cmp	r1, #93	; 0x5d
 80025bc:	d075      	beq.n	80026aa <bar+0x354>
 80025be:	eb09 050a 	add.w	r5, r9, sl
 80025c2:	292d      	cmp	r1, #45	; 0x2d
 80025c4:	d00a      	beq.n	80025dc <bar+0x286>
 80025c6:	7868      	ldrb	r0, [r5, #1]
 80025c8:	282d      	cmp	r0, #45	; 0x2d
 80025ca:	d107      	bne.n	80025dc <bar+0x286>
 80025cc:	f10a 0802 	add.w	r8, sl, #2
 80025d0:	f819 0008 	ldrb.w	r0, [r9, r8]
 80025d4:	2800      	cmp	r0, #0
 80025d6:	bf18      	it	ne
 80025d8:	285d      	cmpne	r0, #93	; 0x5d
 80025da:	d116      	bne.n	800260a <bar+0x2b4>
 80025dc:	9912      	ldr	r1, [sp, #72]	; 0x48
 80025de:	68ba      	ldr	r2, [r7, #8]
 80025e0:	4628      	mov	r0, r5
 80025e2:	f000 f9f5 	bl	80029d0 <match_op>
 80025e6:	7829      	ldrb	r1, [r5, #0]
 80025e8:	295c      	cmp	r1, #92	; 0x5c
 80025ea:	bf04      	itt	eq
 80025ec:	786a      	ldrbeq	r2, [r5, #1]
 80025ee:	2a78      	cmpeq	r2, #120	; 0x78
 80025f0:	d005      	beq.n	80025fe <bar+0x2a8>
 80025f2:	295c      	cmp	r1, #92	; 0x5c
 80025f4:	f04f 0101 	mov.w	r1, #1
 80025f8:	bf08      	it	eq
 80025fa:	2102      	moveq	r1, #2
 80025fc:	e000      	b.n	8002600 <bar+0x2aa>
 80025fe:	2104      	movs	r1, #4
 8002600:	9e0e      	ldr	r6, [sp, #56]	; 0x38
 8002602:	448a      	add	sl, r1
 8002604:	45da      	cmp	sl, fp
 8002606:	ddd4      	ble.n	80025b2 <bar+0x25c>
 8002608:	e04f      	b.n	80026aa <bar+0x354>
 800260a:	9a12      	ldr	r2, [sp, #72]	; 0x48
 800260c:	7814      	ldrb	r4, [r2, #0]
 800260e:	68ba      	ldr	r2, [r7, #8]
 8002610:	f8d2 2970 	ldr.w	r2, [r2, #2416]	; 0x970
 8002614:	b182      	cbz	r2, 8002638 <bar+0x2e2>
 8002616:	428c      	cmp	r4, r1
 8002618:	f04f 0100 	mov.w	r1, #0
 800261c:	f10a 0a03 	add.w	sl, sl, #3
 8002620:	bf28      	it	cs
 8002622:	2101      	movcs	r1, #1
 8002624:	4284      	cmp	r4, r0
 8002626:	f04f 0000 	mov.w	r0, #0
 800262a:	bf98      	it	ls
 800262c:	2001      	movls	r0, #1
 800262e:	9c06      	ldr	r4, [sp, #24]
 8002630:	4008      	ands	r0, r1
 8002632:	45da      	cmp	sl, fp
 8002634:	ddbd      	ble.n	80025b2 <bar+0x25c>
 8002636:	e038      	b.n	80026aa <bar+0x354>
 8002638:	f000 fbae 	bl	8002d98 <__locale_ctype_ptr>
 800263c:	4420      	add	r0, r4
 800263e:	7840      	ldrb	r0, [r0, #1]
 8002640:	f000 0003 	and.w	r0, r0, #3
 8002644:	2801      	cmp	r0, #1
 8002646:	bf08      	it	eq
 8002648:	3420      	addeq	r4, #32
 800264a:	782d      	ldrb	r5, [r5, #0]
 800264c:	f000 fba4 	bl	8002d98 <__locale_ctype_ptr>
 8002650:	4428      	add	r0, r5
 8002652:	7840      	ldrb	r0, [r0, #1]
 8002654:	f000 0003 	and.w	r0, r0, #3
 8002658:	2801      	cmp	r0, #1
 800265a:	bf08      	it	eq
 800265c:	3520      	addeq	r5, #32
 800265e:	42ac      	cmp	r4, r5
 8002660:	d201      	bcs.n	8002666 <bar+0x310>
 8002662:	2000      	movs	r0, #0
 8002664:	e01a      	b.n	800269c <bar+0x346>
 8002666:	9812      	ldr	r0, [sp, #72]	; 0x48
 8002668:	7804      	ldrb	r4, [r0, #0]
 800266a:	f000 fb95 	bl	8002d98 <__locale_ctype_ptr>
 800266e:	4420      	add	r0, r4
 8002670:	f819 6008 	ldrb.w	r6, [r9, r8]
 8002674:	7845      	ldrb	r5, [r0, #1]
 8002676:	f000 fb8f 	bl	8002d98 <__locale_ctype_ptr>
 800267a:	4430      	add	r0, r6
 800267c:	7840      	ldrb	r0, [r0, #1]
 800267e:	f000 0003 	and.w	r0, r0, #3
 8002682:	2801      	cmp	r0, #1
 8002684:	f005 0003 	and.w	r0, r5, #3
 8002688:	bf08      	it	eq
 800268a:	3620      	addeq	r6, #32
 800268c:	2801      	cmp	r0, #1
 800268e:	f04f 0000 	mov.w	r0, #0
 8002692:	bf08      	it	eq
 8002694:	3420      	addeq	r4, #32
 8002696:	42b4      	cmp	r4, r6
 8002698:	bf98      	it	ls
 800269a:	2001      	movls	r0, #1
 800269c:	9c06      	ldr	r4, [sp, #24]
 800269e:	9e0e      	ldr	r6, [sp, #56]	; 0x38
 80026a0:	f10a 0a03 	add.w	sl, sl, #3
 80026a4:	45da      	cmp	sl, fp
 80026a6:	f77f af84 	ble.w	80025b2 <bar+0x25c>
 80026aa:	9b11      	ldr	r3, [sp, #68]	; 0x44
 80026ac:	2100      	movs	r1, #0
 80026ae:	4622      	mov	r2, r4
 80026b0:	2b5e      	cmp	r3, #94	; 0x5e
 80026b2:	bf18      	it	ne
 80026b4:	2101      	movne	r1, #1
 80026b6:	e9dd 8b04 	ldrd	r8, fp, [sp, #16]
 80026ba:	9d09      	ldr	r5, [sp, #36]	; 0x24
 80026bc:	2801      	cmp	r0, #1
 80026be:	f2c0 80cf 	blt.w	8002860 <bar+0x50a>
 80026c2:	f8dd a034 	ldr.w	sl, [sp, #52]	; 0x34
 80026c6:	2900      	cmp	r1, #0
 80026c8:	f040 80d4 	bne.w	8002874 <bar+0x51e>
 80026cc:	e0ca      	b.n	8002864 <bar+0x50e>
 80026ce:	9d09      	ldr	r5, [sp, #36]	; 0x24
 80026d0:	980d      	ldr	r0, [sp, #52]	; 0x34
 80026d2:	42a8      	cmp	r0, r5
 80026d4:	46aa      	mov	sl, r5
 80026d6:	f000 80d0 	beq.w	800287a <bar+0x524>
 80026da:	e163      	b.n	80029a4 <bar+0x64e>
 80026dc:	980d      	ldr	r0, [sp, #52]	; 0x34
 80026de:	2800      	cmp	r0, #0
 80026e0:	f040 8160 	bne.w	80029a4 <bar+0x64e>
 80026e4:	9d09      	ldr	r5, [sp, #36]	; 0x24
 80026e6:	f04f 0a00 	mov.w	sl, #0
 80026ea:	45aa      	cmp	sl, r5
 80026ec:	f340 80c7 	ble.w	800287e <bar+0x528>
 80026f0:	e0d0      	b.n	8002894 <bar+0x53e>
 80026f2:	f8dd a034 	ldr.w	sl, [sp, #52]	; 0x34
 80026f6:	9809      	ldr	r0, [sp, #36]	; 0x24
 80026f8:	4582      	cmp	sl, r0
 80026fa:	f280 8153 	bge.w	80029a4 <bar+0x64e>
 80026fe:	9807      	ldr	r0, [sp, #28]
 8002700:	68ba      	ldr	r2, [r7, #8]
 8002702:	4626      	mov	r6, r4
 8002704:	eb00 010a 	add.w	r1, r0, sl
 8002708:	4648      	mov	r0, r9
 800270a:	f000 f961 	bl	80029d0 <match_op>
 800270e:	4604      	mov	r4, r0
 8002710:	2c01      	cmp	r4, #1
 8002712:	f2c0 8149 	blt.w	80029a8 <bar+0x652>
 8002716:	44a2      	add	sl, r4
 8002718:	4634      	mov	r4, r6
 800271a:	9d09      	ldr	r5, [sp, #36]	; 0x24
 800271c:	9e0e      	ldr	r6, [sp, #56]	; 0x38
 800271e:	45aa      	cmp	sl, r5
 8002720:	f340 80ad 	ble.w	800287e <bar+0x528>
 8002724:	e0b6      	b.n	8002894 <bar+0x53e>
 8002726:	f81b 000a 	ldrb.w	r0, [fp, sl]
 800272a:	283f      	cmp	r0, #63	; 0x3f
 800272c:	f000 8080 	beq.w	8002830 <bar+0x4da>
 8002730:	382a      	subs	r0, #42	; 0x2a
 8002732:	2802      	cmp	r0, #2
 8002734:	f0c0 80b6 	bcc.w	80028a4 <bar+0x54e>
 8002738:	f8dd a034 	ldr.w	sl, [sp, #52]	; 0x34
 800273c:	9d09      	ldr	r5, [sp, #36]	; 0x24
 800273e:	45aa      	cmp	sl, r5
 8002740:	f340 809d 	ble.w	800287e <bar+0x528>
 8002744:	e0a6      	b.n	8002894 <bar+0x53e>
 8002746:	2404      	movs	r4, #4
 8002748:	e676      	b.n	8002438 <bar+0xe2>
 800274a:	f8dd b014 	ldr.w	fp, [sp, #20]
 800274e:	f8dd a034 	ldr.w	sl, [sp, #52]	; 0x34
 8002752:	9d09      	ldr	r5, [sp, #36]	; 0x24
 8002754:	9b11      	ldr	r3, [sp, #68]	; 0x44
 8002756:	4622      	mov	r2, r4
 8002758:	f04f 30ff 	mov.w	r0, #4294967295	; 0xffffffff
 800275c:	e082      	b.n	8002864 <bar+0x50e>
 800275e:	980d      	ldr	r0, [sp, #52]	; 0x34
 8002760:	9909      	ldr	r1, [sp, #36]	; 0x24
 8002762:	f04f 0900 	mov.w	r9, #0
 8002766:	eba1 0a00 	sub.w	sl, r1, r0
 800276a:	9907      	ldr	r1, [sp, #28]
 800276c:	180d      	adds	r5, r1, r0
 800276e:	68b8      	ldr	r0, [r7, #8]
 8002770:	9912      	ldr	r1, [sp, #72]	; 0x48
 8002772:	eb00 1801 	add.w	r8, r0, r1, lsl #4
 8002776:	f108 0004 	add.w	r0, r8, #4
 800277a:	f108 0b08 	add.w	fp, r8, #8
 800277e:	f108 060c 	add.w	r6, r8, #12
 8002782:	9011      	str	r0, [sp, #68]	; 0x44
 8002784:	f1b9 0f00 	cmp.w	r9, #0
 8002788:	d009      	beq.n	800279e <bar+0x448>
 800278a:	f8db 0000 	ldr.w	r0, [fp]
 800278e:	68b9      	ldr	r1, [r7, #8]
 8002790:	4448      	add	r0, r9
 8002792:	eb01 00c0 	add.w	r0, r1, r0, lsl #3
 8002796:	f8d0 0640 	ldr.w	r0, [r0, #1600]	; 0x640
 800279a:	3001      	adds	r0, #1
 800279c:	e001      	b.n	80027a2 <bar+0x44c>
 800279e:	f8d8 0000 	ldr.w	r0, [r8]
 80027a2:	6831      	ldr	r1, [r6, #0]
 80027a4:	b139      	cbz	r1, 80027b6 <bar+0x460>
 80027a6:	4589      	cmp	r9, r1
 80027a8:	d108      	bne.n	80027bc <bar+0x466>
 80027aa:	9911      	ldr	r1, [sp, #68]	; 0x44
 80027ac:	f8d8 2000 	ldr.w	r2, [r8]
 80027b0:	6809      	ldr	r1, [r1, #0]
 80027b2:	4411      	add	r1, r2
 80027b4:	e00a      	b.n	80027cc <bar+0x476>
 80027b6:	9911      	ldr	r1, [sp, #68]	; 0x44
 80027b8:	6809      	ldr	r1, [r1, #0]
 80027ba:	e008      	b.n	80027ce <bar+0x478>
 80027bc:	f8db 1000 	ldr.w	r1, [fp]
 80027c0:	68ba      	ldr	r2, [r7, #8]
 80027c2:	4449      	add	r1, r9
 80027c4:	eb02 01c1 	add.w	r1, r2, r1, lsl #3
 80027c8:	f8d1 1648 	ldr.w	r1, [r1, #1608]	; 0x648
 80027cc:	1a09      	subs	r1, r1, r0
 80027ce:	68ba      	ldr	r2, [r7, #8]
 80027d0:	4653      	mov	r3, sl
 80027d2:	9200      	str	r2, [sp, #0]
 80027d4:	9a12      	ldr	r2, [sp, #72]	; 0x48
 80027d6:	9201      	str	r2, [sp, #4]
 80027d8:	462a      	mov	r2, r5
 80027da:	f7ff fdbc 	bl	8002356 <bar>
 80027de:	4604      	mov	r4, r0
 80027e0:	2c00      	cmp	r4, #0
 80027e2:	dc0d      	bgt.n	8002800 <bar+0x4aa>
 80027e4:	6830      	ldr	r0, [r6, #0]
 80027e6:	f109 0101 	add.w	r1, r9, #1
 80027ea:	4581      	cmp	r9, r0
 80027ec:	4689      	mov	r9, r1
 80027ee:	dbc9      	blt.n	8002784 <bar+0x42e>
 80027f0:	e9dd 8b04 	ldrd	r8, fp, [sp, #16]
 80027f4:	9d09      	ldr	r5, [sp, #36]	; 0x24
 80027f6:	e9dd a60d 	ldrd	sl, r6, [sp, #52]	; 0x34
 80027fa:	2c00      	cmp	r4, #0
 80027fc:	da05      	bge.n	800280a <bar+0x4b4>
 80027fe:	e0d3      	b.n	80029a8 <bar+0x652>
 8002800:	e9dd 8b04 	ldrd	r8, fp, [sp, #16]
 8002804:	9d09      	ldr	r5, [sp, #36]	; 0x24
 8002806:	e9dd a60d 	ldrd	sl, r6, [sp, #52]	; 0x34
 800280a:	68b8      	ldr	r0, [r7, #8]
 800280c:	f8d0 0968 	ldr.w	r0, [r0, #2408]	; 0x968
 8002810:	b138      	cbz	r0, 8002822 <bar+0x4cc>
 8002812:	9907      	ldr	r1, [sp, #28]
 8002814:	9a08      	ldr	r2, [sp, #32]
 8002816:	4451      	add	r1, sl
 8002818:	f840 1032 	str.w	r1, [r0, r2, lsl #3]
 800281c:	eb00 00c2 	add.w	r0, r0, r2, lsl #3
 8002820:	6044      	str	r4, [r0, #4]
 8002822:	9812      	ldr	r0, [sp, #72]	; 0x48
 8002824:	44a2      	add	sl, r4
 8002826:	9c06      	ldr	r4, [sp, #24]
 8002828:	9008      	str	r0, [sp, #32]
 800282a:	45aa      	cmp	sl, r5
 800282c:	dd27      	ble.n	800287e <bar+0x528>
 800282e:	e031      	b.n	8002894 <bar+0x53e>
 8002830:	68b8      	ldr	r0, [r7, #8]
 8002832:	f8dd a034 	ldr.w	sl, [sp, #52]	; 0x34
 8002836:	9d09      	ldr	r5, [sp, #36]	; 0x24
 8002838:	4621      	mov	r1, r4
 800283a:	9000      	str	r0, [sp, #0]
 800283c:	9808      	ldr	r0, [sp, #32]
 800283e:	eba5 030a 	sub.w	r3, r5, sl
 8002842:	9001      	str	r0, [sp, #4]
 8002844:	9807      	ldr	r0, [sp, #28]
 8002846:	eb00 020a 	add.w	r2, r0, sl
 800284a:	4648      	mov	r0, r9
 800284c:	f7ff fd83 	bl	8002356 <bar>
 8002850:	9e0e      	ldr	r6, [sp, #56]	; 0x38
 8002852:	2800      	cmp	r0, #0
 8002854:	bfc8      	it	gt
 8002856:	4482      	addgt	sl, r0
 8002858:	3601      	adds	r6, #1
 800285a:	45aa      	cmp	sl, r5
 800285c:	dd0f      	ble.n	800287e <bar+0x528>
 800285e:	e019      	b.n	8002894 <bar+0x53e>
 8002860:	f8dd a034 	ldr.w	sl, [sp, #52]	; 0x34
 8002864:	f04f 34ff 	mov.w	r4, #4294967295	; 0xffffffff
 8002868:	2b5e      	cmp	r3, #94	; 0x5e
 800286a:	f040 809d 	bne.w	80029a8 <bar+0x652>
 800286e:	2800      	cmp	r0, #0
 8002870:	f300 809a 	bgt.w	80029a8 <bar+0x652>
 8002874:	f10a 0a01 	add.w	sl, sl, #1
 8002878:	4614      	mov	r4, r2
 800287a:	45aa      	cmp	sl, r5
 800287c:	dc0a      	bgt.n	8002894 <bar+0x53e>
 800287e:	4426      	add	r6, r4
 8002880:	f1ca 0e00 	rsb	lr, sl, #0
 8002884:	4654      	mov	r4, sl
 8002886:	4546      	cmp	r6, r8
 8002888:	f6ff ad82 	blt.w	8002390 <bar+0x3a>
 800288c:	e08c      	b.n	80029a8 <bar+0x652>
 800288e:	f06f 0404 	mvn.w	r4, #4
 8002892:	e089      	b.n	80029a8 <bar+0x652>
 8002894:	4654      	mov	r4, sl
 8002896:	e087      	b.n	80029a8 <bar+0x652>
 8002898:	f06f 0401 	mvn.w	r4, #1
 800289c:	e084      	b.n	80029a8 <bar+0x652>
 800289e:	f06f 0403 	mvn.w	r4, #3
 80028a2:	e081      	b.n	80029a8 <bar+0x652>
 80028a4:	f10a 0101 	add.w	r1, sl, #1
 80028a8:	9406      	str	r4, [sp, #24]
 80028aa:	4541      	cmp	r1, r8
 80028ac:	da0a      	bge.n	80028c4 <bar+0x56e>
 80028ae:	f81b 0001 	ldrb.w	r0, [fp, r1]
 80028b2:	283f      	cmp	r0, #63	; 0x3f
 80028b4:	f04f 0000 	mov.w	r0, #0
 80028b8:	bf08      	it	eq
 80028ba:	f10a 0102 	addeq.w	r1, sl, #2
 80028be:	bf18      	it	ne
 80028c0:	2001      	movne	r0, #1
 80028c2:	e000      	b.n	80028c6 <bar+0x570>
 80028c4:	2001      	movs	r0, #1
 80028c6:	9011      	str	r0, [sp, #68]	; 0x44
 80028c8:	eba8 0001 	sub.w	r0, r8, r1
 80028cc:	f8dd 8034 	ldr.w	r8, [sp, #52]	; 0x34
 80028d0:	9112      	str	r1, [sp, #72]	; 0x48
 80028d2:	9010      	str	r0, [sp, #64]	; 0x40
 80028d4:	eb0b 0001 	add.w	r0, fp, r1
 80028d8:	f04f 3bff 	mov.w	fp, #4294967295	; 0xffffffff
 80028dc:	900f      	str	r0, [sp, #60]	; 0x3c
 80028de:	4644      	mov	r4, r8
 80028e0:	68b8      	ldr	r0, [r7, #8]
 80028e2:	9906      	ldr	r1, [sp, #24]
 80028e4:	9000      	str	r0, [sp, #0]
 80028e6:	9808      	ldr	r0, [sp, #32]
 80028e8:	9001      	str	r0, [sp, #4]
 80028ea:	9807      	ldr	r0, [sp, #28]
 80028ec:	1902      	adds	r2, r0, r4
 80028ee:	9809      	ldr	r0, [sp, #36]	; 0x24
 80028f0:	1b03      	subs	r3, r0, r4
 80028f2:	4648      	mov	r0, r9
 80028f4:	f7ff fd2f 	bl	8002356 <bar>
 80028f8:	4605      	mov	r5, r0
 80028fa:	2d00      	cmp	r5, #0
 80028fc:	bfc8      	it	gt
 80028fe:	442c      	addgt	r4, r5
 8002900:	f1b5 3fff 	cmp.w	r5, #4294967295	; 0xffffffff
 8002904:	dc04      	bgt.n	8002910 <bar+0x5ba>
 8002906:	9805      	ldr	r0, [sp, #20]
 8002908:	f810 000a 	ldrb.w	r0, [r0, sl]
 800290c:	282b      	cmp	r0, #43	; 0x2b
 800290e:	d03f      	beq.n	8002990 <bar+0x63a>
 8002910:	9804      	ldr	r0, [sp, #16]
 8002912:	9912      	ldr	r1, [sp, #72]	; 0x48
 8002914:	4626      	mov	r6, r4
 8002916:	4281      	cmp	r1, r0
 8002918:	da12      	bge.n	8002940 <bar+0x5ea>
 800291a:	68b8      	ldr	r0, [r7, #8]
 800291c:	9000      	str	r0, [sp, #0]
 800291e:	9808      	ldr	r0, [sp, #32]
 8002920:	9001      	str	r0, [sp, #4]
 8002922:	9807      	ldr	r0, [sp, #28]
 8002924:	1902      	adds	r2, r0, r4
 8002926:	9809      	ldr	r0, [sp, #36]	; 0x24
 8002928:	1b03      	subs	r3, r0, r4
 800292a:	e9dd 010f 	ldrd	r0, r1, [sp, #60]	; 0x3c
 800292e:	f7ff fd12 	bl	8002356 <bar>
 8002932:	4683      	mov	fp, r0
 8002934:	f1bb 3fff 	cmp.w	fp, #4294967295	; 0xffffffff
 8002938:	bfc8      	it	gt
 800293a:	eb0b 0804 	addgt.w	r8, fp, r4
 800293e:	4646      	mov	r6, r8
 8002940:	980d      	ldr	r0, [sp, #52]	; 0x34
 8002942:	4286      	cmp	r6, r0
 8002944:	f04f 0000 	mov.w	r0, #0
 8002948:	bfd8      	it	le
 800294a:	2001      	movle	r0, #1
 800294c:	2d01      	cmp	r5, #1
 800294e:	db03      	blt.n	8002958 <bar+0x602>
 8002950:	9911      	ldr	r1, [sp, #68]	; 0x44
 8002952:	46b0      	mov	r8, r6
 8002954:	4308      	orrs	r0, r1
 8002956:	d1c3      	bne.n	80028e0 <bar+0x58a>
 8002958:	f1b5 3fff 	cmp.w	r5, #4294967295	; 0xffffffff
 800295c:	dc19      	bgt.n	8002992 <bar+0x63c>
 800295e:	9805      	ldr	r0, [sp, #20]
 8002960:	f810 000a 	ldrb.w	r0, [r0, sl]
 8002964:	282a      	cmp	r0, #42	; 0x2a
 8002966:	d114      	bne.n	8002992 <bar+0x63c>
 8002968:	68b8      	ldr	r0, [r7, #8]
 800296a:	9c0d      	ldr	r4, [sp, #52]	; 0x34
 800296c:	9000      	str	r0, [sp, #0]
 800296e:	9808      	ldr	r0, [sp, #32]
 8002970:	9001      	str	r0, [sp, #4]
 8002972:	9807      	ldr	r0, [sp, #28]
 8002974:	1902      	adds	r2, r0, r4
 8002976:	9809      	ldr	r0, [sp, #36]	; 0x24
 8002978:	1b03      	subs	r3, r0, r4
 800297a:	e9dd 010f 	ldrd	r0, r1, [sp, #60]	; 0x3c
 800297e:	f7ff fcea 	bl	8002356 <bar>
 8002982:	4683      	mov	fp, r0
 8002984:	f1bb 0f00 	cmp.w	fp, #0
 8002988:	bfc8      	it	gt
 800298a:	eb0b 0604 	addgt.w	r6, fp, r4
 800298e:	e000      	b.n	8002992 <bar+0x63c>
 8002990:	4646      	mov	r6, r8
 8002992:	980d      	ldr	r0, [sp, #52]	; 0x34
 8002994:	9904      	ldr	r1, [sp, #16]
 8002996:	4286      	cmp	r6, r0
 8002998:	bf02      	ittt	eq
 800299a:	9805      	ldreq	r0, [sp, #20]
 800299c:	f810 000a 	ldrbeq.w	r0, [r0, sl]
 80029a0:	282b      	cmpeq	r0, #43	; 0x2b
 80029a2:	d106      	bne.n	80029b2 <bar+0x65c>
 80029a4:	f04f 34ff 	mov.w	r4, #4294967295	; 0xffffffff
 80029a8:	4620      	mov	r0, r4
 80029aa:	b013      	add	sp, #76	; 0x4c
 80029ac:	e8bd 0f00 	ldmia.w	sp!, {r8, r9, sl, fp}
 80029b0:	bdf0      	pop	{r4, r5, r6, r7, pc}
 80029b2:	f1bb 0f00 	cmp.w	fp, #0
 80029b6:	4630      	mov	r0, r6
 80029b8:	bfb8      	it	lt
 80029ba:	f04f 30ff 	movlt.w	r0, #4294967295	; 0xffffffff
 80029be:	9a12      	ldr	r2, [sp, #72]	; 0x48
 80029c0:	428a      	cmp	r2, r1
 80029c2:	bfa8      	it	ge
 80029c4:	4630      	movge	r0, r6
 80029c6:	990d      	ldr	r1, [sp, #52]	; 0x34
 80029c8:	428e      	cmp	r6, r1
 80029ca:	bf18      	it	ne
 80029cc:	4630      	movne	r0, r6
 80029ce:	e7ec      	b.n	80029aa <bar+0x654>

080029d0 <match_op>:
 80029d0:	b5f0      	push	{r4, r5, r6, r7, lr}
 80029d2:	af03      	add	r7, sp, #12
 80029d4:	f84d 8d04 	str.w	r8, [sp, #-4]!
 80029d8:	4605      	mov	r5, r0
 80029da:	460c      	mov	r4, r1
 80029dc:	782e      	ldrb	r6, [r5, #0]
 80029de:	2e5b      	cmp	r6, #91	; 0x5b
 80029e0:	dc06      	bgt.n	80029f0 <match_op+0x20>
 80029e2:	2e24      	cmp	r6, #36	; 0x24
 80029e4:	f000 8092 	beq.w	8002b0c <match_op+0x13c>
 80029e8:	2e2e      	cmp	r6, #46	; 0x2e
 80029ea:	f000 808b 	beq.w	8002b04 <match_op+0x134>
 80029ee:	e02b      	b.n	8002a48 <match_op+0x78>
 80029f0:	2e7c      	cmp	r6, #124	; 0x7c
 80029f2:	bf02      	ittt	eq
 80029f4:	f06f 0003 	mvneq.w	r0, #3
 80029f8:	f85d 8b04 	ldreq.w	r8, [sp], #4
 80029fc:	bdf0      	popeq	{r4, r5, r6, r7, pc}
 80029fe:	2e5c      	cmp	r6, #92	; 0x5c
 8002a00:	d122      	bne.n	8002a48 <match_op+0x78>
 8002a02:	7868      	ldrb	r0, [r5, #1]
 8002a04:	f1a0 0153 	sub.w	r1, r0, #83	; 0x53
 8002a08:	2925      	cmp	r1, #37	; 0x25
 8002a0a:	f200 8078 	bhi.w	8002afe <match_op+0x12e>
 8002a0e:	e8df f001 	tbb	[pc, r1]
 8002a12:	7613      	.short	0x7613
 8002a14:	76767676 	.word	0x76767676
 8002a18:	76767676 	.word	0x76767676
 8002a1c:	76767676 	.word	0x76767676
 8002a20:	39767676 	.word	0x39767676
 8002a24:	76767676 	.word	0x76767676
 8002a28:	76767676 	.word	0x76767676
 8002a2c:	76767676 	.word	0x76767676
 8002a30:	76417676 	.word	0x76417676
 8002a34:	49767676 	.word	0x49767676
 8002a38:	f000 f9ae 	bl	8002d98 <__locale_ctype_ptr>
 8002a3c:	7821      	ldrb	r1, [r4, #0]
 8002a3e:	4408      	add	r0, r1
 8002a40:	7840      	ldrb	r0, [r0, #1]
 8002a42:	0700      	lsls	r0, r0, #28
 8002a44:	d55e      	bpl.n	8002b04 <match_op+0x134>
 8002a46:	e061      	b.n	8002b0c <match_op+0x13c>
 8002a48:	f892 0970 	ldrb.w	r0, [r2, #2416]	; 0x970
 8002a4c:	07c0      	lsls	r0, r0, #31
 8002a4e:	d103      	bne.n	8002a58 <match_op+0x88>
 8002a50:	7820      	ldrb	r0, [r4, #0]
 8002a52:	4286      	cmp	r6, r0
 8002a54:	d056      	beq.n	8002b04 <match_op+0x134>
 8002a56:	e059      	b.n	8002b0c <match_op+0x13c>
 8002a58:	f000 f99e 	bl	8002d98 <__locale_ctype_ptr>
 8002a5c:	4430      	add	r0, r6
 8002a5e:	7840      	ldrb	r0, [r0, #1]
 8002a60:	f000 0003 	and.w	r0, r0, #3
 8002a64:	2801      	cmp	r0, #1
 8002a66:	bf08      	it	eq
 8002a68:	3620      	addeq	r6, #32
 8002a6a:	7824      	ldrb	r4, [r4, #0]
 8002a6c:	f000 f994 	bl	8002d98 <__locale_ctype_ptr>
 8002a70:	4420      	add	r0, r4
 8002a72:	7840      	ldrb	r0, [r0, #1]
 8002a74:	f000 0003 	and.w	r0, r0, #3
 8002a78:	2801      	cmp	r0, #1
 8002a7a:	bf08      	it	eq
 8002a7c:	3420      	addeq	r4, #32
 8002a7e:	42a6      	cmp	r6, r4
 8002a80:	d040      	beq.n	8002b04 <match_op+0x134>
 8002a82:	e043      	b.n	8002b0c <match_op+0x13c>
 8002a84:	f000 f988 	bl	8002d98 <__locale_ctype_ptr>
 8002a88:	7821      	ldrb	r1, [r4, #0]
 8002a8a:	4408      	add	r0, r1
 8002a8c:	7840      	ldrb	r0, [r0, #1]
 8002a8e:	0740      	lsls	r0, r0, #29
 8002a90:	d438      	bmi.n	8002b04 <match_op+0x134>
 8002a92:	e03b      	b.n	8002b0c <match_op+0x13c>
 8002a94:	f000 f980 	bl	8002d98 <__locale_ctype_ptr>
 8002a98:	7821      	ldrb	r1, [r4, #0]
 8002a9a:	4408      	add	r0, r1
 8002a9c:	7840      	ldrb	r0, [r0, #1]
 8002a9e:	0700      	lsls	r0, r0, #28
 8002aa0:	d430      	bmi.n	8002b04 <match_op+0x134>
 8002aa2:	e033      	b.n	8002b0c <match_op+0x13c>
 8002aa4:	78ae      	ldrb	r6, [r5, #2]
 8002aa6:	f000 f977 	bl	8002d98 <__locale_ctype_ptr>
 8002aaa:	4430      	add	r0, r6
 8002aac:	7840      	ldrb	r0, [r0, #1]
 8002aae:	f000 0003 	and.w	r0, r0, #3
 8002ab2:	2801      	cmp	r0, #1
 8002ab4:	bf08      	it	eq
 8002ab6:	3620      	addeq	r6, #32
 8002ab8:	f000 f96e 	bl	8002d98 <__locale_ctype_ptr>
 8002abc:	4430      	add	r0, r6
 8002abe:	f04f 0857 	mov.w	r8, #87	; 0x57
 8002ac2:	7840      	ldrb	r0, [r0, #1]
 8002ac4:	f010 0f04 	tst.w	r0, #4
 8002ac8:	f04f 0057 	mov.w	r0, #87	; 0x57
 8002acc:	bf18      	it	ne
 8002ace:	2030      	movne	r0, #48	; 0x30
 8002ad0:	78ed      	ldrb	r5, [r5, #3]
 8002ad2:	1a36      	subs	r6, r6, r0
 8002ad4:	f000 f960 	bl	8002d98 <__locale_ctype_ptr>
 8002ad8:	4428      	add	r0, r5
 8002ada:	7840      	ldrb	r0, [r0, #1]
 8002adc:	f000 0003 	and.w	r0, r0, #3
 8002ae0:	2801      	cmp	r0, #1
 8002ae2:	bf08      	it	eq
 8002ae4:	3520      	addeq	r5, #32
 8002ae6:	f000 f957 	bl	8002d98 <__locale_ctype_ptr>
 8002aea:	4428      	add	r0, r5
 8002aec:	7840      	ldrb	r0, [r0, #1]
 8002aee:	0740      	lsls	r0, r0, #29
 8002af0:	bf48      	it	mi
 8002af2:	f04f 0830 	movmi.w	r8, #48	; 0x30
 8002af6:	eba5 0008 	sub.w	r0, r5, r8
 8002afa:	ea40 1006 	orr.w	r0, r0, r6, lsl #4
 8002afe:	7821      	ldrb	r1, [r4, #0]
 8002b00:	4288      	cmp	r0, r1
 8002b02:	d103      	bne.n	8002b0c <match_op+0x13c>
 8002b04:	2001      	movs	r0, #1
 8002b06:	f85d 8b04 	ldr.w	r8, [sp], #4
 8002b0a:	bdf0      	pop	{r4, r5, r6, r7, pc}
 8002b0c:	f04f 30ff 	mov.w	r0, #4294967295	; 0xffffffff
 8002b10:	f85d 8b04 	ldr.w	r8, [sp], #4
 8002b14:	bdf0      	pop	{r4, r5, r6, r7, pc}

08002b16 <__io_putchar>:
 8002b16:	b580      	push	{r7, lr}
 8002b18:	466f      	mov	r7, sp
 8002b1a:	b082      	sub	sp, #8
 8002b1c:	9001      	str	r0, [sp, #4]
 8002b1e:	f640 2024 	movw	r0, #2596	; 0xa24
 8002b22:	a901      	add	r1, sp, #4
 8002b24:	2201      	movs	r2, #1
 8002b26:	f64f 73ff 	movw	r3, #65535	; 0xffff
 8002b2a:	f2c2 0000 	movt	r0, #8192	; 0x2000
 8002b2e:	f7ff f8e2 	bl	8001cf6 <HAL_UART_Transmit>
 8002b32:	9801      	ldr	r0, [sp, #4]
 8002b34:	b002      	add	sp, #8
 8002b36:	bd80      	pop	{r7, pc}

08002b38 <main>:
 8002b38:	b5b0      	push	{r4, r5, r7, lr}
 8002b3a:	af02      	add	r7, sp, #8
 8002b3c:	f640 2124 	movw	r1, #2596	; 0xa24
 8002b40:	f643 0000 	movw	r0, #14336	; 0x3800
 8002b44:	220c      	movs	r2, #12
 8002b46:	f2c2 0100 	movt	r1, #8192	; 0x2000
 8002b4a:	f2c4 0001 	movt	r0, #16385	; 0x4001
 8002b4e:	6008      	str	r0, [r1, #0]
 8002b50:	f44f 30e1 	mov.w	r0, #115200	; 0x1c200
 8002b54:	6048      	str	r0, [r1, #4]
 8002b56:	2000      	movs	r0, #0
 8002b58:	e9c1 0002 	strd	r0, r0, [r1, #8]
 8002b5c:	6108      	str	r0, [r1, #16]
 8002b5e:	6248      	str	r0, [r1, #36]	; 0x24
 8002b60:	e9c1 0007 	strd	r0, r0, [r1, #28]
 8002b64:	e9c1 2005 	strd	r2, r0, [r1, #20]
 8002b68:	2000      	movs	r0, #0
 8002b6a:	f7ff f959 	bl	8001e20 <BSP_COM_Init>
 8002b6e:	f7ff fba3 	bl	80022b8 <initialise_benchmark>
 8002b72:	f647 3081 	movw	r0, #31617	; 0x7b81
 8002b76:	f6c0 0000 	movt	r0, #2048	; 0x800
 8002b7a:	f000 f97b 	bl	8002e74 <printf>
 8002b7e:	f647 4028 	movw	r0, #31784	; 0x7c28
 8002b82:	f6c0 0000 	movt	r0, #2048	; 0x800
 8002b86:	f000 f9d7 	bl	8002f38 <puts>
 8002b8a:	f7fe fabb 	bl	8001104 <HAL_Init>
 8002b8e:	f7fe fad1 	bl	8001134 <HAL_GetTick>
 8002b92:	4604      	mov	r4, r0
 8002b94:	f7ff fb91 	bl	80022ba <benchmark>
 8002b98:	4605      	mov	r5, r0
 8002b9a:	f7fe facb 	bl	8001134 <HAL_GetTick>
 8002b9e:	1b04      	subs	r4, r0, r4
 8002ba0:	4628      	mov	r0, r5
 8002ba2:	f7ff fbd2 	bl	800234a <verify_benchmark>
 8002ba6:	1c41      	adds	r1, r0, #1
 8002ba8:	d006      	beq.n	8002bb8 <main+0x80>
 8002baa:	2801      	cmp	r0, #1
 8002bac:	d109      	bne.n	8002bc2 <main+0x8a>
 8002bae:	f647 3094 	movw	r0, #31636	; 0x7b94
 8002bb2:	f6c0 0000 	movt	r0, #2048	; 0x800
 8002bb6:	e008      	b.n	8002bca <main+0x92>
 8002bb8:	f647 30b8 	movw	r0, #31672	; 0x7bb8
 8002bbc:	f6c0 0000 	movt	r0, #2048	; 0x800
 8002bc0:	e003      	b.n	8002bca <main+0x92>
 8002bc2:	f647 30ed 	movw	r0, #31725	; 0x7bed
 8002bc6:	f6c0 0000 	movt	r0, #2048	; 0x800
 8002bca:	4621      	mov	r1, r4
 8002bcc:	f000 f952 	bl	8002e74 <printf>
 8002bd0:	2000      	movs	r0, #0
 8002bd2:	bdb0      	pop	{r4, r5, r7, pc}

08002bd4 <SysTick_Handler>:
 8002bd4:	b580      	push	{r7, lr}
 8002bd6:	466f      	mov	r7, sp
 8002bd8:	f7fe faa4 	bl	8001124 <HAL_IncTick>
 8002bdc:	e8bd 4080 	ldmia.w	sp!, {r7, lr}
 8002be0:	f7fe bafe 	b.w	80011e0 <HAL_SYSTICK_IRQHandler>

08002be4 <_read>:
 8002be4:	b5f0      	push	{r4, r5, r6, r7, lr}
 8002be6:	af03      	add	r7, sp, #12
 8002be8:	f84d bd04 	str.w	fp, [sp, #-4]!
 8002bec:	4614      	mov	r4, r2
 8002bee:	460d      	mov	r5, r1
 8002bf0:	2c01      	cmp	r4, #1
 8002bf2:	db06      	blt.n	8002c02 <_read+0x1e>
 8002bf4:	4626      	mov	r6, r4
 8002bf6:	f3af 8000 	nop.w
 8002bfa:	f805 0b01 	strb.w	r0, [r5], #1
 8002bfe:	3e01      	subs	r6, #1
 8002c00:	d1f9      	bne.n	8002bf6 <_read+0x12>
 8002c02:	4620      	mov	r0, r4
 8002c04:	f85d bb04 	ldr.w	fp, [sp], #4
 8002c08:	bdf0      	pop	{r4, r5, r6, r7, pc}

08002c0a <_write>:
 8002c0a:	b5f0      	push	{r4, r5, r6, r7, lr}
 8002c0c:	af03      	add	r7, sp, #12
 8002c0e:	f84d bd04 	str.w	fp, [sp, #-4]!
 8002c12:	4614      	mov	r4, r2
 8002c14:	460d      	mov	r5, r1
 8002c16:	2c01      	cmp	r4, #1
 8002c18:	db06      	blt.n	8002c28 <_write+0x1e>
 8002c1a:	4626      	mov	r6, r4
 8002c1c:	f815 0b01 	ldrb.w	r0, [r5], #1
 8002c20:	f7ff ff79 	bl	8002b16 <__io_putchar>
 8002c24:	3e01      	subs	r6, #1
 8002c26:	d1f9      	bne.n	8002c1c <_write+0x12>
 8002c28:	4620      	mov	r0, r4
 8002c2a:	f85d bb04 	ldr.w	fp, [sp], #4
 8002c2e:	bdf0      	pop	{r4, r5, r6, r7, pc}

08002c30 <_sbrk>:
 8002c30:	f640 22a8 	movw	r2, #2728	; 0xaa8
 8002c34:	4601      	mov	r1, r0
 8002c36:	466b      	mov	r3, sp
 8002c38:	f2c2 0200 	movt	r2, #8192	; 0x2000
 8002c3c:	6810      	ldr	r0, [r2, #0]
 8002c3e:	2800      	cmp	r0, #0
 8002c40:	bf02      	ittt	eq
 8002c42:	f640 3050 	movweq	r0, #2896	; 0xb50
 8002c46:	f2c2 0000 	movteq	r0, #8192	; 0x2000
 8002c4a:	6010      	streq	r0, [r2, #0]
 8002c4c:	4401      	add	r1, r0
 8002c4e:	4299      	cmp	r1, r3
 8002c50:	bf9c      	itt	ls
 8002c52:	6011      	strls	r1, [r2, #0]
 8002c54:	4770      	bxls	lr
 8002c56:	b580      	push	{r7, lr}
 8002c58:	466f      	mov	r7, sp
 8002c5a:	f000 f865 	bl	8002d28 <__errno>
 8002c5e:	210c      	movs	r1, #12
 8002c60:	6001      	str	r1, [r0, #0]
 8002c62:	f04f 30ff 	mov.w	r0, #4294967295	; 0xffffffff
 8002c66:	bd80      	pop	{r7, pc}

08002c68 <_close>:
 8002c68:	f04f 30ff 	mov.w	r0, #4294967295	; 0xffffffff
 8002c6c:	4770      	bx	lr

08002c6e <_fstat>:
 8002c6e:	f44f 5000 	mov.w	r0, #8192	; 0x2000
 8002c72:	6048      	str	r0, [r1, #4]
 8002c74:	2000      	movs	r0, #0
 8002c76:	4770      	bx	lr

08002c78 <_isatty>:
 8002c78:	2001      	movs	r0, #1
 8002c7a:	4770      	bx	lr

08002c7c <_lseek>:
 8002c7c:	2000      	movs	r0, #0
 8002c7e:	4770      	bx	lr

08002c80 <SystemInit>:
 8002c80:	f64e 5088 	movw	r0, #60808	; 0xed88
 8002c84:	f04f 0c00 	mov.w	ip, #0
 8002c88:	f2ce 0000 	movt	r0, #57344	; 0xe000
 8002c8c:	6801      	ldr	r1, [r0, #0]
 8002c8e:	f441 0170 	orr.w	r1, r1, #15728640	; 0xf00000
 8002c92:	6001      	str	r1, [r0, #0]
 8002c94:	f241 0100 	movw	r1, #4096	; 0x1000
 8002c98:	f2c4 0102 	movt	r1, #16386	; 0x4002
 8002c9c:	680a      	ldr	r2, [r1, #0]
 8002c9e:	f042 0201 	orr.w	r2, r2, #1
 8002ca2:	600a      	str	r2, [r1, #0]
 8002ca4:	f8c1 c008 	str.w	ip, [r1, #8]
 8002ca8:	f64f 72ff 	movw	r2, #65535	; 0xffff
 8002cac:	680b      	ldr	r3, [r1, #0]
 8002cae:	f6ce 22f6 	movt	r2, #60150	; 0xeaf6
 8002cb2:	401a      	ands	r2, r3
 8002cb4:	600a      	str	r2, [r1, #0]
 8002cb6:	f44f 5280 	mov.w	r2, #4096	; 0x1000
 8002cba:	60ca      	str	r2, [r1, #12]
 8002cbc:	680a      	ldr	r2, [r1, #0]
 8002cbe:	f422 2280 	bic.w	r2, r2, #262144	; 0x40000
 8002cc2:	600a      	str	r2, [r1, #0]
 8002cc4:	f8c1 c018 	str.w	ip, [r1, #24]
 8002cc8:	f04f 6100 	mov.w	r1, #134217728	; 0x8000000
 8002ccc:	f840 1c80 	str.w	r1, [r0, #-128]
 8002cd0:	4770      	bx	lr
	...

08002cd4 <Reset_Handler>:
 8002cd4:	f8df d034 	ldr.w	sp, [pc, #52]	; 8002d0c <LoopForever+0x2>
 8002cd8:	2100      	movs	r1, #0
 8002cda:	e003      	b.n	8002ce4 <LoopCopyDataInit>

08002cdc <CopyDataInit>:
 8002cdc:	4b0c      	ldr	r3, [pc, #48]	; (8002d10 <LoopForever+0x6>)
 8002cde:	585b      	ldr	r3, [r3, r1]
 8002ce0:	5043      	str	r3, [r0, r1]
 8002ce2:	3104      	adds	r1, #4

08002ce4 <LoopCopyDataInit>:
 8002ce4:	480b      	ldr	r0, [pc, #44]	; (8002d14 <LoopForever+0xa>)
 8002ce6:	4b0c      	ldr	r3, [pc, #48]	; (8002d18 <LoopForever+0xe>)
 8002ce8:	1842      	adds	r2, r0, r1
 8002cea:	429a      	cmp	r2, r3
 8002cec:	d3f6      	bcc.n	8002cdc <CopyDataInit>
 8002cee:	4a0b      	ldr	r2, [pc, #44]	; (8002d1c <LoopForever+0x12>)
 8002cf0:	e002      	b.n	8002cf8 <LoopFillZerobss>

08002cf2 <FillZerobss>:
 8002cf2:	2300      	movs	r3, #0
 8002cf4:	f842 3b04 	str.w	r3, [r2], #4

08002cf8 <LoopFillZerobss>:
 8002cf8:	4b09      	ldr	r3, [pc, #36]	; (8002d20 <LoopForever+0x16>)
 8002cfa:	429a      	cmp	r2, r3
 8002cfc:	d3f9      	bcc.n	8002cf2 <FillZerobss>
 8002cfe:	f7ff ffbf 	bl	8002c80 <SystemInit>
 8002d02:	f000 f817 	bl	8002d34 <__libc_init_array>
 8002d06:	f7ff ff17 	bl	8002b38 <main>

08002d0a <LoopForever>:
 8002d0a:	e7fe      	b.n	8002d0a <LoopForever>
 8002d0c:	20018000 	.word	0x20018000
 8002d10:	08007ed8 	.word	0x08007ed8
 8002d14:	20000000 	.word	0x20000000
 8002d18:	20000a08 	.word	0x20000a08
 8002d1c:	20000a08 	.word	0x20000a08
 8002d20:	20000b50 	.word	0x20000b50

08002d24 <ADC1_2_IRQHandler>:
 8002d24:	e7fe      	b.n	8002d24 <ADC1_2_IRQHandler>
	...

08002d28 <__errno>:
 8002d28:	4b01      	ldr	r3, [pc, #4]	; (8002d30 <__errno+0x8>)
 8002d2a:	6818      	ldr	r0, [r3, #0]
 8002d2c:	4770      	bx	lr
 8002d2e:	bf00      	nop
 8002d30:	20000058 	.word	0x20000058

08002d34 <__libc_init_array>:
 8002d34:	b570      	push	{r4, r5, r6, lr}
 8002d36:	4e0d      	ldr	r6, [pc, #52]	; (8002d6c <__libc_init_array+0x38>)
 8002d38:	4d0d      	ldr	r5, [pc, #52]	; (8002d70 <__libc_init_array+0x3c>)
 8002d3a:	1b76      	subs	r6, r6, r5
 8002d3c:	10b6      	asrs	r6, r6, #2
 8002d3e:	d006      	beq.n	8002d4e <__libc_init_array+0x1a>
 8002d40:	2400      	movs	r4, #0
 8002d42:	3401      	adds	r4, #1
 8002d44:	f855 3b04 	ldr.w	r3, [r5], #4
 8002d48:	4798      	blx	r3
 8002d4a:	42a6      	cmp	r6, r4
 8002d4c:	d1f9      	bne.n	8002d42 <__libc_init_array+0xe>
 8002d4e:	4e09      	ldr	r6, [pc, #36]	; (8002d74 <__libc_init_array+0x40>)
 8002d50:	4d09      	ldr	r5, [pc, #36]	; (8002d78 <__libc_init_array+0x44>)
 8002d52:	1b76      	subs	r6, r6, r5
 8002d54:	f004 feb8 	bl	8007ac8 <_init>
 8002d58:	10b6      	asrs	r6, r6, #2
 8002d5a:	d006      	beq.n	8002d6a <__libc_init_array+0x36>
 8002d5c:	2400      	movs	r4, #0
 8002d5e:	3401      	adds	r4, #1
 8002d60:	f855 3b04 	ldr.w	r3, [r5], #4
 8002d64:	4798      	blx	r3
 8002d66:	42a6      	cmp	r6, r4
 8002d68:	d1f9      	bne.n	8002d5e <__libc_init_array+0x2a>
 8002d6a:	bd70      	pop	{r4, r5, r6, pc}
 8002d6c:	08007ec8 	.word	0x08007ec8
 8002d70:	08007ec8 	.word	0x08007ec8
 8002d74:	08007ed0 	.word	0x08007ed0
 8002d78:	08007ec8 	.word	0x08007ec8

08002d7c <__locale_mb_cur_max>:
 8002d7c:	4b04      	ldr	r3, [pc, #16]	; (8002d90 <__locale_mb_cur_max+0x14>)
 8002d7e:	4a05      	ldr	r2, [pc, #20]	; (8002d94 <__locale_mb_cur_max+0x18>)
 8002d80:	681b      	ldr	r3, [r3, #0]
 8002d82:	6b5b      	ldr	r3, [r3, #52]	; 0x34
 8002d84:	2b00      	cmp	r3, #0
 8002d86:	bf08      	it	eq
 8002d88:	4613      	moveq	r3, r2
 8002d8a:	f893 0128 	ldrb.w	r0, [r3, #296]	; 0x128
 8002d8e:	4770      	bx	lr
 8002d90:	20000058 	.word	0x20000058
 8002d94:	20000488 	.word	0x20000488

08002d98 <__locale_ctype_ptr>:
 8002d98:	4b04      	ldr	r3, [pc, #16]	; (8002dac <__locale_ctype_ptr+0x14>)
 8002d9a:	4a05      	ldr	r2, [pc, #20]	; (8002db0 <__locale_ctype_ptr+0x18>)
 8002d9c:	681b      	ldr	r3, [r3, #0]
 8002d9e:	6b5b      	ldr	r3, [r3, #52]	; 0x34
 8002da0:	2b00      	cmp	r3, #0
 8002da2:	bf08      	it	eq
 8002da4:	4613      	moveq	r3, r2
 8002da6:	f8d3 00ec 	ldr.w	r0, [r3, #236]	; 0xec
 8002daa:	4770      	bx	lr
 8002dac:	20000058 	.word	0x20000058
 8002db0:	20000488 	.word	0x20000488

08002db4 <__ascii_mbtowc>:
 8002db4:	b082      	sub	sp, #8
 8002db6:	b149      	cbz	r1, 8002dcc <__ascii_mbtowc+0x18>
 8002db8:	b15a      	cbz	r2, 8002dd2 <__ascii_mbtowc+0x1e>
 8002dba:	b16b      	cbz	r3, 8002dd8 <__ascii_mbtowc+0x24>
 8002dbc:	7813      	ldrb	r3, [r2, #0]
 8002dbe:	600b      	str	r3, [r1, #0]
 8002dc0:	7812      	ldrb	r2, [r2, #0]
 8002dc2:	1c10      	adds	r0, r2, #0
 8002dc4:	bf18      	it	ne
 8002dc6:	2001      	movne	r0, #1
 8002dc8:	b002      	add	sp, #8
 8002dca:	4770      	bx	lr
 8002dcc:	a901      	add	r1, sp, #4
 8002dce:	2a00      	cmp	r2, #0
 8002dd0:	d1f3      	bne.n	8002dba <__ascii_mbtowc+0x6>
 8002dd2:	4610      	mov	r0, r2
 8002dd4:	b002      	add	sp, #8
 8002dd6:	4770      	bx	lr
 8002dd8:	f06f 0001 	mvn.w	r0, #1
 8002ddc:	e7f4      	b.n	8002dc8 <__ascii_mbtowc+0x14>
 8002dde:	bf00      	nop

08002de0 <memset>:
 8002de0:	b4f0      	push	{r4, r5, r6, r7}
 8002de2:	0786      	lsls	r6, r0, #30
 8002de4:	d043      	beq.n	8002e6e <memset+0x8e>
 8002de6:	1e54      	subs	r4, r2, #1
 8002de8:	2a00      	cmp	r2, #0
 8002dea:	d03e      	beq.n	8002e6a <memset+0x8a>
 8002dec:	b2ca      	uxtb	r2, r1
 8002dee:	4603      	mov	r3, r0
 8002df0:	e002      	b.n	8002df8 <memset+0x18>
 8002df2:	f114 34ff 	adds.w	r4, r4, #4294967295	; 0xffffffff
 8002df6:	d338      	bcc.n	8002e6a <memset+0x8a>
 8002df8:	f803 2b01 	strb.w	r2, [r3], #1
 8002dfc:	079d      	lsls	r5, r3, #30
 8002dfe:	d1f8      	bne.n	8002df2 <memset+0x12>
 8002e00:	2c03      	cmp	r4, #3
 8002e02:	d92b      	bls.n	8002e5c <memset+0x7c>
 8002e04:	b2cd      	uxtb	r5, r1
 8002e06:	ea45 2505 	orr.w	r5, r5, r5, lsl #8
 8002e0a:	2c0f      	cmp	r4, #15
 8002e0c:	ea45 4505 	orr.w	r5, r5, r5, lsl #16
 8002e10:	d916      	bls.n	8002e40 <memset+0x60>
 8002e12:	f1a4 0710 	sub.w	r7, r4, #16
 8002e16:	093f      	lsrs	r7, r7, #4
 8002e18:	f103 0620 	add.w	r6, r3, #32
 8002e1c:	eb06 1607 	add.w	r6, r6, r7, lsl #4
 8002e20:	f103 0210 	add.w	r2, r3, #16
 8002e24:	e942 5504 	strd	r5, r5, [r2, #-16]
 8002e28:	e942 5502 	strd	r5, r5, [r2, #-8]
 8002e2c:	3210      	adds	r2, #16
 8002e2e:	42b2      	cmp	r2, r6
 8002e30:	d1f8      	bne.n	8002e24 <memset+0x44>
 8002e32:	f004 040f 	and.w	r4, r4, #15
 8002e36:	3701      	adds	r7, #1
 8002e38:	2c03      	cmp	r4, #3
 8002e3a:	eb03 1307 	add.w	r3, r3, r7, lsl #4
 8002e3e:	d90d      	bls.n	8002e5c <memset+0x7c>
 8002e40:	461e      	mov	r6, r3
 8002e42:	4622      	mov	r2, r4
 8002e44:	3a04      	subs	r2, #4
 8002e46:	2a03      	cmp	r2, #3
 8002e48:	f846 5b04 	str.w	r5, [r6], #4
 8002e4c:	d8fa      	bhi.n	8002e44 <memset+0x64>
 8002e4e:	1f22      	subs	r2, r4, #4
 8002e50:	f022 0203 	bic.w	r2, r2, #3
 8002e54:	3204      	adds	r2, #4
 8002e56:	4413      	add	r3, r2
 8002e58:	f004 0403 	and.w	r4, r4, #3
 8002e5c:	b12c      	cbz	r4, 8002e6a <memset+0x8a>
 8002e5e:	b2c9      	uxtb	r1, r1
 8002e60:	441c      	add	r4, r3
 8002e62:	f803 1b01 	strb.w	r1, [r3], #1
 8002e66:	429c      	cmp	r4, r3
 8002e68:	d1fb      	bne.n	8002e62 <memset+0x82>
 8002e6a:	bcf0      	pop	{r4, r5, r6, r7}
 8002e6c:	4770      	bx	lr
 8002e6e:	4614      	mov	r4, r2
 8002e70:	4603      	mov	r3, r0
 8002e72:	e7c5      	b.n	8002e00 <memset+0x20>

08002e74 <printf>:
 8002e74:	b40f      	push	{r0, r1, r2, r3}
 8002e76:	b500      	push	{lr}
 8002e78:	4907      	ldr	r1, [pc, #28]	; (8002e98 <printf+0x24>)
 8002e7a:	b083      	sub	sp, #12
 8002e7c:	ab04      	add	r3, sp, #16
 8002e7e:	6808      	ldr	r0, [r1, #0]
 8002e80:	f853 2b04 	ldr.w	r2, [r3], #4
 8002e84:	6881      	ldr	r1, [r0, #8]
 8002e86:	9301      	str	r3, [sp, #4]
 8002e88:	f000 f85e 	bl	8002f48 <_vfprintf_r>
 8002e8c:	b003      	add	sp, #12
 8002e8e:	f85d eb04 	ldr.w	lr, [sp], #4
 8002e92:	b004      	add	sp, #16
 8002e94:	4770      	bx	lr
 8002e96:	bf00      	nop
 8002e98:	20000058 	.word	0x20000058

08002e9c <_puts_r>:
 8002e9c:	b570      	push	{r4, r5, r6, lr}
 8002e9e:	4605      	mov	r5, r0
 8002ea0:	b088      	sub	sp, #32
 8002ea2:	4608      	mov	r0, r1
 8002ea4:	460c      	mov	r4, r1
 8002ea6:	f7fd fc2b 	bl	8000700 <strlen>
 8002eaa:	4a22      	ldr	r2, [pc, #136]	; (8002f34 <_puts_r+0x98>)
 8002eac:	6bab      	ldr	r3, [r5, #56]	; 0x38
 8002eae:	9404      	str	r4, [sp, #16]
 8002eb0:	2601      	movs	r6, #1
 8002eb2:	1c44      	adds	r4, r0, #1
 8002eb4:	a904      	add	r1, sp, #16
 8002eb6:	9206      	str	r2, [sp, #24]
 8002eb8:	2202      	movs	r2, #2
 8002eba:	9403      	str	r4, [sp, #12]
 8002ebc:	9005      	str	r0, [sp, #20]
 8002ebe:	68ac      	ldr	r4, [r5, #8]
 8002ec0:	9607      	str	r6, [sp, #28]
 8002ec2:	e9cd 1201 	strd	r1, r2, [sp, #4]
 8002ec6:	b31b      	cbz	r3, 8002f10 <_puts_r+0x74>
 8002ec8:	6e61      	ldr	r1, [r4, #100]	; 0x64
 8002eca:	f9b4 300c 	ldrsh.w	r3, [r4, #12]
 8002ece:	07ce      	lsls	r6, r1, #31
 8002ed0:	b29a      	uxth	r2, r3
 8002ed2:	d401      	bmi.n	8002ed8 <_puts_r+0x3c>
 8002ed4:	0590      	lsls	r0, r2, #22
 8002ed6:	d525      	bpl.n	8002f24 <_puts_r+0x88>
 8002ed8:	0491      	lsls	r1, r2, #18
 8002eda:	d406      	bmi.n	8002eea <_puts_r+0x4e>
 8002edc:	6e62      	ldr	r2, [r4, #100]	; 0x64
 8002ede:	f443 5300 	orr.w	r3, r3, #8192	; 0x2000
 8002ee2:	f422 5200 	bic.w	r2, r2, #8192	; 0x2000
 8002ee6:	81a3      	strh	r3, [r4, #12]
 8002ee8:	6662      	str	r2, [r4, #100]	; 0x64
 8002eea:	4628      	mov	r0, r5
 8002eec:	aa01      	add	r2, sp, #4
 8002eee:	4621      	mov	r1, r4
 8002ef0:	f003 f86e 	bl	8005fd0 <__sfvwrite_r>
 8002ef4:	6e63      	ldr	r3, [r4, #100]	; 0x64
 8002ef6:	2800      	cmp	r0, #0
 8002ef8:	bf0c      	ite	eq
 8002efa:	250a      	moveq	r5, #10
 8002efc:	f04f 35ff 	movne.w	r5, #4294967295	; 0xffffffff
 8002f00:	07da      	lsls	r2, r3, #31
 8002f02:	d402      	bmi.n	8002f0a <_puts_r+0x6e>
 8002f04:	89a3      	ldrh	r3, [r4, #12]
 8002f06:	059b      	lsls	r3, r3, #22
 8002f08:	d506      	bpl.n	8002f18 <_puts_r+0x7c>
 8002f0a:	4628      	mov	r0, r5
 8002f0c:	b008      	add	sp, #32
 8002f0e:	bd70      	pop	{r4, r5, r6, pc}
 8002f10:	4628      	mov	r0, r5
 8002f12:	f002 fec7 	bl	8005ca4 <__sinit>
 8002f16:	e7d7      	b.n	8002ec8 <_puts_r+0x2c>
 8002f18:	6da0      	ldr	r0, [r4, #88]	; 0x58
 8002f1a:	f003 fa15 	bl	8006348 <__retarget_lock_release_recursive>
 8002f1e:	4628      	mov	r0, r5
 8002f20:	b008      	add	sp, #32
 8002f22:	bd70      	pop	{r4, r5, r6, pc}
 8002f24:	6da0      	ldr	r0, [r4, #88]	; 0x58
 8002f26:	f003 fa0d 	bl	8006344 <__retarget_lock_acquire_recursive>
 8002f2a:	f9b4 300c 	ldrsh.w	r3, [r4, #12]
 8002f2e:	b29a      	uxth	r2, r3
 8002f30:	e7d2      	b.n	8002ed8 <_puts_r+0x3c>
 8002f32:	bf00      	nop
 8002f34:	08007c40 	.word	0x08007c40

08002f38 <puts>:
 8002f38:	4b02      	ldr	r3, [pc, #8]	; (8002f44 <puts+0xc>)
 8002f3a:	4601      	mov	r1, r0
 8002f3c:	6818      	ldr	r0, [r3, #0]
 8002f3e:	f7ff bfad 	b.w	8002e9c <_puts_r>
 8002f42:	bf00      	nop
 8002f44:	20000058 	.word	0x20000058

08002f48 <_vfprintf_r>:
 8002f48:	e92d 4ff0 	stmdb	sp!, {r4, r5, r6, r7, r8, r9, sl, fp, lr}
 8002f4c:	b0d7      	sub	sp, #348	; 0x15c
 8002f4e:	461c      	mov	r4, r3
 8002f50:	4689      	mov	r9, r1
 8002f52:	4617      	mov	r7, r2
 8002f54:	4605      	mov	r5, r0
 8002f56:	9003      	str	r0, [sp, #12]
 8002f58:	f003 f9e2 	bl	8006320 <_localeconv_r>
 8002f5c:	6803      	ldr	r3, [r0, #0]
 8002f5e:	9316      	str	r3, [sp, #88]	; 0x58
 8002f60:	4618      	mov	r0, r3
 8002f62:	f7fd fbcd 	bl	8000700 <strlen>
 8002f66:	9408      	str	r4, [sp, #32]
 8002f68:	9015      	str	r0, [sp, #84]	; 0x54
 8002f6a:	b11d      	cbz	r5, 8002f74 <_vfprintf_r+0x2c>
 8002f6c:	6bab      	ldr	r3, [r5, #56]	; 0x38
 8002f6e:	2b00      	cmp	r3, #0
 8002f70:	f000 8107 	beq.w	8003182 <_vfprintf_r+0x23a>
 8002f74:	f8d9 1064 	ldr.w	r1, [r9, #100]	; 0x64
 8002f78:	f9b9 200c 	ldrsh.w	r2, [r9, #12]
 8002f7c:	07c8      	lsls	r0, r1, #31
 8002f7e:	b293      	uxth	r3, r2
 8002f80:	d402      	bmi.n	8002f88 <_vfprintf_r+0x40>
 8002f82:	0599      	lsls	r1, r3, #22
 8002f84:	f140 811f 	bpl.w	80031c6 <_vfprintf_r+0x27e>
 8002f88:	049e      	lsls	r6, r3, #18
 8002f8a:	d40a      	bmi.n	8002fa2 <_vfprintf_r+0x5a>
 8002f8c:	f8d9 1064 	ldr.w	r1, [r9, #100]	; 0x64
 8002f90:	f442 5300 	orr.w	r3, r2, #8192	; 0x2000
 8002f94:	f421 5100 	bic.w	r1, r1, #8192	; 0x2000
 8002f98:	f8a9 300c 	strh.w	r3, [r9, #12]
 8002f9c:	f8c9 1064 	str.w	r1, [r9, #100]	; 0x64
 8002fa0:	b29b      	uxth	r3, r3
 8002fa2:	071d      	lsls	r5, r3, #28
 8002fa4:	f140 80b2 	bpl.w	800310c <_vfprintf_r+0x1c4>
 8002fa8:	f8d9 2010 	ldr.w	r2, [r9, #16]
 8002fac:	2a00      	cmp	r2, #0
 8002fae:	f000 80ad 	beq.w	800310c <_vfprintf_r+0x1c4>
 8002fb2:	f003 021a 	and.w	r2, r3, #26
 8002fb6:	2a0a      	cmp	r2, #10
 8002fb8:	f000 80c9 	beq.w	800314e <_vfprintf_r+0x206>
 8002fbc:	2300      	movs	r3, #0
 8002fbe:	ed9f 7b86 	vldr	d7, [pc, #536]	; 80031d8 <_vfprintf_r+0x290>
 8002fc2:	9310      	str	r3, [sp, #64]	; 0x40
 8002fc4:	e9cd 332b 	strd	r3, r3, [sp, #172]	; 0xac
 8002fc8:	9317      	str	r3, [sp, #92]	; 0x5c
 8002fca:	e9cd 3319 	strd	r3, r3, [sp, #100]	; 0x64
 8002fce:	931b      	str	r3, [sp, #108]	; 0x6c
 8002fd0:	9318      	str	r3, [sp, #96]	; 0x60
 8002fd2:	9305      	str	r3, [sp, #20]
 8002fd4:	ab2d      	add	r3, sp, #180	; 0xb4
 8002fd6:	932a      	str	r3, [sp, #168]	; 0xa8
 8002fd8:	469b      	mov	fp, r3
 8002fda:	783b      	ldrb	r3, [r7, #0]
 8002fdc:	f8cd 901c 	str.w	r9, [sp, #28]
 8002fe0:	ed8d 7b12 	vstr	d7, [sp, #72]	; 0x48
 8002fe4:	2b00      	cmp	r3, #0
 8002fe6:	f000 8259 	beq.w	800349c <_vfprintf_r+0x554>
 8002fea:	2b25      	cmp	r3, #37	; 0x25
 8002fec:	463c      	mov	r4, r7
 8002fee:	d102      	bne.n	8002ff6 <_vfprintf_r+0xae>
 8002ff0:	e01d      	b.n	800302e <_vfprintf_r+0xe6>
 8002ff2:	2b25      	cmp	r3, #37	; 0x25
 8002ff4:	d003      	beq.n	8002ffe <_vfprintf_r+0xb6>
 8002ff6:	f814 3f01 	ldrb.w	r3, [r4, #1]!
 8002ffa:	2b00      	cmp	r3, #0
 8002ffc:	d1f9      	bne.n	8002ff2 <_vfprintf_r+0xaa>
 8002ffe:	1be5      	subs	r5, r4, r7
 8003000:	b18d      	cbz	r5, 8003026 <_vfprintf_r+0xde>
 8003002:	e9dd 322b 	ldrd	r3, r2, [sp, #172]	; 0xac
 8003006:	3301      	adds	r3, #1
 8003008:	442a      	add	r2, r5
 800300a:	2b07      	cmp	r3, #7
 800300c:	f8cb 7000 	str.w	r7, [fp]
 8003010:	f8cb 5004 	str.w	r5, [fp, #4]
 8003014:	e9cd 322b 	strd	r3, r2, [sp, #172]	; 0xac
 8003018:	f300 80ca 	bgt.w	80031b0 <_vfprintf_r+0x268>
 800301c:	f10b 0b08 	add.w	fp, fp, #8
 8003020:	9b05      	ldr	r3, [sp, #20]
 8003022:	442b      	add	r3, r5
 8003024:	9305      	str	r3, [sp, #20]
 8003026:	7823      	ldrb	r3, [r4, #0]
 8003028:	2b00      	cmp	r3, #0
 800302a:	f000 8237 	beq.w	800349c <_vfprintf_r+0x554>
 800302e:	2300      	movs	r3, #0
 8003030:	7866      	ldrb	r6, [r4, #1]
 8003032:	9306      	str	r3, [sp, #24]
 8003034:	4698      	mov	r8, r3
 8003036:	f88d 308b 	strb.w	r3, [sp, #139]	; 0x8b
 800303a:	f104 0a01 	add.w	sl, r4, #1
 800303e:	f04f 39ff 	mov.w	r9, #4294967295	; 0xffffffff
 8003042:	252b      	movs	r5, #43	; 0x2b
 8003044:	f10a 0a01 	add.w	sl, sl, #1
 8003048:	f1a6 0320 	sub.w	r3, r6, #32
 800304c:	2b5a      	cmp	r3, #90	; 0x5a
 800304e:	f200 842a 	bhi.w	80038a6 <_vfprintf_r+0x95e>
 8003052:	e8df f013 	tbh	[pc, r3, lsl #1]
 8003056:	03aa      	.short	0x03aa
 8003058:	04280428 	.word	0x04280428
 800305c:	0428029c 	.word	0x0428029c
 8003060:	04280428 	.word	0x04280428
 8003064:	042802a7 	.word	0x042802a7
 8003068:	02c60428 	.word	0x02c60428
 800306c:	042802d2 	.word	0x042802d2
 8003070:	02dc02d7 	.word	0x02dc02d7
 8003074:	02f60428 	.word	0x02f60428
 8003078:	026d026d 	.word	0x026d026d
 800307c:	026d026d 	.word	0x026d026d
 8003080:	026d026d 	.word	0x026d026d
 8003084:	026d026d 	.word	0x026d026d
 8003088:	0428026d 	.word	0x0428026d
 800308c:	04280428 	.word	0x04280428
 8003090:	04280428 	.word	0x04280428
 8003094:	04280428 	.word	0x04280428
 8003098:	042802fb 	.word	0x042802fb
 800309c:	03f3033c 	.word	0x03f3033c
 80030a0:	02fb02fb 	.word	0x02fb02fb
 80030a4:	042802fb 	.word	0x042802fb
 80030a8:	04280428 	.word	0x04280428
 80030ac:	03ee0428 	.word	0x03ee0428
 80030b0:	04280428 	.word	0x04280428
 80030b4:	0428009a 	.word	0x0428009a
 80030b8:	04280428 	.word	0x04280428
 80030bc:	04280350 	.word	0x04280350
 80030c0:	04280379 	.word	0x04280379
 80030c4:	03900428 	.word	0x03900428
 80030c8:	04280428 	.word	0x04280428
 80030cc:	04280428 	.word	0x04280428
 80030d0:	04280428 	.word	0x04280428
 80030d4:	04280428 	.word	0x04280428
 80030d8:	042802fb 	.word	0x042802fb
 80030dc:	00c5033c 	.word	0x00c5033c
 80030e0:	02fb02fb 	.word	0x02fb02fb
 80030e4:	03d102fb 	.word	0x03d102fb
 80030e8:	007000c5 	.word	0x007000c5
 80030ec:	03b50428 	.word	0x03b50428
 80030f0:	03c20428 	.word	0x03c20428
 80030f4:	03de009c 	.word	0x03de009c
 80030f8:	04280070 	.word	0x04280070
 80030fc:	00720350 	.word	0x00720350
 8003100:	0428022c 	.word	0x0428022c
 8003104:	027c0428 	.word	0x027c0428
 8003108:	00720428 	.word	0x00720428
 800310c:	4649      	mov	r1, r9
 800310e:	9803      	ldr	r0, [sp, #12]
 8003110:	f001 fca8 	bl	8004a64 <__swsetup_r>
 8003114:	b1a0      	cbz	r0, 8003140 <_vfprintf_r+0x1f8>
 8003116:	f8d9 3064 	ldr.w	r3, [r9, #100]	; 0x64
 800311a:	07d8      	lsls	r0, r3, #31
 800311c:	d404      	bmi.n	8003128 <_vfprintf_r+0x1e0>
 800311e:	f8b9 300c 	ldrh.w	r3, [r9, #12]
 8003122:	0599      	lsls	r1, r3, #22
 8003124:	f140 83b7 	bpl.w	8003896 <_vfprintf_r+0x94e>
 8003128:	f04f 33ff 	mov.w	r3, #4294967295	; 0xffffffff
 800312c:	9305      	str	r3, [sp, #20]
 800312e:	9805      	ldr	r0, [sp, #20]
 8003130:	b057      	add	sp, #348	; 0x15c
 8003132:	e8bd 8ff0 	ldmia.w	sp!, {r4, r5, r6, r7, r8, r9, sl, fp, pc}
 8003136:	f048 0820 	orr.w	r8, r8, #32
 800313a:	f89a 6000 	ldrb.w	r6, [sl]
 800313e:	e781      	b.n	8003044 <_vfprintf_r+0xfc>
 8003140:	f8b9 300c 	ldrh.w	r3, [r9, #12]
 8003144:	f003 021a 	and.w	r2, r3, #26
 8003148:	2a0a      	cmp	r2, #10
 800314a:	f47f af37 	bne.w	8002fbc <_vfprintf_r+0x74>
 800314e:	f9b9 200e 	ldrsh.w	r2, [r9, #14]
 8003152:	2a00      	cmp	r2, #0
 8003154:	f6ff af32 	blt.w	8002fbc <_vfprintf_r+0x74>
 8003158:	f8d9 2064 	ldr.w	r2, [r9, #100]	; 0x64
 800315c:	07d2      	lsls	r2, r2, #31
 800315e:	d405      	bmi.n	800316c <_vfprintf_r+0x224>
 8003160:	059b      	lsls	r3, r3, #22
 8003162:	d403      	bmi.n	800316c <_vfprintf_r+0x224>
 8003164:	f8d9 0058 	ldr.w	r0, [r9, #88]	; 0x58
 8003168:	f003 f8ee 	bl	8006348 <__retarget_lock_release_recursive>
 800316c:	4623      	mov	r3, r4
 800316e:	463a      	mov	r2, r7
 8003170:	4649      	mov	r1, r9
 8003172:	9803      	ldr	r0, [sp, #12]
 8003174:	f001 fc26 	bl	80049c4 <__sbprintf>
 8003178:	9005      	str	r0, [sp, #20]
 800317a:	9805      	ldr	r0, [sp, #20]
 800317c:	b057      	add	sp, #348	; 0x15c
 800317e:	e8bd 8ff0 	ldmia.w	sp!, {r4, r5, r6, r7, r8, r9, sl, fp, pc}
 8003182:	9803      	ldr	r0, [sp, #12]
 8003184:	f002 fd8e 	bl	8005ca4 <__sinit>
 8003188:	e6f4      	b.n	8002f74 <_vfprintf_r+0x2c>
 800318a:	f048 0810 	orr.w	r8, r8, #16
 800318e:	f018 0f20 	tst.w	r8, #32
 8003192:	f000 836c 	beq.w	800386e <_vfprintf_r+0x926>
 8003196:	9c08      	ldr	r4, [sp, #32]
 8003198:	3407      	adds	r4, #7
 800319a:	f024 0307 	bic.w	r3, r4, #7
 800319e:	e9d3 4500 	ldrd	r4, r5, [r3]
 80031a2:	f103 0208 	add.w	r2, r3, #8
 80031a6:	9208      	str	r2, [sp, #32]
 80031a8:	f428 6380 	bic.w	r3, r8, #1024	; 0x400
 80031ac:	2200      	movs	r2, #0
 80031ae:	e18c      	b.n	80034ca <_vfprintf_r+0x582>
 80031b0:	aa2a      	add	r2, sp, #168	; 0xa8
 80031b2:	9907      	ldr	r1, [sp, #28]
 80031b4:	9803      	ldr	r0, [sp, #12]
 80031b6:	f004 fa05 	bl	80075c4 <__sprint_r>
 80031ba:	2800      	cmp	r0, #0
 80031bc:	f041 8376 	bne.w	80048ac <_vfprintf_r+0x1964>
 80031c0:	f10d 0bb4 	add.w	fp, sp, #180	; 0xb4
 80031c4:	e72c      	b.n	8003020 <_vfprintf_r+0xd8>
 80031c6:	f8d9 0058 	ldr.w	r0, [r9, #88]	; 0x58
 80031ca:	f003 f8bb 	bl	8006344 <__retarget_lock_acquire_recursive>
 80031ce:	f9b9 200c 	ldrsh.w	r2, [r9, #12]
 80031d2:	b293      	uxth	r3, r2
 80031d4:	e6d8      	b.n	8002f88 <_vfprintf_r+0x40>
 80031d6:	bf00      	nop
	...
 80031e0:	4643      	mov	r3, r8
 80031e2:	069f      	lsls	r7, r3, #26
 80031e4:	f140 832f 	bpl.w	8003846 <_vfprintf_r+0x8fe>
 80031e8:	9c08      	ldr	r4, [sp, #32]
 80031ea:	3407      	adds	r4, #7
 80031ec:	f024 0407 	bic.w	r4, r4, #7
 80031f0:	e9d4 0100 	ldrd	r0, r1, [r4]
 80031f4:	f104 0208 	add.w	r2, r4, #8
 80031f8:	9208      	str	r2, [sp, #32]
 80031fa:	4604      	mov	r4, r0
 80031fc:	460d      	mov	r5, r1
 80031fe:	2800      	cmp	r0, #0
 8003200:	f171 0200 	sbcs.w	r2, r1, #0
 8003204:	da05      	bge.n	8003212 <_vfprintf_r+0x2ca>
 8003206:	222d      	movs	r2, #45	; 0x2d
 8003208:	4264      	negs	r4, r4
 800320a:	eb65 0545 	sbc.w	r5, r5, r5, lsl #1
 800320e:	f88d 208b 	strb.w	r2, [sp, #139]	; 0x8b
 8003212:	aa56      	add	r2, sp, #344	; 0x158
 8003214:	f1b9 3fff 	cmp.w	r9, #4294967295	; 0xffffffff
 8003218:	9204      	str	r2, [sp, #16]
 800321a:	f000 84b2 	beq.w	8003b82 <_vfprintf_r+0xc3a>
 800321e:	2201      	movs	r2, #1
 8003220:	ea54 0105 	orrs.w	r1, r4, r5
 8003224:	f023 0880 	bic.w	r8, r3, #128	; 0x80
 8003228:	f040 8159 	bne.w	80034de <_vfprintf_r+0x596>
 800322c:	f1b9 0f00 	cmp.w	r9, #0
 8003230:	f040 8619 	bne.w	8003e66 <_vfprintf_r+0xf1e>
 8003234:	2a00      	cmp	r2, #0
 8003236:	f040 8508 	bne.w	8003c4a <_vfprintf_r+0xd02>
 800323a:	f013 0301 	ands.w	r3, r3, #1
 800323e:	af56      	add	r7, sp, #344	; 0x158
 8003240:	9309      	str	r3, [sp, #36]	; 0x24
 8003242:	d002      	beq.n	800324a <_vfprintf_r+0x302>
 8003244:	2330      	movs	r3, #48	; 0x30
 8003246:	f807 3d01 	strb.w	r3, [r7, #-1]!
 800324a:	2300      	movs	r3, #0
 800324c:	930a      	str	r3, [sp, #40]	; 0x28
 800324e:	930f      	str	r3, [sp, #60]	; 0x3c
 8003250:	9314      	str	r3, [sp, #80]	; 0x50
 8003252:	9311      	str	r3, [sp, #68]	; 0x44
 8003254:	9b09      	ldr	r3, [sp, #36]	; 0x24
 8003256:	f89d 208b 	ldrb.w	r2, [sp, #139]	; 0x8b
 800325a:	454b      	cmp	r3, r9
 800325c:	bfb8      	it	lt
 800325e:	464b      	movlt	r3, r9
 8003260:	9304      	str	r3, [sp, #16]
 8003262:	b112      	cbz	r2, 800326a <_vfprintf_r+0x322>
 8003264:	9b04      	ldr	r3, [sp, #16]
 8003266:	3301      	adds	r3, #1
 8003268:	9304      	str	r3, [sp, #16]
 800326a:	f018 0302 	ands.w	r3, r8, #2
 800326e:	930b      	str	r3, [sp, #44]	; 0x2c
 8003270:	d002      	beq.n	8003278 <_vfprintf_r+0x330>
 8003272:	9b04      	ldr	r3, [sp, #16]
 8003274:	3302      	adds	r3, #2
 8003276:	9304      	str	r3, [sp, #16]
 8003278:	f018 0384 	ands.w	r3, r8, #132	; 0x84
 800327c:	9c2c      	ldr	r4, [sp, #176]	; 0xb0
 800327e:	930e      	str	r3, [sp, #56]	; 0x38
 8003280:	d13f      	bne.n	8003302 <_vfprintf_r+0x3ba>
 8003282:	9b06      	ldr	r3, [sp, #24]
 8003284:	9904      	ldr	r1, [sp, #16]
 8003286:	1a5d      	subs	r5, r3, r1
 8003288:	2d00      	cmp	r5, #0
 800328a:	dd3a      	ble.n	8003302 <_vfprintf_r+0x3ba>
 800328c:	2d10      	cmp	r5, #16
 800328e:	9a2b      	ldr	r2, [sp, #172]	; 0xac
 8003290:	dd29      	ble.n	80032e6 <_vfprintf_r+0x39e>
 8003292:	4659      	mov	r1, fp
 8003294:	4620      	mov	r0, r4
 8003296:	9620      	str	r6, [sp, #128]	; 0x80
 8003298:	2310      	movs	r3, #16
 800329a:	9c03      	ldr	r4, [sp, #12]
 800329c:	9e07      	ldr	r6, [sp, #28]
 800329e:	46bb      	mov	fp, r7
 80032a0:	e004      	b.n	80032ac <_vfprintf_r+0x364>
 80032a2:	3d10      	subs	r5, #16
 80032a4:	2d10      	cmp	r5, #16
 80032a6:	f101 0108 	add.w	r1, r1, #8
 80032aa:	dd18      	ble.n	80032de <_vfprintf_r+0x396>
 80032ac:	3201      	adds	r2, #1
 80032ae:	4fba      	ldr	r7, [pc, #744]	; (8003598 <_vfprintf_r+0x650>)
 80032b0:	3010      	adds	r0, #16
 80032b2:	2a07      	cmp	r2, #7
 80032b4:	e9cd 202b 	strd	r2, r0, [sp, #172]	; 0xac
 80032b8:	e9c1 7300 	strd	r7, r3, [r1]
 80032bc:	ddf1      	ble.n	80032a2 <_vfprintf_r+0x35a>
 80032be:	aa2a      	add	r2, sp, #168	; 0xa8
 80032c0:	4631      	mov	r1, r6
 80032c2:	4620      	mov	r0, r4
 80032c4:	930c      	str	r3, [sp, #48]	; 0x30
 80032c6:	f004 f97d 	bl	80075c4 <__sprint_r>
 80032ca:	2800      	cmp	r0, #0
 80032cc:	f040 843d 	bne.w	8003b4a <_vfprintf_r+0xc02>
 80032d0:	3d10      	subs	r5, #16
 80032d2:	2d10      	cmp	r5, #16
 80032d4:	e9dd 202b 	ldrd	r2, r0, [sp, #172]	; 0xac
 80032d8:	a92d      	add	r1, sp, #180	; 0xb4
 80032da:	9b0c      	ldr	r3, [sp, #48]	; 0x30
 80032dc:	dce6      	bgt.n	80032ac <_vfprintf_r+0x364>
 80032de:	9e20      	ldr	r6, [sp, #128]	; 0x80
 80032e0:	465f      	mov	r7, fp
 80032e2:	4604      	mov	r4, r0
 80032e4:	468b      	mov	fp, r1
 80032e6:	3201      	adds	r2, #1
 80032e8:	4bab      	ldr	r3, [pc, #684]	; (8003598 <_vfprintf_r+0x650>)
 80032ea:	442c      	add	r4, r5
 80032ec:	2a07      	cmp	r2, #7
 80032ee:	e9cd 242b 	strd	r2, r4, [sp, #172]	; 0xac
 80032f2:	e9cb 3500 	strd	r3, r5, [fp]
 80032f6:	f300 84ff 	bgt.w	8003cf8 <_vfprintf_r+0xdb0>
 80032fa:	f89d 208b 	ldrb.w	r2, [sp, #139]	; 0x8b
 80032fe:	f10b 0b08 	add.w	fp, fp, #8
 8003302:	b172      	cbz	r2, 8003322 <_vfprintf_r+0x3da>
 8003304:	9a2b      	ldr	r2, [sp, #172]	; 0xac
 8003306:	3201      	adds	r2, #1
 8003308:	3401      	adds	r4, #1
 800330a:	f10d 008b 	add.w	r0, sp, #139	; 0x8b
 800330e:	2101      	movs	r1, #1
 8003310:	2a07      	cmp	r2, #7
 8003312:	e9cd 242b 	strd	r2, r4, [sp, #172]	; 0xac
 8003316:	e9cb 0100 	strd	r0, r1, [fp]
 800331a:	f300 8418 	bgt.w	8003b4e <_vfprintf_r+0xc06>
 800331e:	f10b 0b08 	add.w	fp, fp, #8
 8003322:	9b0b      	ldr	r3, [sp, #44]	; 0x2c
 8003324:	b16b      	cbz	r3, 8003342 <_vfprintf_r+0x3fa>
 8003326:	9b2b      	ldr	r3, [sp, #172]	; 0xac
 8003328:	3301      	adds	r3, #1
 800332a:	3402      	adds	r4, #2
 800332c:	a923      	add	r1, sp, #140	; 0x8c
 800332e:	2202      	movs	r2, #2
 8003330:	2b07      	cmp	r3, #7
 8003332:	e9cd 342b 	strd	r3, r4, [sp, #172]	; 0xac
 8003336:	e9cb 1200 	strd	r1, r2, [fp]
 800333a:	f300 8415 	bgt.w	8003b68 <_vfprintf_r+0xc20>
 800333e:	f10b 0b08 	add.w	fp, fp, #8
 8003342:	9b0e      	ldr	r3, [sp, #56]	; 0x38
 8003344:	2b80      	cmp	r3, #128	; 0x80
 8003346:	f000 8331 	beq.w	80039ac <_vfprintf_r+0xa64>
 800334a:	9b09      	ldr	r3, [sp, #36]	; 0x24
 800334c:	eba9 0503 	sub.w	r5, r9, r3
 8003350:	2d00      	cmp	r5, #0
 8003352:	dd37      	ble.n	80033c4 <_vfprintf_r+0x47c>
 8003354:	2d10      	cmp	r5, #16
 8003356:	9a2b      	ldr	r2, [sp, #172]	; 0xac
 8003358:	4b90      	ldr	r3, [pc, #576]	; (800359c <_vfprintf_r+0x654>)
 800335a:	dd28      	ble.n	80033ae <_vfprintf_r+0x466>
 800335c:	4659      	mov	r1, fp
 800335e:	4620      	mov	r0, r4
 8003360:	46bb      	mov	fp, r7
 8003362:	f04f 0910 	mov.w	r9, #16
 8003366:	4637      	mov	r7, r6
 8003368:	461c      	mov	r4, r3
 800336a:	9e07      	ldr	r6, [sp, #28]
 800336c:	e004      	b.n	8003378 <_vfprintf_r+0x430>
 800336e:	3d10      	subs	r5, #16
 8003370:	2d10      	cmp	r5, #16
 8003372:	f101 0108 	add.w	r1, r1, #8
 8003376:	dd15      	ble.n	80033a4 <_vfprintf_r+0x45c>
 8003378:	3201      	adds	r2, #1
 800337a:	3010      	adds	r0, #16
 800337c:	2a07      	cmp	r2, #7
 800337e:	e9cd 202b 	strd	r2, r0, [sp, #172]	; 0xac
 8003382:	e9c1 4900 	strd	r4, r9, [r1]
 8003386:	ddf2      	ble.n	800336e <_vfprintf_r+0x426>
 8003388:	aa2a      	add	r2, sp, #168	; 0xa8
 800338a:	4631      	mov	r1, r6
 800338c:	9803      	ldr	r0, [sp, #12]
 800338e:	f004 f919 	bl	80075c4 <__sprint_r>
 8003392:	2800      	cmp	r0, #0
 8003394:	f040 83d9 	bne.w	8003b4a <_vfprintf_r+0xc02>
 8003398:	3d10      	subs	r5, #16
 800339a:	2d10      	cmp	r5, #16
 800339c:	e9dd 202b 	ldrd	r2, r0, [sp, #172]	; 0xac
 80033a0:	a92d      	add	r1, sp, #180	; 0xb4
 80033a2:	dce9      	bgt.n	8003378 <_vfprintf_r+0x430>
 80033a4:	463e      	mov	r6, r7
 80033a6:	4623      	mov	r3, r4
 80033a8:	465f      	mov	r7, fp
 80033aa:	4604      	mov	r4, r0
 80033ac:	468b      	mov	fp, r1
 80033ae:	3201      	adds	r2, #1
 80033b0:	442c      	add	r4, r5
 80033b2:	2a07      	cmp	r2, #7
 80033b4:	e9cd 242b 	strd	r2, r4, [sp, #172]	; 0xac
 80033b8:	e9cb 3500 	strd	r3, r5, [fp]
 80033bc:	f300 83ef 	bgt.w	8003b9e <_vfprintf_r+0xc56>
 80033c0:	f10b 0b08 	add.w	fp, fp, #8
 80033c4:	f418 7f80 	tst.w	r8, #256	; 0x100
 80033c8:	f040 8280 	bne.w	80038cc <_vfprintf_r+0x984>
 80033cc:	9b2b      	ldr	r3, [sp, #172]	; 0xac
 80033ce:	9a09      	ldr	r2, [sp, #36]	; 0x24
 80033d0:	f8cb 7000 	str.w	r7, [fp]
 80033d4:	3301      	adds	r3, #1
 80033d6:	4414      	add	r4, r2
 80033d8:	2b07      	cmp	r3, #7
 80033da:	942c      	str	r4, [sp, #176]	; 0xb0
 80033dc:	f8cb 2004 	str.w	r2, [fp, #4]
 80033e0:	932b      	str	r3, [sp, #172]	; 0xac
 80033e2:	f300 8392 	bgt.w	8003b0a <_vfprintf_r+0xbc2>
 80033e6:	f10b 0b08 	add.w	fp, fp, #8
 80033ea:	f018 0f04 	tst.w	r8, #4
 80033ee:	d03b      	beq.n	8003468 <_vfprintf_r+0x520>
 80033f0:	9b06      	ldr	r3, [sp, #24]
 80033f2:	9a04      	ldr	r2, [sp, #16]
 80033f4:	1a9d      	subs	r5, r3, r2
 80033f6:	2d00      	cmp	r5, #0
 80033f8:	dd36      	ble.n	8003468 <_vfprintf_r+0x520>
 80033fa:	2d10      	cmp	r5, #16
 80033fc:	9b2b      	ldr	r3, [sp, #172]	; 0xac
 80033fe:	dd21      	ble.n	8003444 <_vfprintf_r+0x4fc>
 8003400:	2610      	movs	r6, #16
 8003402:	9f03      	ldr	r7, [sp, #12]
 8003404:	f8dd 801c 	ldr.w	r8, [sp, #28]
 8003408:	e004      	b.n	8003414 <_vfprintf_r+0x4cc>
 800340a:	3d10      	subs	r5, #16
 800340c:	2d10      	cmp	r5, #16
 800340e:	f10b 0b08 	add.w	fp, fp, #8
 8003412:	dd17      	ble.n	8003444 <_vfprintf_r+0x4fc>
 8003414:	3301      	adds	r3, #1
 8003416:	4a60      	ldr	r2, [pc, #384]	; (8003598 <_vfprintf_r+0x650>)
 8003418:	3410      	adds	r4, #16
 800341a:	2b07      	cmp	r3, #7
 800341c:	e9cd 342b 	strd	r3, r4, [sp, #172]	; 0xac
 8003420:	e9cb 2600 	strd	r2, r6, [fp]
 8003424:	ddf1      	ble.n	800340a <_vfprintf_r+0x4c2>
 8003426:	aa2a      	add	r2, sp, #168	; 0xa8
 8003428:	4641      	mov	r1, r8
 800342a:	4638      	mov	r0, r7
 800342c:	f004 f8ca 	bl	80075c4 <__sprint_r>
 8003430:	2800      	cmp	r0, #0
 8003432:	f040 856c 	bne.w	8003f0e <_vfprintf_r+0xfc6>
 8003436:	3d10      	subs	r5, #16
 8003438:	2d10      	cmp	r5, #16
 800343a:	e9dd 342b 	ldrd	r3, r4, [sp, #172]	; 0xac
 800343e:	f10d 0bb4 	add.w	fp, sp, #180	; 0xb4
 8003442:	dce7      	bgt.n	8003414 <_vfprintf_r+0x4cc>
 8003444:	3301      	adds	r3, #1
 8003446:	4a54      	ldr	r2, [pc, #336]	; (8003598 <_vfprintf_r+0x650>)
 8003448:	442c      	add	r4, r5
 800344a:	2b07      	cmp	r3, #7
 800344c:	e9cd 342b 	strd	r3, r4, [sp, #172]	; 0xac
 8003450:	e9cb 2500 	strd	r2, r5, [fp]
 8003454:	dd08      	ble.n	8003468 <_vfprintf_r+0x520>
 8003456:	aa2a      	add	r2, sp, #168	; 0xa8
 8003458:	9907      	ldr	r1, [sp, #28]
 800345a:	9803      	ldr	r0, [sp, #12]
 800345c:	f004 f8b2 	bl	80075c4 <__sprint_r>
 8003460:	2800      	cmp	r0, #0
 8003462:	f040 82e9 	bne.w	8003a38 <_vfprintf_r+0xaf0>
 8003466:	9c2c      	ldr	r4, [sp, #176]	; 0xb0
 8003468:	9904      	ldr	r1, [sp, #16]
 800346a:	e9dd 3205 	ldrd	r3, r2, [sp, #20]
 800346e:	428a      	cmp	r2, r1
 8003470:	bfac      	ite	ge
 8003472:	189b      	addge	r3, r3, r2
 8003474:	185b      	addlt	r3, r3, r1
 8003476:	9305      	str	r3, [sp, #20]
 8003478:	2c00      	cmp	r4, #0
 800347a:	f040 82d5 	bne.w	8003a28 <_vfprintf_r+0xae0>
 800347e:	2300      	movs	r3, #0
 8003480:	932b      	str	r3, [sp, #172]	; 0xac
 8003482:	9b0a      	ldr	r3, [sp, #40]	; 0x28
 8003484:	b11b      	cbz	r3, 800348e <_vfprintf_r+0x546>
 8003486:	990a      	ldr	r1, [sp, #40]	; 0x28
 8003488:	9803      	ldr	r0, [sp, #12]
 800348a:	f002 fcad 	bl	8005de8 <_free_r>
 800348e:	f10d 0bb4 	add.w	fp, sp, #180	; 0xb4
 8003492:	4657      	mov	r7, sl
 8003494:	783b      	ldrb	r3, [r7, #0]
 8003496:	2b00      	cmp	r3, #0
 8003498:	f47f ada7 	bne.w	8002fea <_vfprintf_r+0xa2>
 800349c:	9b2c      	ldr	r3, [sp, #176]	; 0xb0
 800349e:	f8dd 901c 	ldr.w	r9, [sp, #28]
 80034a2:	2b00      	cmp	r3, #0
 80034a4:	f041 80e7 	bne.w	8004676 <_vfprintf_r+0x172e>
 80034a8:	2300      	movs	r3, #0
 80034aa:	932b      	str	r3, [sp, #172]	; 0xac
 80034ac:	e2cb      	b.n	8003a46 <_vfprintf_r+0xafe>
 80034ae:	4643      	mov	r3, r8
 80034b0:	069a      	lsls	r2, r3, #26
 80034b2:	f140 814e 	bpl.w	8003752 <_vfprintf_r+0x80a>
 80034b6:	9c08      	ldr	r4, [sp, #32]
 80034b8:	3407      	adds	r4, #7
 80034ba:	f024 0207 	bic.w	r2, r4, #7
 80034be:	f102 0108 	add.w	r1, r2, #8
 80034c2:	e9d2 4500 	ldrd	r4, r5, [r2]
 80034c6:	9108      	str	r1, [sp, #32]
 80034c8:	2201      	movs	r2, #1
 80034ca:	2100      	movs	r1, #0
 80034cc:	f88d 108b 	strb.w	r1, [sp, #139]	; 0x8b
 80034d0:	f1b9 3fff 	cmp.w	r9, #4294967295	; 0xffffffff
 80034d4:	a956      	add	r1, sp, #344	; 0x158
 80034d6:	9104      	str	r1, [sp, #16]
 80034d8:	f47f aea2 	bne.w	8003220 <_vfprintf_r+0x2d8>
 80034dc:	4698      	mov	r8, r3
 80034de:	2a01      	cmp	r2, #1
 80034e0:	f000 8350 	beq.w	8003b84 <_vfprintf_r+0xc3c>
 80034e4:	2a02      	cmp	r2, #2
 80034e6:	f000 831b 	beq.w	8003b20 <_vfprintf_r+0xbd8>
 80034ea:	a956      	add	r1, sp, #344	; 0x158
 80034ec:	e000      	b.n	80034f0 <_vfprintf_r+0x5a8>
 80034ee:	4639      	mov	r1, r7
 80034f0:	08e2      	lsrs	r2, r4, #3
 80034f2:	ea42 7245 	orr.w	r2, r2, r5, lsl #29
 80034f6:	08e8      	lsrs	r0, r5, #3
 80034f8:	f004 0307 	and.w	r3, r4, #7
 80034fc:	4605      	mov	r5, r0
 80034fe:	4614      	mov	r4, r2
 8003500:	3330      	adds	r3, #48	; 0x30
 8003502:	ea54 0205 	orrs.w	r2, r4, r5
 8003506:	f801 3c01 	strb.w	r3, [r1, #-1]
 800350a:	f101 37ff 	add.w	r7, r1, #4294967295	; 0xffffffff
 800350e:	d1ee      	bne.n	80034ee <_vfprintf_r+0x5a6>
 8003510:	f018 0f01 	tst.w	r8, #1
 8003514:	f000 8314 	beq.w	8003b40 <_vfprintf_r+0xbf8>
 8003518:	2b30      	cmp	r3, #48	; 0x30
 800351a:	f000 8311 	beq.w	8003b40 <_vfprintf_r+0xbf8>
 800351e:	9a04      	ldr	r2, [sp, #16]
 8003520:	3902      	subs	r1, #2
 8003522:	2330      	movs	r3, #48	; 0x30
 8003524:	1a52      	subs	r2, r2, r1
 8003526:	f807 3c01 	strb.w	r3, [r7, #-1]
 800352a:	9209      	str	r2, [sp, #36]	; 0x24
 800352c:	460f      	mov	r7, r1
 800352e:	e68c      	b.n	800324a <_vfprintf_r+0x302>
 8003530:	f1a6 0330 	sub.w	r3, r6, #48	; 0x30
 8003534:	2200      	movs	r2, #0
 8003536:	f81a 6b01 	ldrb.w	r6, [sl], #1
 800353a:	eb02 0282 	add.w	r2, r2, r2, lsl #2
 800353e:	eb03 0242 	add.w	r2, r3, r2, lsl #1
 8003542:	f1a6 0330 	sub.w	r3, r6, #48	; 0x30
 8003546:	2b09      	cmp	r3, #9
 8003548:	d9f5      	bls.n	8003536 <_vfprintf_r+0x5ee>
 800354a:	9206      	str	r2, [sp, #24]
 800354c:	e57c      	b.n	8003048 <_vfprintf_r+0x100>
 800354e:	4b14      	ldr	r3, [pc, #80]	; (80035a0 <_vfprintf_r+0x658>)
 8003550:	9317      	str	r3, [sp, #92]	; 0x5c
 8003552:	f018 0f20 	tst.w	r8, #32
 8003556:	f000 8114 	beq.w	8003782 <_vfprintf_r+0x83a>
 800355a:	9c08      	ldr	r4, [sp, #32]
 800355c:	3407      	adds	r4, #7
 800355e:	f024 0307 	bic.w	r3, r4, #7
 8003562:	e9d3 4500 	ldrd	r4, r5, [r3]
 8003566:	f103 0208 	add.w	r2, r3, #8
 800356a:	9208      	str	r2, [sp, #32]
 800356c:	f018 0f01 	tst.w	r8, #1
 8003570:	d009      	beq.n	8003586 <_vfprintf_r+0x63e>
 8003572:	ea54 0305 	orrs.w	r3, r4, r5
 8003576:	d006      	beq.n	8003586 <_vfprintf_r+0x63e>
 8003578:	2330      	movs	r3, #48	; 0x30
 800357a:	f88d 608d 	strb.w	r6, [sp, #141]	; 0x8d
 800357e:	f048 0802 	orr.w	r8, r8, #2
 8003582:	f88d 308c 	strb.w	r3, [sp, #140]	; 0x8c
 8003586:	f428 6380 	bic.w	r3, r8, #1024	; 0x400
 800358a:	2202      	movs	r2, #2
 800358c:	e79d      	b.n	80034ca <_vfprintf_r+0x582>
 800358e:	f048 0801 	orr.w	r8, r8, #1
 8003592:	f89a 6000 	ldrb.w	r6, [sl]
 8003596:	e555      	b.n	8003044 <_vfprintf_r+0xfc>
 8003598:	08007c88 	.word	0x08007c88
 800359c:	08007c98 	.word	0x08007c98
 80035a0:	08007c54 	.word	0x08007c54
 80035a4:	9e03      	ldr	r6, [sp, #12]
 80035a6:	4630      	mov	r0, r6
 80035a8:	f002 feba 	bl	8006320 <_localeconv_r>
 80035ac:	6843      	ldr	r3, [r0, #4]
 80035ae:	9318      	str	r3, [sp, #96]	; 0x60
 80035b0:	4618      	mov	r0, r3
 80035b2:	f7fd f8a5 	bl	8000700 <strlen>
 80035b6:	901b      	str	r0, [sp, #108]	; 0x6c
 80035b8:	4604      	mov	r4, r0
 80035ba:	4630      	mov	r0, r6
 80035bc:	f002 feb0 	bl	8006320 <_localeconv_r>
 80035c0:	6883      	ldr	r3, [r0, #8]
 80035c2:	931a      	str	r3, [sp, #104]	; 0x68
 80035c4:	2c00      	cmp	r4, #0
 80035c6:	f43f adb8 	beq.w	800313a <_vfprintf_r+0x1f2>
 80035ca:	f89a 6000 	ldrb.w	r6, [sl]
 80035ce:	2b00      	cmp	r3, #0
 80035d0:	f43f ad38 	beq.w	8003044 <_vfprintf_r+0xfc>
 80035d4:	781b      	ldrb	r3, [r3, #0]
 80035d6:	2b00      	cmp	r3, #0
 80035d8:	f43f ad34 	beq.w	8003044 <_vfprintf_r+0xfc>
 80035dc:	f448 6880 	orr.w	r8, r8, #1024	; 0x400
 80035e0:	e530      	b.n	8003044 <_vfprintf_r+0xfc>
 80035e2:	9b08      	ldr	r3, [sp, #32]
 80035e4:	f89a 6000 	ldrb.w	r6, [sl]
 80035e8:	681a      	ldr	r2, [r3, #0]
 80035ea:	9206      	str	r2, [sp, #24]
 80035ec:	2a00      	cmp	r2, #0
 80035ee:	f103 0304 	add.w	r3, r3, #4
 80035f2:	f2c0 8697 	blt.w	8004324 <_vfprintf_r+0x13dc>
 80035f6:	9308      	str	r3, [sp, #32]
 80035f8:	e524      	b.n	8003044 <_vfprintf_r+0xfc>
 80035fa:	f88d 508b 	strb.w	r5, [sp, #139]	; 0x8b
 80035fe:	f89a 6000 	ldrb.w	r6, [sl]
 8003602:	e51f      	b.n	8003044 <_vfprintf_r+0xfc>
 8003604:	f89a 6000 	ldrb.w	r6, [sl]
 8003608:	f048 0804 	orr.w	r8, r8, #4
 800360c:	e51a      	b.n	8003044 <_vfprintf_r+0xfc>
 800360e:	f89a 6000 	ldrb.w	r6, [sl]
 8003612:	2e2a      	cmp	r6, #42	; 0x2a
 8003614:	f10a 0201 	add.w	r2, sl, #1
 8003618:	f001 81b0 	beq.w	800497c <_vfprintf_r+0x1a34>
 800361c:	f1a6 0330 	sub.w	r3, r6, #48	; 0x30
 8003620:	2b09      	cmp	r3, #9
 8003622:	4692      	mov	sl, r2
 8003624:	f04f 0900 	mov.w	r9, #0
 8003628:	f63f ad0e 	bhi.w	8003048 <_vfprintf_r+0x100>
 800362c:	f81a 6b01 	ldrb.w	r6, [sl], #1
 8003630:	eb09 0989 	add.w	r9, r9, r9, lsl #2
 8003634:	eb03 0949 	add.w	r9, r3, r9, lsl #1
 8003638:	f1a6 0330 	sub.w	r3, r6, #48	; 0x30
 800363c:	2b09      	cmp	r3, #9
 800363e:	d9f5      	bls.n	800362c <_vfprintf_r+0x6e4>
 8003640:	e502      	b.n	8003048 <_vfprintf_r+0x100>
 8003642:	f048 0880 	orr.w	r8, r8, #128	; 0x80
 8003646:	f89a 6000 	ldrb.w	r6, [sl]
 800364a:	e4fb      	b.n	8003044 <_vfprintf_r+0xfc>
 800364c:	9c08      	ldr	r4, [sp, #32]
 800364e:	3407      	adds	r4, #7
 8003650:	f024 0407 	bic.w	r4, r4, #7
 8003654:	ed94 7b00 	vldr	d7, [r4]
 8003658:	ec52 1b17 	vmov	r1, r2, d7
 800365c:	f022 4300 	bic.w	r3, r2, #2147483648	; 0x80000000
 8003660:	931d      	str	r3, [sp, #116]	; 0x74
 8003662:	ed8d 7a1c 	vstr	s14, [sp, #112]	; 0x70
 8003666:	3408      	adds	r4, #8
 8003668:	e9dd 011c 	ldrd	r0, r1, [sp, #112]	; 0x70
 800366c:	f04f 32ff 	mov.w	r2, #4294967295	; 0xffffffff
 8003670:	4bba      	ldr	r3, [pc, #744]	; (800395c <_vfprintf_r+0xa14>)
 8003672:	9408      	str	r4, [sp, #32]
 8003674:	ed8d 7b12 	vstr	d7, [sp, #72]	; 0x48
 8003678:	f7fd fd06 	bl	8001088 <__aeabi_dcmpun>
 800367c:	2800      	cmp	r0, #0
 800367e:	f040 846f 	bne.w	8003f60 <_vfprintf_r+0x1018>
 8003682:	f04f 32ff 	mov.w	r2, #4294967295	; 0xffffffff
 8003686:	4bb5      	ldr	r3, [pc, #724]	; (800395c <_vfprintf_r+0xa14>)
 8003688:	e9dd 011c 	ldrd	r0, r1, [sp, #112]	; 0x70
 800368c:	f7fd fcde 	bl	800104c <__aeabi_dcmple>
 8003690:	2800      	cmp	r0, #0
 8003692:	f040 8465 	bne.w	8003f60 <_vfprintf_r+0x1018>
 8003696:	2200      	movs	r2, #0
 8003698:	2300      	movs	r3, #0
 800369a:	e9dd 0112 	ldrd	r0, r1, [sp, #72]	; 0x48
 800369e:	f7fd fccb 	bl	8001038 <__aeabi_dcmplt>
 80036a2:	2800      	cmp	r0, #0
 80036a4:	f040 855b 	bne.w	800415e <_vfprintf_r+0x1216>
 80036a8:	f89d 208b 	ldrb.w	r2, [sp, #139]	; 0x8b
 80036ac:	4fac      	ldr	r7, [pc, #688]	; (8003960 <_vfprintf_r+0xa18>)
 80036ae:	4bad      	ldr	r3, [pc, #692]	; (8003964 <_vfprintf_r+0xa1c>)
 80036b0:	2000      	movs	r0, #0
 80036b2:	2103      	movs	r1, #3
 80036b4:	9104      	str	r1, [sp, #16]
 80036b6:	900a      	str	r0, [sp, #40]	; 0x28
 80036b8:	f028 0880 	bic.w	r8, r8, #128	; 0x80
 80036bc:	2e47      	cmp	r6, #71	; 0x47
 80036be:	bfd8      	it	le
 80036c0:	461f      	movle	r7, r3
 80036c2:	9109      	str	r1, [sp, #36]	; 0x24
 80036c4:	4681      	mov	r9, r0
 80036c6:	900f      	str	r0, [sp, #60]	; 0x3c
 80036c8:	9014      	str	r0, [sp, #80]	; 0x50
 80036ca:	9011      	str	r0, [sp, #68]	; 0x44
 80036cc:	e5c9      	b.n	8003262 <_vfprintf_r+0x31a>
 80036ce:	9808      	ldr	r0, [sp, #32]
 80036d0:	2300      	movs	r3, #0
 80036d2:	6801      	ldr	r1, [r0, #0]
 80036d4:	f88d 308b 	strb.w	r3, [sp, #139]	; 0x8b
 80036d8:	461a      	mov	r2, r3
 80036da:	f88d 10f4 	strb.w	r1, [sp, #244]	; 0xf4
 80036de:	2301      	movs	r3, #1
 80036e0:	1d01      	adds	r1, r0, #4
 80036e2:	9304      	str	r3, [sp, #16]
 80036e4:	920a      	str	r2, [sp, #40]	; 0x28
 80036e6:	4691      	mov	r9, r2
 80036e8:	920f      	str	r2, [sp, #60]	; 0x3c
 80036ea:	9214      	str	r2, [sp, #80]	; 0x50
 80036ec:	9211      	str	r2, [sp, #68]	; 0x44
 80036ee:	e9cd 1308 	strd	r1, r3, [sp, #32]
 80036f2:	af3d      	add	r7, sp, #244	; 0xf4
 80036f4:	e5b9      	b.n	800326a <_vfprintf_r+0x322>
 80036f6:	9b08      	ldr	r3, [sp, #32]
 80036f8:	681f      	ldr	r7, [r3, #0]
 80036fa:	2500      	movs	r5, #0
 80036fc:	f88d 508b 	strb.w	r5, [sp, #139]	; 0x8b
 8003700:	1d1c      	adds	r4, r3, #4
 8003702:	2f00      	cmp	r7, #0
 8003704:	f000 8639 	beq.w	800437a <_vfprintf_r+0x1432>
 8003708:	f1b9 3fff 	cmp.w	r9, #4294967295	; 0xffffffff
 800370c:	f000 8711 	beq.w	8004532 <_vfprintf_r+0x15ea>
 8003710:	464a      	mov	r2, r9
 8003712:	4629      	mov	r1, r5
 8003714:	4638      	mov	r0, r7
 8003716:	f7fc fef3 	bl	8000500 <memchr>
 800371a:	900a      	str	r0, [sp, #40]	; 0x28
 800371c:	2800      	cmp	r0, #0
 800371e:	f000 85e7 	beq.w	80042f0 <_vfprintf_r+0x13a8>
 8003722:	9b0a      	ldr	r3, [sp, #40]	; 0x28
 8003724:	1bdb      	subs	r3, r3, r7
 8003726:	9309      	str	r3, [sp, #36]	; 0x24
 8003728:	46a9      	mov	r9, r5
 800372a:	ea23 73e3 	bic.w	r3, r3, r3, asr #31
 800372e:	9408      	str	r4, [sp, #32]
 8003730:	9304      	str	r3, [sp, #16]
 8003732:	f8cd 9028 	str.w	r9, [sp, #40]	; 0x28
 8003736:	f8cd 903c 	str.w	r9, [sp, #60]	; 0x3c
 800373a:	f8cd 9050 	str.w	r9, [sp, #80]	; 0x50
 800373e:	f8cd 9044 	str.w	r9, [sp, #68]	; 0x44
 8003742:	f89d 208b 	ldrb.w	r2, [sp, #139]	; 0x8b
 8003746:	e58c      	b.n	8003262 <_vfprintf_r+0x31a>
 8003748:	f048 0310 	orr.w	r3, r8, #16
 800374c:	069a      	lsls	r2, r3, #26
 800374e:	f53f aeb2 	bmi.w	80034b6 <_vfprintf_r+0x56e>
 8003752:	9a08      	ldr	r2, [sp, #32]
 8003754:	06df      	lsls	r7, r3, #27
 8003756:	f102 0104 	add.w	r1, r2, #4
 800375a:	f100 837e 	bmi.w	8003e5a <_vfprintf_r+0xf12>
 800375e:	065d      	lsls	r5, r3, #25
 8003760:	9a08      	ldr	r2, [sp, #32]
 8003762:	f100 84e4 	bmi.w	800412e <_vfprintf_r+0x11e6>
 8003766:	059c      	lsls	r4, r3, #22
 8003768:	f140 8377 	bpl.w	8003e5a <_vfprintf_r+0xf12>
 800376c:	7814      	ldrb	r4, [r2, #0]
 800376e:	9108      	str	r1, [sp, #32]
 8003770:	2500      	movs	r5, #0
 8003772:	2201      	movs	r2, #1
 8003774:	e6a9      	b.n	80034ca <_vfprintf_r+0x582>
 8003776:	4b7c      	ldr	r3, [pc, #496]	; (8003968 <_vfprintf_r+0xa20>)
 8003778:	9317      	str	r3, [sp, #92]	; 0x5c
 800377a:	f018 0f20 	tst.w	r8, #32
 800377e:	f47f aeec 	bne.w	800355a <_vfprintf_r+0x612>
 8003782:	9a08      	ldr	r2, [sp, #32]
 8003784:	f018 0f10 	tst.w	r8, #16
 8003788:	f102 0304 	add.w	r3, r2, #4
 800378c:	f040 8354 	bne.w	8003e38 <_vfprintf_r+0xef0>
 8003790:	f018 0f40 	tst.w	r8, #64	; 0x40
 8003794:	9a08      	ldr	r2, [sp, #32]
 8003796:	f040 84d0 	bne.w	800413a <_vfprintf_r+0x11f2>
 800379a:	f418 7f00 	tst.w	r8, #512	; 0x200
 800379e:	f000 834b 	beq.w	8003e38 <_vfprintf_r+0xef0>
 80037a2:	7814      	ldrb	r4, [r2, #0]
 80037a4:	9308      	str	r3, [sp, #32]
 80037a6:	2500      	movs	r5, #0
 80037a8:	e6e0      	b.n	800356c <_vfprintf_r+0x624>
 80037aa:	f89d 308b 	ldrb.w	r3, [sp, #139]	; 0x8b
 80037ae:	f89a 6000 	ldrb.w	r6, [sl]
 80037b2:	2b00      	cmp	r3, #0
 80037b4:	f47f ac46 	bne.w	8003044 <_vfprintf_r+0xfc>
 80037b8:	2320      	movs	r3, #32
 80037ba:	f88d 308b 	strb.w	r3, [sp, #139]	; 0x8b
 80037be:	e441      	b.n	8003044 <_vfprintf_r+0xfc>
 80037c0:	f89a 6000 	ldrb.w	r6, [sl]
 80037c4:	2e6c      	cmp	r6, #108	; 0x6c
 80037c6:	bf03      	ittte	eq
 80037c8:	f89a 6001 	ldrbeq.w	r6, [sl, #1]
 80037cc:	f048 0820 	orreq.w	r8, r8, #32
 80037d0:	f10a 0a01 	addeq.w	sl, sl, #1
 80037d4:	f048 0810 	orrne.w	r8, r8, #16
 80037d8:	e434      	b.n	8003044 <_vfprintf_r+0xfc>
 80037da:	9a08      	ldr	r2, [sp, #32]
 80037dc:	f018 0f20 	tst.w	r8, #32
 80037e0:	f852 3b04 	ldr.w	r3, [r2], #4
 80037e4:	9208      	str	r2, [sp, #32]
 80037e6:	f000 83a1 	beq.w	8003f2c <_vfprintf_r+0xfe4>
 80037ea:	9a05      	ldr	r2, [sp, #20]
 80037ec:	4610      	mov	r0, r2
 80037ee:	17d1      	asrs	r1, r2, #31
 80037f0:	e9c3 0100 	strd	r0, r1, [r3]
 80037f4:	4657      	mov	r7, sl
 80037f6:	e64d      	b.n	8003494 <_vfprintf_r+0x54c>
 80037f8:	f89a 6000 	ldrb.w	r6, [sl]
 80037fc:	2e68      	cmp	r6, #104	; 0x68
 80037fe:	bf03      	ittte	eq
 8003800:	f89a 6001 	ldrbeq.w	r6, [sl, #1]
 8003804:	f448 7800 	orreq.w	r8, r8, #512	; 0x200
 8003808:	f10a 0a01 	addeq.w	sl, sl, #1
 800380c:	f048 0840 	orrne.w	r8, r8, #64	; 0x40
 8003810:	e418      	b.n	8003044 <_vfprintf_r+0xfc>
 8003812:	9908      	ldr	r1, [sp, #32]
 8003814:	4b55      	ldr	r3, [pc, #340]	; (800396c <_vfprintf_r+0xa24>)
 8003816:	680c      	ldr	r4, [r1, #0]
 8003818:	9317      	str	r3, [sp, #92]	; 0x5c
 800381a:	f647 0230 	movw	r2, #30768	; 0x7830
 800381e:	3104      	adds	r1, #4
 8003820:	f8ad 208c 	strh.w	r2, [sp, #140]	; 0x8c
 8003824:	f048 0302 	orr.w	r3, r8, #2
 8003828:	9108      	str	r1, [sp, #32]
 800382a:	2500      	movs	r5, #0
 800382c:	2202      	movs	r2, #2
 800382e:	2678      	movs	r6, #120	; 0x78
 8003830:	e64b      	b.n	80034ca <_vfprintf_r+0x582>
 8003832:	f048 0808 	orr.w	r8, r8, #8
 8003836:	f89a 6000 	ldrb.w	r6, [sl]
 800383a:	e403      	b.n	8003044 <_vfprintf_r+0xfc>
 800383c:	f048 0310 	orr.w	r3, r8, #16
 8003840:	069f      	lsls	r7, r3, #26
 8003842:	f53f acd1 	bmi.w	80031e8 <_vfprintf_r+0x2a0>
 8003846:	9908      	ldr	r1, [sp, #32]
 8003848:	06dd      	lsls	r5, r3, #27
 800384a:	f101 0204 	add.w	r2, r1, #4
 800384e:	f100 82fd 	bmi.w	8003e4c <_vfprintf_r+0xf04>
 8003852:	065c      	lsls	r4, r3, #25
 8003854:	9908      	ldr	r1, [sp, #32]
 8003856:	f100 8475 	bmi.w	8004144 <_vfprintf_r+0x11fc>
 800385a:	0598      	lsls	r0, r3, #22
 800385c:	f140 82f6 	bpl.w	8003e4c <_vfprintf_r+0xf04>
 8003860:	f991 4000 	ldrsb.w	r4, [r1]
 8003864:	9208      	str	r2, [sp, #32]
 8003866:	17e5      	asrs	r5, r4, #31
 8003868:	4620      	mov	r0, r4
 800386a:	4629      	mov	r1, r5
 800386c:	e4c7      	b.n	80031fe <_vfprintf_r+0x2b6>
 800386e:	9a08      	ldr	r2, [sp, #32]
 8003870:	f018 0f10 	tst.w	r8, #16
 8003874:	f102 0304 	add.w	r3, r2, #4
 8003878:	f040 82e3 	bne.w	8003e42 <_vfprintf_r+0xefa>
 800387c:	f018 0f40 	tst.w	r8, #64	; 0x40
 8003880:	9a08      	ldr	r2, [sp, #32]
 8003882:	f040 8467 	bne.w	8004154 <_vfprintf_r+0x120c>
 8003886:	f418 7f00 	tst.w	r8, #512	; 0x200
 800388a:	f000 82da 	beq.w	8003e42 <_vfprintf_r+0xefa>
 800388e:	7814      	ldrb	r4, [r2, #0]
 8003890:	9308      	str	r3, [sp, #32]
 8003892:	2500      	movs	r5, #0
 8003894:	e488      	b.n	80031a8 <_vfprintf_r+0x260>
 8003896:	f8d9 0058 	ldr.w	r0, [r9, #88]	; 0x58
 800389a:	f002 fd55 	bl	8006348 <__retarget_lock_release_recursive>
 800389e:	f04f 33ff 	mov.w	r3, #4294967295	; 0xffffffff
 80038a2:	9305      	str	r3, [sp, #20]
 80038a4:	e443      	b.n	800312e <_vfprintf_r+0x1e6>
 80038a6:	2e00      	cmp	r6, #0
 80038a8:	f43f adf8 	beq.w	800349c <_vfprintf_r+0x554>
 80038ac:	2300      	movs	r3, #0
 80038ae:	2101      	movs	r1, #1
 80038b0:	461a      	mov	r2, r3
 80038b2:	9104      	str	r1, [sp, #16]
 80038b4:	f88d 60f4 	strb.w	r6, [sp, #244]	; 0xf4
 80038b8:	f88d 308b 	strb.w	r3, [sp, #139]	; 0x8b
 80038bc:	930a      	str	r3, [sp, #40]	; 0x28
 80038be:	4699      	mov	r9, r3
 80038c0:	930f      	str	r3, [sp, #60]	; 0x3c
 80038c2:	9314      	str	r3, [sp, #80]	; 0x50
 80038c4:	9311      	str	r3, [sp, #68]	; 0x44
 80038c6:	9109      	str	r1, [sp, #36]	; 0x24
 80038c8:	af3d      	add	r7, sp, #244	; 0xf4
 80038ca:	e4ce      	b.n	800326a <_vfprintf_r+0x322>
 80038cc:	2e65      	cmp	r6, #101	; 0x65
 80038ce:	f340 80ca 	ble.w	8003a66 <_vfprintf_r+0xb1e>
 80038d2:	2200      	movs	r2, #0
 80038d4:	2300      	movs	r3, #0
 80038d6:	e9dd 0112 	ldrd	r0, r1, [sp, #72]	; 0x48
 80038da:	f7fd fba3 	bl	8001024 <__aeabi_dcmpeq>
 80038de:	2800      	cmp	r0, #0
 80038e0:	f000 8169 	beq.w	8003bb6 <_vfprintf_r+0xc6e>
 80038e4:	9b2b      	ldr	r3, [sp, #172]	; 0xac
 80038e6:	4a22      	ldr	r2, [pc, #136]	; (8003970 <_vfprintf_r+0xa28>)
 80038e8:	f8cb 2000 	str.w	r2, [fp]
 80038ec:	3301      	adds	r3, #1
 80038ee:	3401      	adds	r4, #1
 80038f0:	2201      	movs	r2, #1
 80038f2:	2b07      	cmp	r3, #7
 80038f4:	e9cd 342b 	strd	r3, r4, [sp, #172]	; 0xac
 80038f8:	f8cb 2004 	str.w	r2, [fp, #4]
 80038fc:	f300 8406 	bgt.w	800410c <_vfprintf_r+0x11c4>
 8003900:	f10b 0b08 	add.w	fp, fp, #8
 8003904:	9b24      	ldr	r3, [sp, #144]	; 0x90
 8003906:	9a10      	ldr	r2, [sp, #64]	; 0x40
 8003908:	9c2c      	ldr	r4, [sp, #176]	; 0xb0
 800390a:	4293      	cmp	r3, r2
 800390c:	db03      	blt.n	8003916 <_vfprintf_r+0x9ce>
 800390e:	f018 0f01 	tst.w	r8, #1
 8003912:	f43f ad6a 	beq.w	80033ea <_vfprintf_r+0x4a2>
 8003916:	9b2b      	ldr	r3, [sp, #172]	; 0xac
 8003918:	9a16      	ldr	r2, [sp, #88]	; 0x58
 800391a:	f8cb 2000 	str.w	r2, [fp]
 800391e:	9a15      	ldr	r2, [sp, #84]	; 0x54
 8003920:	f8cb 2004 	str.w	r2, [fp, #4]
 8003924:	3301      	adds	r3, #1
 8003926:	4414      	add	r4, r2
 8003928:	2b07      	cmp	r3, #7
 800392a:	e9cd 342b 	strd	r3, r4, [sp, #172]	; 0xac
 800392e:	f300 8517 	bgt.w	8004360 <_vfprintf_r+0x1418>
 8003932:	f10b 0b08 	add.w	fp, fp, #8
 8003936:	9b10      	ldr	r3, [sp, #64]	; 0x40
 8003938:	1e5d      	subs	r5, r3, #1
 800393a:	2d00      	cmp	r5, #0
 800393c:	f77f ad55 	ble.w	80033ea <_vfprintf_r+0x4a2>
 8003940:	2d10      	cmp	r5, #16
 8003942:	9a2b      	ldr	r2, [sp, #172]	; 0xac
 8003944:	4b0b      	ldr	r3, [pc, #44]	; (8003974 <_vfprintf_r+0xa2c>)
 8003946:	f340 82e7 	ble.w	8003f18 <_vfprintf_r+0xfd0>
 800394a:	4619      	mov	r1, r3
 800394c:	2610      	movs	r6, #16
 800394e:	4623      	mov	r3, r4
 8003950:	9f03      	ldr	r7, [sp, #12]
 8003952:	f8dd 901c 	ldr.w	r9, [sp, #28]
 8003956:	460c      	mov	r4, r1
 8003958:	e014      	b.n	8003984 <_vfprintf_r+0xa3c>
 800395a:	bf00      	nop
 800395c:	7fefffff 	.word	0x7fefffff
 8003960:	08007c48 	.word	0x08007c48
 8003964:	08007c44 	.word	0x08007c44
 8003968:	08007c68 	.word	0x08007c68
 800396c:	08007c54 	.word	0x08007c54
 8003970:	08007c84 	.word	0x08007c84
 8003974:	08007c98 	.word	0x08007c98
 8003978:	f10b 0b08 	add.w	fp, fp, #8
 800397c:	3d10      	subs	r5, #16
 800397e:	2d10      	cmp	r5, #16
 8003980:	f340 82c7 	ble.w	8003f12 <_vfprintf_r+0xfca>
 8003984:	3201      	adds	r2, #1
 8003986:	3310      	adds	r3, #16
 8003988:	2a07      	cmp	r2, #7
 800398a:	e9cd 232b 	strd	r2, r3, [sp, #172]	; 0xac
 800398e:	e9cb 4600 	strd	r4, r6, [fp]
 8003992:	ddf1      	ble.n	8003978 <_vfprintf_r+0xa30>
 8003994:	aa2a      	add	r2, sp, #168	; 0xa8
 8003996:	4649      	mov	r1, r9
 8003998:	4638      	mov	r0, r7
 800399a:	f003 fe13 	bl	80075c4 <__sprint_r>
 800399e:	2800      	cmp	r0, #0
 80039a0:	d14c      	bne.n	8003a3c <_vfprintf_r+0xaf4>
 80039a2:	e9dd 232b 	ldrd	r2, r3, [sp, #172]	; 0xac
 80039a6:	f10d 0bb4 	add.w	fp, sp, #180	; 0xb4
 80039aa:	e7e7      	b.n	800397c <_vfprintf_r+0xa34>
 80039ac:	9b06      	ldr	r3, [sp, #24]
 80039ae:	9a04      	ldr	r2, [sp, #16]
 80039b0:	1a9d      	subs	r5, r3, r2
 80039b2:	2d00      	cmp	r5, #0
 80039b4:	f77f acc9 	ble.w	800334a <_vfprintf_r+0x402>
 80039b8:	2d10      	cmp	r5, #16
 80039ba:	9a2b      	ldr	r2, [sp, #172]	; 0xac
 80039bc:	4bbc      	ldr	r3, [pc, #752]	; (8003cb0 <_vfprintf_r+0xd68>)
 80039be:	dd27      	ble.n	8003a10 <_vfprintf_r+0xac8>
 80039c0:	4659      	mov	r1, fp
 80039c2:	4620      	mov	r0, r4
 80039c4:	46bb      	mov	fp, r7
 80039c6:	461c      	mov	r4, r3
 80039c8:	4637      	mov	r7, r6
 80039ca:	9e07      	ldr	r6, [sp, #28]
 80039cc:	e004      	b.n	80039d8 <_vfprintf_r+0xa90>
 80039ce:	3d10      	subs	r5, #16
 80039d0:	2d10      	cmp	r5, #16
 80039d2:	f101 0108 	add.w	r1, r1, #8
 80039d6:	dd16      	ble.n	8003a06 <_vfprintf_r+0xabe>
 80039d8:	3201      	adds	r2, #1
 80039da:	3010      	adds	r0, #16
 80039dc:	2310      	movs	r3, #16
 80039de:	2a07      	cmp	r2, #7
 80039e0:	e9cd 202b 	strd	r2, r0, [sp, #172]	; 0xac
 80039e4:	600c      	str	r4, [r1, #0]
 80039e6:	604b      	str	r3, [r1, #4]
 80039e8:	ddf1      	ble.n	80039ce <_vfprintf_r+0xa86>
 80039ea:	aa2a      	add	r2, sp, #168	; 0xa8
 80039ec:	4631      	mov	r1, r6
 80039ee:	9803      	ldr	r0, [sp, #12]
 80039f0:	f003 fde8 	bl	80075c4 <__sprint_r>
 80039f4:	2800      	cmp	r0, #0
 80039f6:	f040 80a8 	bne.w	8003b4a <_vfprintf_r+0xc02>
 80039fa:	3d10      	subs	r5, #16
 80039fc:	2d10      	cmp	r5, #16
 80039fe:	e9dd 202b 	ldrd	r2, r0, [sp, #172]	; 0xac
 8003a02:	a92d      	add	r1, sp, #180	; 0xb4
 8003a04:	dce8      	bgt.n	80039d8 <_vfprintf_r+0xa90>
 8003a06:	463e      	mov	r6, r7
 8003a08:	4623      	mov	r3, r4
 8003a0a:	465f      	mov	r7, fp
 8003a0c:	4604      	mov	r4, r0
 8003a0e:	468b      	mov	fp, r1
 8003a10:	3201      	adds	r2, #1
 8003a12:	442c      	add	r4, r5
 8003a14:	2a07      	cmp	r2, #7
 8003a16:	e9cd 242b 	strd	r2, r4, [sp, #172]	; 0xac
 8003a1a:	e9cb 3500 	strd	r3, r5, [fp]
 8003a1e:	f300 8292 	bgt.w	8003f46 <_vfprintf_r+0xffe>
 8003a22:	f10b 0b08 	add.w	fp, fp, #8
 8003a26:	e490      	b.n	800334a <_vfprintf_r+0x402>
 8003a28:	aa2a      	add	r2, sp, #168	; 0xa8
 8003a2a:	9907      	ldr	r1, [sp, #28]
 8003a2c:	9803      	ldr	r0, [sp, #12]
 8003a2e:	f003 fdc9 	bl	80075c4 <__sprint_r>
 8003a32:	2800      	cmp	r0, #0
 8003a34:	f43f ad23 	beq.w	800347e <_vfprintf_r+0x536>
 8003a38:	f8dd 901c 	ldr.w	r9, [sp, #28]
 8003a3c:	990a      	ldr	r1, [sp, #40]	; 0x28
 8003a3e:	b111      	cbz	r1, 8003a46 <_vfprintf_r+0xafe>
 8003a40:	9803      	ldr	r0, [sp, #12]
 8003a42:	f002 f9d1 	bl	8005de8 <_free_r>
 8003a46:	f8d9 2064 	ldr.w	r2, [r9, #100]	; 0x64
 8003a4a:	f8b9 300c 	ldrh.w	r3, [r9, #12]
 8003a4e:	07d0      	lsls	r0, r2, #31
 8003a50:	d402      	bmi.n	8003a58 <_vfprintf_r+0xb10>
 8003a52:	0599      	lsls	r1, r3, #22
 8003a54:	f140 81d0 	bpl.w	8003df8 <_vfprintf_r+0xeb0>
 8003a58:	065a      	lsls	r2, r3, #25
 8003a5a:	f53f ab65 	bmi.w	8003128 <_vfprintf_r+0x1e0>
 8003a5e:	9805      	ldr	r0, [sp, #20]
 8003a60:	b057      	add	sp, #348	; 0x15c
 8003a62:	e8bd 8ff0 	ldmia.w	sp!, {r4, r5, r6, r7, r8, r9, sl, fp, pc}
 8003a66:	9a10      	ldr	r2, [sp, #64]	; 0x40
 8003a68:	9b2b      	ldr	r3, [sp, #172]	; 0xac
 8003a6a:	2a01      	cmp	r2, #1
 8003a6c:	f104 0401 	add.w	r4, r4, #1
 8003a70:	f103 0501 	add.w	r5, r3, #1
 8003a74:	f10b 0608 	add.w	r6, fp, #8
 8003a78:	f340 811c 	ble.w	8003cb4 <_vfprintf_r+0xd6c>
 8003a7c:	2301      	movs	r3, #1
 8003a7e:	2d07      	cmp	r5, #7
 8003a80:	f8cb 7000 	str.w	r7, [fp]
 8003a84:	e9cd 542b 	strd	r5, r4, [sp, #172]	; 0xac
 8003a88:	f8cb 3004 	str.w	r3, [fp, #4]
 8003a8c:	f300 81bb 	bgt.w	8003e06 <_vfprintf_r+0xebe>
 8003a90:	9b15      	ldr	r3, [sp, #84]	; 0x54
 8003a92:	9a16      	ldr	r2, [sp, #88]	; 0x58
 8003a94:	1c69      	adds	r1, r5, #1
 8003a96:	441c      	add	r4, r3
 8003a98:	2907      	cmp	r1, #7
 8003a9a:	910b      	str	r1, [sp, #44]	; 0x2c
 8003a9c:	e9cd 142b 	strd	r1, r4, [sp, #172]	; 0xac
 8003aa0:	e9c6 2300 	strd	r2, r3, [r6]
 8003aa4:	f300 81bb 	bgt.w	8003e1e <_vfprintf_r+0xed6>
 8003aa8:	3608      	adds	r6, #8
 8003aaa:	9a0b      	ldr	r2, [sp, #44]	; 0x2c
 8003aac:	1c53      	adds	r3, r2, #1
 8003aae:	461d      	mov	r5, r3
 8003ab0:	9509      	str	r5, [sp, #36]	; 0x24
 8003ab2:	9d10      	ldr	r5, [sp, #64]	; 0x40
 8003ab4:	930e      	str	r3, [sp, #56]	; 0x38
 8003ab6:	2200      	movs	r2, #0
 8003ab8:	2300      	movs	r3, #0
 8003aba:	e9dd 0112 	ldrd	r0, r1, [sp, #72]	; 0x48
 8003abe:	f105 39ff 	add.w	r9, r5, #4294967295	; 0xffffffff
 8003ac2:	f106 0b08 	add.w	fp, r6, #8
 8003ac6:	f7fd faad 	bl	8001024 <__aeabi_dcmpeq>
 8003aca:	2800      	cmp	r0, #0
 8003acc:	f040 80c2 	bne.w	8003c54 <_vfprintf_r+0xd0c>
 8003ad0:	9d09      	ldr	r5, [sp, #36]	; 0x24
 8003ad2:	f8c6 9004 	str.w	r9, [r6, #4]
 8003ad6:	3701      	adds	r7, #1
 8003ad8:	444c      	add	r4, r9
 8003ada:	2d07      	cmp	r5, #7
 8003adc:	6037      	str	r7, [r6, #0]
 8003ade:	942c      	str	r4, [sp, #176]	; 0xb0
 8003ae0:	952b      	str	r5, [sp, #172]	; 0xac
 8003ae2:	f300 80f9 	bgt.w	8003cd8 <_vfprintf_r+0xd90>
 8003ae6:	9a0b      	ldr	r2, [sp, #44]	; 0x2c
 8003ae8:	f106 0310 	add.w	r3, r6, #16
 8003aec:	3202      	adds	r2, #2
 8003aee:	465e      	mov	r6, fp
 8003af0:	9209      	str	r2, [sp, #36]	; 0x24
 8003af2:	469b      	mov	fp, r3
 8003af4:	9a19      	ldr	r2, [sp, #100]	; 0x64
 8003af6:	6072      	str	r2, [r6, #4]
 8003af8:	4414      	add	r4, r2
 8003afa:	9a09      	ldr	r2, [sp, #36]	; 0x24
 8003afc:	942c      	str	r4, [sp, #176]	; 0xb0
 8003afe:	ab26      	add	r3, sp, #152	; 0x98
 8003b00:	2a07      	cmp	r2, #7
 8003b02:	922b      	str	r2, [sp, #172]	; 0xac
 8003b04:	6033      	str	r3, [r6, #0]
 8003b06:	f77f ac70 	ble.w	80033ea <_vfprintf_r+0x4a2>
 8003b0a:	aa2a      	add	r2, sp, #168	; 0xa8
 8003b0c:	9907      	ldr	r1, [sp, #28]
 8003b0e:	9803      	ldr	r0, [sp, #12]
 8003b10:	f003 fd58 	bl	80075c4 <__sprint_r>
 8003b14:	2800      	cmp	r0, #0
 8003b16:	d18f      	bne.n	8003a38 <_vfprintf_r+0xaf0>
 8003b18:	9c2c      	ldr	r4, [sp, #176]	; 0xb0
 8003b1a:	f10d 0bb4 	add.w	fp, sp, #180	; 0xb4
 8003b1e:	e464      	b.n	80033ea <_vfprintf_r+0x4a2>
 8003b20:	9817      	ldr	r0, [sp, #92]	; 0x5c
 8003b22:	af56      	add	r7, sp, #344	; 0x158
 8003b24:	0923      	lsrs	r3, r4, #4
 8003b26:	f004 010f 	and.w	r1, r4, #15
 8003b2a:	ea43 7305 	orr.w	r3, r3, r5, lsl #28
 8003b2e:	092a      	lsrs	r2, r5, #4
 8003b30:	461c      	mov	r4, r3
 8003b32:	4615      	mov	r5, r2
 8003b34:	5c43      	ldrb	r3, [r0, r1]
 8003b36:	f807 3d01 	strb.w	r3, [r7, #-1]!
 8003b3a:	ea54 0305 	orrs.w	r3, r4, r5
 8003b3e:	d1f1      	bne.n	8003b24 <_vfprintf_r+0xbdc>
 8003b40:	9b04      	ldr	r3, [sp, #16]
 8003b42:	1bdb      	subs	r3, r3, r7
 8003b44:	9309      	str	r3, [sp, #36]	; 0x24
 8003b46:	f7ff bb80 	b.w	800324a <_vfprintf_r+0x302>
 8003b4a:	46b1      	mov	r9, r6
 8003b4c:	e776      	b.n	8003a3c <_vfprintf_r+0xaf4>
 8003b4e:	aa2a      	add	r2, sp, #168	; 0xa8
 8003b50:	9907      	ldr	r1, [sp, #28]
 8003b52:	9803      	ldr	r0, [sp, #12]
 8003b54:	f003 fd36 	bl	80075c4 <__sprint_r>
 8003b58:	2800      	cmp	r0, #0
 8003b5a:	f47f af6d 	bne.w	8003a38 <_vfprintf_r+0xaf0>
 8003b5e:	9c2c      	ldr	r4, [sp, #176]	; 0xb0
 8003b60:	f10d 0bb4 	add.w	fp, sp, #180	; 0xb4
 8003b64:	f7ff bbdd 	b.w	8003322 <_vfprintf_r+0x3da>
 8003b68:	aa2a      	add	r2, sp, #168	; 0xa8
 8003b6a:	9907      	ldr	r1, [sp, #28]
 8003b6c:	9803      	ldr	r0, [sp, #12]
 8003b6e:	f003 fd29 	bl	80075c4 <__sprint_r>
 8003b72:	2800      	cmp	r0, #0
 8003b74:	f47f af60 	bne.w	8003a38 <_vfprintf_r+0xaf0>
 8003b78:	9c2c      	ldr	r4, [sp, #176]	; 0xb0
 8003b7a:	f10d 0bb4 	add.w	fp, sp, #180	; 0xb4
 8003b7e:	f7ff bbe0 	b.w	8003342 <_vfprintf_r+0x3fa>
 8003b82:	4698      	mov	r8, r3
 8003b84:	2d00      	cmp	r5, #0
 8003b86:	bf08      	it	eq
 8003b88:	2c0a      	cmpeq	r4, #10
 8003b8a:	f080 8170 	bcs.w	8003e6e <_vfprintf_r+0xf26>
 8003b8e:	af56      	add	r7, sp, #344	; 0x158
 8003b90:	3430      	adds	r4, #48	; 0x30
 8003b92:	2301      	movs	r3, #1
 8003b94:	f807 4d01 	strb.w	r4, [r7, #-1]!
 8003b98:	9309      	str	r3, [sp, #36]	; 0x24
 8003b9a:	f7ff bb56 	b.w	800324a <_vfprintf_r+0x302>
 8003b9e:	aa2a      	add	r2, sp, #168	; 0xa8
 8003ba0:	9907      	ldr	r1, [sp, #28]
 8003ba2:	9803      	ldr	r0, [sp, #12]
 8003ba4:	f003 fd0e 	bl	80075c4 <__sprint_r>
 8003ba8:	2800      	cmp	r0, #0
 8003baa:	f47f af45 	bne.w	8003a38 <_vfprintf_r+0xaf0>
 8003bae:	9c2c      	ldr	r4, [sp, #176]	; 0xb0
 8003bb0:	f10d 0bb4 	add.w	fp, sp, #180	; 0xb4
 8003bb4:	e406      	b.n	80033c4 <_vfprintf_r+0x47c>
 8003bb6:	9b24      	ldr	r3, [sp, #144]	; 0x90
 8003bb8:	2b00      	cmp	r3, #0
 8003bba:	f340 8273 	ble.w	80040a4 <_vfprintf_r+0x115c>
 8003bbe:	e9dd 2310 	ldrd	r2, r3, [sp, #64]	; 0x40
 8003bc2:	4293      	cmp	r3, r2
 8003bc4:	bfa8      	it	ge
 8003bc6:	4613      	movge	r3, r2
 8003bc8:	2b00      	cmp	r3, #0
 8003bca:	461d      	mov	r5, r3
 8003bcc:	dd0d      	ble.n	8003bea <_vfprintf_r+0xca2>
 8003bce:	9b2b      	ldr	r3, [sp, #172]	; 0xac
 8003bd0:	f8cb 7000 	str.w	r7, [fp]
 8003bd4:	3301      	adds	r3, #1
 8003bd6:	442c      	add	r4, r5
 8003bd8:	2b07      	cmp	r3, #7
 8003bda:	942c      	str	r4, [sp, #176]	; 0xb0
 8003bdc:	f8cb 5004 	str.w	r5, [fp, #4]
 8003be0:	932b      	str	r3, [sp, #172]	; 0xac
 8003be2:	f300 82c1 	bgt.w	8004168 <_vfprintf_r+0x1220>
 8003be6:	f10b 0b08 	add.w	fp, fp, #8
 8003bea:	9b11      	ldr	r3, [sp, #68]	; 0x44
 8003bec:	2d00      	cmp	r5, #0
 8003bee:	bfa8      	it	ge
 8003bf0:	1b5b      	subge	r3, r3, r5
 8003bf2:	2b00      	cmp	r3, #0
 8003bf4:	461d      	mov	r5, r3
 8003bf6:	f340 8099 	ble.w	8003d2c <_vfprintf_r+0xde4>
 8003bfa:	2d10      	cmp	r5, #16
 8003bfc:	9a2b      	ldr	r2, [sp, #172]	; 0xac
 8003bfe:	4b2c      	ldr	r3, [pc, #176]	; (8003cb0 <_vfprintf_r+0xd68>)
 8003c00:	f340 83db 	ble.w	80043ba <_vfprintf_r+0x1472>
 8003c04:	4618      	mov	r0, r3
 8003c06:	4621      	mov	r1, r4
 8003c08:	465b      	mov	r3, fp
 8003c0a:	2610      	movs	r6, #16
 8003c0c:	46bb      	mov	fp, r7
 8003c0e:	f8dd 900c 	ldr.w	r9, [sp, #12]
 8003c12:	9c07      	ldr	r4, [sp, #28]
 8003c14:	4607      	mov	r7, r0
 8003c16:	e004      	b.n	8003c22 <_vfprintf_r+0xcda>
 8003c18:	3308      	adds	r3, #8
 8003c1a:	3d10      	subs	r5, #16
 8003c1c:	2d10      	cmp	r5, #16
 8003c1e:	f340 83c7 	ble.w	80043b0 <_vfprintf_r+0x1468>
 8003c22:	3201      	adds	r2, #1
 8003c24:	3110      	adds	r1, #16
 8003c26:	2a07      	cmp	r2, #7
 8003c28:	e9cd 212b 	strd	r2, r1, [sp, #172]	; 0xac
 8003c2c:	e9c3 7600 	strd	r7, r6, [r3]
 8003c30:	ddf2      	ble.n	8003c18 <_vfprintf_r+0xcd0>
 8003c32:	aa2a      	add	r2, sp, #168	; 0xa8
 8003c34:	4621      	mov	r1, r4
 8003c36:	4648      	mov	r0, r9
 8003c38:	f003 fcc4 	bl	80075c4 <__sprint_r>
 8003c3c:	2800      	cmp	r0, #0
 8003c3e:	f040 84a5 	bne.w	800458c <_vfprintf_r+0x1644>
 8003c42:	e9dd 212b 	ldrd	r2, r1, [sp, #172]	; 0xac
 8003c46:	ab2d      	add	r3, sp, #180	; 0xb4
 8003c48:	e7e7      	b.n	8003c1a <_vfprintf_r+0xcd2>
 8003c4a:	f8cd 9024 	str.w	r9, [sp, #36]	; 0x24
 8003c4e:	af56      	add	r7, sp, #344	; 0x158
 8003c50:	f7ff bafb 	b.w	800324a <_vfprintf_r+0x302>
 8003c54:	f1b9 0f00 	cmp.w	r9, #0
 8003c58:	f77f af4c 	ble.w	8003af4 <_vfprintf_r+0xbac>
 8003c5c:	f1b9 0f10 	cmp.w	r9, #16
 8003c60:	4b13      	ldr	r3, [pc, #76]	; (8003cb0 <_vfprintf_r+0xd68>)
 8003c62:	f340 8659 	ble.w	8004918 <_vfprintf_r+0x19d0>
 8003c66:	4619      	mov	r1, r3
 8003c68:	4622      	mov	r2, r4
 8003c6a:	4633      	mov	r3, r6
 8003c6c:	2710      	movs	r7, #16
 8003c6e:	f8dd b00c 	ldr.w	fp, [sp, #12]
 8003c72:	9c07      	ldr	r4, [sp, #28]
 8003c74:	9d0e      	ldr	r5, [sp, #56]	; 0x38
 8003c76:	460e      	mov	r6, r1
 8003c78:	e007      	b.n	8003c8a <_vfprintf_r+0xd42>
 8003c7a:	3308      	adds	r3, #8
 8003c7c:	f1a9 0910 	sub.w	r9, r9, #16
 8003c80:	f1b9 0f10 	cmp.w	r9, #16
 8003c84:	f340 8353 	ble.w	800432e <_vfprintf_r+0x13e6>
 8003c88:	3501      	adds	r5, #1
 8003c8a:	3210      	adds	r2, #16
 8003c8c:	2d07      	cmp	r5, #7
 8003c8e:	e9cd 522b 	strd	r5, r2, [sp, #172]	; 0xac
 8003c92:	e9c3 6700 	strd	r6, r7, [r3]
 8003c96:	ddf0      	ble.n	8003c7a <_vfprintf_r+0xd32>
 8003c98:	aa2a      	add	r2, sp, #168	; 0xa8
 8003c9a:	4621      	mov	r1, r4
 8003c9c:	4658      	mov	r0, fp
 8003c9e:	f003 fc91 	bl	80075c4 <__sprint_r>
 8003ca2:	2800      	cmp	r0, #0
 8003ca4:	f040 8472 	bne.w	800458c <_vfprintf_r+0x1644>
 8003ca8:	e9dd 522b 	ldrd	r5, r2, [sp, #172]	; 0xac
 8003cac:	ab2d      	add	r3, sp, #180	; 0xb4
 8003cae:	e7e5      	b.n	8003c7c <_vfprintf_r+0xd34>
 8003cb0:	08007c98 	.word	0x08007c98
 8003cb4:	f018 0f01 	tst.w	r8, #1
 8003cb8:	f47f aee0 	bne.w	8003a7c <_vfprintf_r+0xb34>
 8003cbc:	2201      	movs	r2, #1
 8003cbe:	2d07      	cmp	r5, #7
 8003cc0:	f8cb 7000 	str.w	r7, [fp]
 8003cc4:	e9cd 542b 	strd	r5, r4, [sp, #172]	; 0xac
 8003cc8:	f8cb 2004 	str.w	r2, [fp, #4]
 8003ccc:	dc04      	bgt.n	8003cd8 <_vfprintf_r+0xd90>
 8003cce:	3302      	adds	r3, #2
 8003cd0:	9309      	str	r3, [sp, #36]	; 0x24
 8003cd2:	f10b 0b10 	add.w	fp, fp, #16
 8003cd6:	e70d      	b.n	8003af4 <_vfprintf_r+0xbac>
 8003cd8:	aa2a      	add	r2, sp, #168	; 0xa8
 8003cda:	9907      	ldr	r1, [sp, #28]
 8003cdc:	9803      	ldr	r0, [sp, #12]
 8003cde:	f003 fc71 	bl	80075c4 <__sprint_r>
 8003ce2:	2800      	cmp	r0, #0
 8003ce4:	f47f aea8 	bne.w	8003a38 <_vfprintf_r+0xaf0>
 8003ce8:	e9dd 342b 	ldrd	r3, r4, [sp, #172]	; 0xac
 8003cec:	3301      	adds	r3, #1
 8003cee:	9309      	str	r3, [sp, #36]	; 0x24
 8003cf0:	f10d 0bbc 	add.w	fp, sp, #188	; 0xbc
 8003cf4:	ae2d      	add	r6, sp, #180	; 0xb4
 8003cf6:	e6fd      	b.n	8003af4 <_vfprintf_r+0xbac>
 8003cf8:	aa2a      	add	r2, sp, #168	; 0xa8
 8003cfa:	9907      	ldr	r1, [sp, #28]
 8003cfc:	9803      	ldr	r0, [sp, #12]
 8003cfe:	f003 fc61 	bl	80075c4 <__sprint_r>
 8003d02:	2800      	cmp	r0, #0
 8003d04:	f47f ae98 	bne.w	8003a38 <_vfprintf_r+0xaf0>
 8003d08:	f89d 208b 	ldrb.w	r2, [sp, #139]	; 0x8b
 8003d0c:	9c2c      	ldr	r4, [sp, #176]	; 0xb0
 8003d0e:	f10d 0bb4 	add.w	fp, sp, #180	; 0xb4
 8003d12:	f7ff baf6 	b.w	8003302 <_vfprintf_r+0x3ba>
 8003d16:	aa2a      	add	r2, sp, #168	; 0xa8
 8003d18:	9907      	ldr	r1, [sp, #28]
 8003d1a:	9803      	ldr	r0, [sp, #12]
 8003d1c:	f003 fc52 	bl	80075c4 <__sprint_r>
 8003d20:	2800      	cmp	r0, #0
 8003d22:	f47f ae89 	bne.w	8003a38 <_vfprintf_r+0xaf0>
 8003d26:	9c2c      	ldr	r4, [sp, #176]	; 0xb0
 8003d28:	f10d 0bb4 	add.w	fp, sp, #180	; 0xb4
 8003d2c:	9b11      	ldr	r3, [sp, #68]	; 0x44
 8003d2e:	f418 6f80 	tst.w	r8, #1024	; 0x400
 8003d32:	443b      	add	r3, r7
 8003d34:	4699      	mov	r9, r3
 8003d36:	f040 8357 	bne.w	80043e8 <_vfprintf_r+0x14a0>
 8003d3a:	9b24      	ldr	r3, [sp, #144]	; 0x90
 8003d3c:	9a10      	ldr	r2, [sp, #64]	; 0x40
 8003d3e:	4293      	cmp	r3, r2
 8003d40:	db49      	blt.n	8003dd6 <_vfprintf_r+0xe8e>
 8003d42:	f018 0f01 	tst.w	r8, #1
 8003d46:	d146      	bne.n	8003dd6 <_vfprintf_r+0xe8e>
 8003d48:	9a10      	ldr	r2, [sp, #64]	; 0x40
 8003d4a:	18bd      	adds	r5, r7, r2
 8003d4c:	eba5 0509 	sub.w	r5, r5, r9
 8003d50:	1ad3      	subs	r3, r2, r3
 8003d52:	429d      	cmp	r5, r3
 8003d54:	bfa8      	it	ge
 8003d56:	461d      	movge	r5, r3
 8003d58:	2d00      	cmp	r5, #0
 8003d5a:	dd0d      	ble.n	8003d78 <_vfprintf_r+0xe30>
 8003d5c:	9a2b      	ldr	r2, [sp, #172]	; 0xac
 8003d5e:	f8cb 9000 	str.w	r9, [fp]
 8003d62:	3201      	adds	r2, #1
 8003d64:	442c      	add	r4, r5
 8003d66:	2a07      	cmp	r2, #7
 8003d68:	942c      	str	r4, [sp, #176]	; 0xb0
 8003d6a:	f8cb 5004 	str.w	r5, [fp, #4]
 8003d6e:	922b      	str	r2, [sp, #172]	; 0xac
 8003d70:	f300 8462 	bgt.w	8004638 <_vfprintf_r+0x16f0>
 8003d74:	f10b 0b08 	add.w	fp, fp, #8
 8003d78:	2d00      	cmp	r5, #0
 8003d7a:	bfac      	ite	ge
 8003d7c:	1b5d      	subge	r5, r3, r5
 8003d7e:	461d      	movlt	r5, r3
 8003d80:	2d00      	cmp	r5, #0
 8003d82:	f77f ab32 	ble.w	80033ea <_vfprintf_r+0x4a2>
 8003d86:	2d10      	cmp	r5, #16
 8003d88:	9a2b      	ldr	r2, [sp, #172]	; 0xac
 8003d8a:	4bc5      	ldr	r3, [pc, #788]	; (80040a0 <_vfprintf_r+0x1158>)
 8003d8c:	f340 80c4 	ble.w	8003f18 <_vfprintf_r+0xfd0>
 8003d90:	4619      	mov	r1, r3
 8003d92:	2610      	movs	r6, #16
 8003d94:	4623      	mov	r3, r4
 8003d96:	9f03      	ldr	r7, [sp, #12]
 8003d98:	f8dd 901c 	ldr.w	r9, [sp, #28]
 8003d9c:	460c      	mov	r4, r1
 8003d9e:	e005      	b.n	8003dac <_vfprintf_r+0xe64>
 8003da0:	f10b 0b08 	add.w	fp, fp, #8
 8003da4:	3d10      	subs	r5, #16
 8003da6:	2d10      	cmp	r5, #16
 8003da8:	f340 80b3 	ble.w	8003f12 <_vfprintf_r+0xfca>
 8003dac:	3201      	adds	r2, #1
 8003dae:	3310      	adds	r3, #16
 8003db0:	2a07      	cmp	r2, #7
 8003db2:	e9cd 232b 	strd	r2, r3, [sp, #172]	; 0xac
 8003db6:	e9cb 4600 	strd	r4, r6, [fp]
 8003dba:	ddf1      	ble.n	8003da0 <_vfprintf_r+0xe58>
 8003dbc:	aa2a      	add	r2, sp, #168	; 0xa8
 8003dbe:	4649      	mov	r1, r9
 8003dc0:	4638      	mov	r0, r7
 8003dc2:	f003 fbff 	bl	80075c4 <__sprint_r>
 8003dc6:	2800      	cmp	r0, #0
 8003dc8:	f47f ae38 	bne.w	8003a3c <_vfprintf_r+0xaf4>
 8003dcc:	e9dd 232b 	ldrd	r2, r3, [sp, #172]	; 0xac
 8003dd0:	f10d 0bb4 	add.w	fp, sp, #180	; 0xb4
 8003dd4:	e7e6      	b.n	8003da4 <_vfprintf_r+0xe5c>
 8003dd6:	9a2b      	ldr	r2, [sp, #172]	; 0xac
 8003dd8:	9916      	ldr	r1, [sp, #88]	; 0x58
 8003dda:	f8cb 1000 	str.w	r1, [fp]
 8003dde:	9915      	ldr	r1, [sp, #84]	; 0x54
 8003de0:	f8cb 1004 	str.w	r1, [fp, #4]
 8003de4:	3201      	adds	r2, #1
 8003de6:	440c      	add	r4, r1
 8003de8:	2a07      	cmp	r2, #7
 8003dea:	942c      	str	r4, [sp, #176]	; 0xb0
 8003dec:	922b      	str	r2, [sp, #172]	; 0xac
 8003dee:	f300 828c 	bgt.w	800430a <_vfprintf_r+0x13c2>
 8003df2:	f10b 0b08 	add.w	fp, fp, #8
 8003df6:	e7a7      	b.n	8003d48 <_vfprintf_r+0xe00>
 8003df8:	f8d9 0058 	ldr.w	r0, [r9, #88]	; 0x58
 8003dfc:	f002 faa4 	bl	8006348 <__retarget_lock_release_recursive>
 8003e00:	f8b9 300c 	ldrh.w	r3, [r9, #12]
 8003e04:	e628      	b.n	8003a58 <_vfprintf_r+0xb10>
 8003e06:	aa2a      	add	r2, sp, #168	; 0xa8
 8003e08:	9907      	ldr	r1, [sp, #28]
 8003e0a:	9803      	ldr	r0, [sp, #12]
 8003e0c:	f003 fbda 	bl	80075c4 <__sprint_r>
 8003e10:	2800      	cmp	r0, #0
 8003e12:	f47f ae11 	bne.w	8003a38 <_vfprintf_r+0xaf0>
 8003e16:	e9dd 542b 	ldrd	r5, r4, [sp, #172]	; 0xac
 8003e1a:	ae2d      	add	r6, sp, #180	; 0xb4
 8003e1c:	e638      	b.n	8003a90 <_vfprintf_r+0xb48>
 8003e1e:	aa2a      	add	r2, sp, #168	; 0xa8
 8003e20:	9907      	ldr	r1, [sp, #28]
 8003e22:	9803      	ldr	r0, [sp, #12]
 8003e24:	f003 fbce 	bl	80075c4 <__sprint_r>
 8003e28:	2800      	cmp	r0, #0
 8003e2a:	f47f ae05 	bne.w	8003a38 <_vfprintf_r+0xaf0>
 8003e2e:	e9dd 342b 	ldrd	r3, r4, [sp, #172]	; 0xac
 8003e32:	ae2d      	add	r6, sp, #180	; 0xb4
 8003e34:	930b      	str	r3, [sp, #44]	; 0x2c
 8003e36:	e638      	b.n	8003aaa <_vfprintf_r+0xb62>
 8003e38:	6814      	ldr	r4, [r2, #0]
 8003e3a:	9308      	str	r3, [sp, #32]
 8003e3c:	2500      	movs	r5, #0
 8003e3e:	f7ff bb95 	b.w	800356c <_vfprintf_r+0x624>
 8003e42:	6814      	ldr	r4, [r2, #0]
 8003e44:	9308      	str	r3, [sp, #32]
 8003e46:	2500      	movs	r5, #0
 8003e48:	f7ff b9ae 	b.w	80031a8 <_vfprintf_r+0x260>
 8003e4c:	680c      	ldr	r4, [r1, #0]
 8003e4e:	9208      	str	r2, [sp, #32]
 8003e50:	17e5      	asrs	r5, r4, #31
 8003e52:	4620      	mov	r0, r4
 8003e54:	4629      	mov	r1, r5
 8003e56:	f7ff b9d2 	b.w	80031fe <_vfprintf_r+0x2b6>
 8003e5a:	6814      	ldr	r4, [r2, #0]
 8003e5c:	9108      	str	r1, [sp, #32]
 8003e5e:	2201      	movs	r2, #1
 8003e60:	2500      	movs	r5, #0
 8003e62:	f7ff bb32 	b.w	80034ca <_vfprintf_r+0x582>
 8003e66:	2a01      	cmp	r2, #1
 8003e68:	f47f ab3c 	bne.w	80034e4 <_vfprintf_r+0x59c>
 8003e6c:	e68f      	b.n	8003b8e <_vfprintf_r+0xc46>
 8003e6e:	f408 6380 	and.w	r3, r8, #1024	; 0x400
 8003e72:	2200      	movs	r2, #0
 8003e74:	e9cd a609 	strd	sl, r6, [sp, #36]	; 0x24
 8003e78:	f8cd 802c 	str.w	r8, [sp, #44]	; 0x2c
 8003e7c:	af56      	add	r7, sp, #344	; 0x158
 8003e7e:	4692      	mov	sl, r2
 8003e80:	f8dd 8068 	ldr.w	r8, [sp, #104]	; 0x68
 8003e84:	461e      	mov	r6, r3
 8003e86:	e00a      	b.n	8003e9e <_vfprintf_r+0xf56>
 8003e88:	2300      	movs	r3, #0
 8003e8a:	4620      	mov	r0, r4
 8003e8c:	4629      	mov	r1, r5
 8003e8e:	220a      	movs	r2, #10
 8003e90:	f7fc f9b6 	bl	8000200 <__aeabi_uldivmod>
 8003e94:	4604      	mov	r4, r0
 8003e96:	460d      	mov	r5, r1
 8003e98:	ea54 0305 	orrs.w	r3, r4, r5
 8003e9c:	d029      	beq.n	8003ef2 <_vfprintf_r+0xfaa>
 8003e9e:	220a      	movs	r2, #10
 8003ea0:	2300      	movs	r3, #0
 8003ea2:	4620      	mov	r0, r4
 8003ea4:	4629      	mov	r1, r5
 8003ea6:	f7fc f9ab 	bl	8000200 <__aeabi_uldivmod>
 8003eaa:	3230      	adds	r2, #48	; 0x30
 8003eac:	f807 2c01 	strb.w	r2, [r7, #-1]
 8003eb0:	f10a 0a01 	add.w	sl, sl, #1
 8003eb4:	3f01      	subs	r7, #1
 8003eb6:	2e00      	cmp	r6, #0
 8003eb8:	d0e6      	beq.n	8003e88 <_vfprintf_r+0xf40>
 8003eba:	f898 3000 	ldrb.w	r3, [r8]
 8003ebe:	459a      	cmp	sl, r3
 8003ec0:	d1e2      	bne.n	8003e88 <_vfprintf_r+0xf40>
 8003ec2:	f1ba 0fff 	cmp.w	sl, #255	; 0xff
 8003ec6:	d0df      	beq.n	8003e88 <_vfprintf_r+0xf40>
 8003ec8:	2d00      	cmp	r5, #0
 8003eca:	bf08      	it	eq
 8003ecc:	2c0a      	cmpeq	r4, #10
 8003ece:	d3db      	bcc.n	8003e88 <_vfprintf_r+0xf40>
 8003ed0:	9b1b      	ldr	r3, [sp, #108]	; 0x6c
 8003ed2:	9918      	ldr	r1, [sp, #96]	; 0x60
 8003ed4:	1aff      	subs	r7, r7, r3
 8003ed6:	461a      	mov	r2, r3
 8003ed8:	4638      	mov	r0, r7
 8003eda:	f003 fb05 	bl	80074e8 <strncpy>
 8003ede:	f898 3001 	ldrb.w	r3, [r8, #1]
 8003ee2:	2b00      	cmp	r3, #0
 8003ee4:	f000 8496 	beq.w	8004814 <_vfprintf_r+0x18cc>
 8003ee8:	f108 0801 	add.w	r8, r8, #1
 8003eec:	f04f 0a00 	mov.w	sl, #0
 8003ef0:	e7ca      	b.n	8003e88 <_vfprintf_r+0xf40>
 8003ef2:	9b04      	ldr	r3, [sp, #16]
 8003ef4:	f8cd 8068 	str.w	r8, [sp, #104]	; 0x68
 8003ef8:	1bdb      	subs	r3, r3, r7
 8003efa:	f8cd a040 	str.w	sl, [sp, #64]	; 0x40
 8003efe:	9e0a      	ldr	r6, [sp, #40]	; 0x28
 8003f00:	f8dd a024 	ldr.w	sl, [sp, #36]	; 0x24
 8003f04:	f8dd 802c 	ldr.w	r8, [sp, #44]	; 0x2c
 8003f08:	9309      	str	r3, [sp, #36]	; 0x24
 8003f0a:	f7ff b99e 	b.w	800324a <_vfprintf_r+0x302>
 8003f0e:	46c1      	mov	r9, r8
 8003f10:	e594      	b.n	8003a3c <_vfprintf_r+0xaf4>
 8003f12:	4621      	mov	r1, r4
 8003f14:	461c      	mov	r4, r3
 8003f16:	460b      	mov	r3, r1
 8003f18:	3201      	adds	r2, #1
 8003f1a:	442c      	add	r4, r5
 8003f1c:	2a07      	cmp	r2, #7
 8003f1e:	e9cd 242b 	strd	r2, r4, [sp, #172]	; 0xac
 8003f22:	e9cb 3500 	strd	r3, r5, [fp]
 8003f26:	f77f aa5e 	ble.w	80033e6 <_vfprintf_r+0x49e>
 8003f2a:	e5ee      	b.n	8003b0a <_vfprintf_r+0xbc2>
 8003f2c:	f018 0f10 	tst.w	r8, #16
 8003f30:	f040 80f8 	bne.w	8004124 <_vfprintf_r+0x11dc>
 8003f34:	f018 0f40 	tst.w	r8, #64	; 0x40
 8003f38:	f000 8351 	beq.w	80045de <_vfprintf_r+0x1696>
 8003f3c:	9a05      	ldr	r2, [sp, #20]
 8003f3e:	801a      	strh	r2, [r3, #0]
 8003f40:	4657      	mov	r7, sl
 8003f42:	f7ff baa7 	b.w	8003494 <_vfprintf_r+0x54c>
 8003f46:	aa2a      	add	r2, sp, #168	; 0xa8
 8003f48:	9907      	ldr	r1, [sp, #28]
 8003f4a:	9803      	ldr	r0, [sp, #12]
 8003f4c:	f003 fb3a 	bl	80075c4 <__sprint_r>
 8003f50:	2800      	cmp	r0, #0
 8003f52:	f47f ad71 	bne.w	8003a38 <_vfprintf_r+0xaf0>
 8003f56:	9c2c      	ldr	r4, [sp, #176]	; 0xb0
 8003f58:	f10d 0bb4 	add.w	fp, sp, #180	; 0xb4
 8003f5c:	f7ff b9f5 	b.w	800334a <_vfprintf_r+0x402>
 8003f60:	e9dd 0112 	ldrd	r0, r1, [sp, #72]	; 0x48
 8003f64:	4602      	mov	r2, r0
 8003f66:	460b      	mov	r3, r1
 8003f68:	f7fd f88e 	bl	8001088 <__aeabi_dcmpun>
 8003f6c:	2800      	cmp	r0, #0
 8003f6e:	f040 8491 	bne.w	8004894 <_vfprintf_r+0x194c>
 8003f72:	2e61      	cmp	r6, #97	; 0x61
 8003f74:	f000 8111 	beq.w	800419a <_vfprintf_r+0x1252>
 8003f78:	2e41      	cmp	r6, #65	; 0x41
 8003f7a:	f000 8377 	beq.w	800466c <_vfprintf_r+0x1724>
 8003f7e:	f448 7380 	orr.w	r3, r8, #256	; 0x100
 8003f82:	f026 0220 	bic.w	r2, r6, #32
 8003f86:	f1b9 3fff 	cmp.w	r9, #4294967295	; 0xffffffff
 8003f8a:	930e      	str	r3, [sp, #56]	; 0x38
 8003f8c:	9204      	str	r2, [sp, #16]
 8003f8e:	9b13      	ldr	r3, [sp, #76]	; 0x4c
 8003f90:	f000 842d 	beq.w	80047ee <_vfprintf_r+0x18a6>
 8003f94:	2a47      	cmp	r2, #71	; 0x47
 8003f96:	f000 8424 	beq.w	80047e2 <_vfprintf_r+0x189a>
 8003f9a:	2b00      	cmp	r3, #0
 8003f9c:	f2c0 82f9 	blt.w	8004592 <_vfprintf_r+0x164a>
 8003fa0:	ed9d 7b12 	vldr	d7, [sp, #72]	; 0x48
 8003fa4:	e9cd 000a 	strd	r0, r0, [sp, #40]	; 0x28
 8003fa8:	ed8d 7b1e 	vstr	d7, [sp, #120]	; 0x78
 8003fac:	2e66      	cmp	r6, #102	; 0x66
 8003fae:	f000 83eb 	beq.w	8004788 <_vfprintf_r+0x1840>
 8003fb2:	2e46      	cmp	r6, #70	; 0x46
 8003fb4:	f000 847e 	beq.w	80048b4 <_vfprintf_r+0x196c>
 8003fb8:	9b04      	ldr	r3, [sp, #16]
 8003fba:	9803      	ldr	r0, [sp, #12]
 8003fbc:	2b45      	cmp	r3, #69	; 0x45
 8003fbe:	bf0c      	ite	eq
 8003fc0:	f109 0501 	addeq.w	r5, r9, #1
 8003fc4:	464d      	movne	r5, r9
 8003fc6:	aa28      	add	r2, sp, #160	; 0xa0
 8003fc8:	ab25      	add	r3, sp, #148	; 0x94
 8003fca:	e9cd 3200 	strd	r3, r2, [sp]
 8003fce:	2102      	movs	r1, #2
 8003fd0:	ab24      	add	r3, sp, #144	; 0x90
 8003fd2:	462a      	mov	r2, r5
 8003fd4:	ed9d 0b1e 	vldr	d0, [sp, #120]	; 0x78
 8003fd8:	f000 fe4e 	bl	8004c78 <_dtoa_r>
 8003fdc:	2e67      	cmp	r6, #103	; 0x67
 8003fde:	4607      	mov	r7, r0
 8003fe0:	f040 849c 	bne.w	800491c <_vfprintf_r+0x19d4>
 8003fe4:	f018 0f01 	tst.w	r8, #1
 8003fe8:	f040 83f9 	bne.w	80047de <_vfprintf_r+0x1896>
 8003fec:	9b28      	ldr	r3, [sp, #160]	; 0xa0
 8003fee:	4640      	mov	r0, r8
 8003ff0:	1bdb      	subs	r3, r3, r7
 8003ff2:	f8dd 8038 	ldr.w	r8, [sp, #56]	; 0x38
 8003ff6:	9310      	str	r3, [sp, #64]	; 0x40
 8003ff8:	9b24      	ldr	r3, [sp, #144]	; 0x90
 8003ffa:	9311      	str	r3, [sp, #68]	; 0x44
 8003ffc:	9b04      	ldr	r3, [sp, #16]
 8003ffe:	2b47      	cmp	r3, #71	; 0x47
 8004000:	f000 81e7 	beq.w	80043d2 <_vfprintf_r+0x148a>
 8004004:	9b04      	ldr	r3, [sp, #16]
 8004006:	2b46      	cmp	r3, #70	; 0x46
 8004008:	f000 8300 	beq.w	800460c <_vfprintf_r+0x16c4>
 800400c:	9904      	ldr	r1, [sp, #16]
 800400e:	9b11      	ldr	r3, [sp, #68]	; 0x44
 8004010:	b2f2      	uxtb	r2, r6
 8004012:	2941      	cmp	r1, #65	; 0x41
 8004014:	bf08      	it	eq
 8004016:	320f      	addeq	r2, #15
 8004018:	f103 33ff 	add.w	r3, r3, #4294967295	; 0xffffffff
 800401c:	bf06      	itte	eq
 800401e:	b2d2      	uxtbeq	r2, r2
 8004020:	2101      	moveq	r1, #1
 8004022:	2100      	movne	r1, #0
 8004024:	2b00      	cmp	r3, #0
 8004026:	9324      	str	r3, [sp, #144]	; 0x90
 8004028:	bfb8      	it	lt
 800402a:	9b11      	ldrlt	r3, [sp, #68]	; 0x44
 800402c:	f88d 2098 	strb.w	r2, [sp, #152]	; 0x98
 8004030:	bfba      	itte	lt
 8004032:	f1c3 0301 	rsblt	r3, r3, #1
 8004036:	222d      	movlt	r2, #45	; 0x2d
 8004038:	222b      	movge	r2, #43	; 0x2b
 800403a:	2b09      	cmp	r3, #9
 800403c:	f88d 2099 	strb.w	r2, [sp, #153]	; 0x99
 8004040:	f300 83f9 	bgt.w	8004836 <_vfprintf_r+0x18ee>
 8004044:	2900      	cmp	r1, #0
 8004046:	f040 8487 	bne.w	8004958 <_vfprintf_r+0x1a10>
 800404a:	2230      	movs	r2, #48	; 0x30
 800404c:	f88d 209a 	strb.w	r2, [sp, #154]	; 0x9a
 8004050:	f10d 029b 	add.w	r2, sp, #155	; 0x9b
 8004054:	3330      	adds	r3, #48	; 0x30
 8004056:	7013      	strb	r3, [r2, #0]
 8004058:	1c53      	adds	r3, r2, #1
 800405a:	aa26      	add	r2, sp, #152	; 0x98
 800405c:	1a9b      	subs	r3, r3, r2
 800405e:	9a10      	ldr	r2, [sp, #64]	; 0x40
 8004060:	9319      	str	r3, [sp, #100]	; 0x64
 8004062:	2a01      	cmp	r2, #1
 8004064:	4413      	add	r3, r2
 8004066:	9309      	str	r3, [sp, #36]	; 0x24
 8004068:	f340 8442 	ble.w	80048f0 <_vfprintf_r+0x19a8>
 800406c:	9b09      	ldr	r3, [sp, #36]	; 0x24
 800406e:	9a15      	ldr	r2, [sp, #84]	; 0x54
 8004070:	4413      	add	r3, r2
 8004072:	9309      	str	r3, [sp, #36]	; 0x24
 8004074:	2300      	movs	r3, #0
 8004076:	930f      	str	r3, [sp, #60]	; 0x3c
 8004078:	9314      	str	r3, [sp, #80]	; 0x50
 800407a:	9311      	str	r3, [sp, #68]	; 0x44
 800407c:	9b09      	ldr	r3, [sp, #36]	; 0x24
 800407e:	f420 6080 	bic.w	r0, r0, #1024	; 0x400
 8004082:	ea23 73e3 	bic.w	r3, r3, r3, asr #31
 8004086:	f440 7880 	orr.w	r8, r0, #256	; 0x100
 800408a:	9304      	str	r3, [sp, #16]
 800408c:	9b0b      	ldr	r3, [sp, #44]	; 0x2c
 800408e:	2b00      	cmp	r3, #0
 8004090:	f040 8275 	bne.w	800457e <_vfprintf_r+0x1636>
 8004094:	4699      	mov	r9, r3
 8004096:	f89d 208b 	ldrb.w	r2, [sp, #139]	; 0x8b
 800409a:	f7ff b8e2 	b.w	8003262 <_vfprintf_r+0x31a>
 800409e:	bf00      	nop
 80040a0:	08007c98 	.word	0x08007c98
 80040a4:	9a2b      	ldr	r2, [sp, #172]	; 0xac
 80040a6:	49bd      	ldr	r1, [pc, #756]	; (800439c <_vfprintf_r+0x1454>)
 80040a8:	f8cb 1000 	str.w	r1, [fp]
 80040ac:	3201      	adds	r2, #1
 80040ae:	3401      	adds	r4, #1
 80040b0:	2101      	movs	r1, #1
 80040b2:	2a07      	cmp	r2, #7
 80040b4:	e9cd 242b 	strd	r2, r4, [sp, #172]	; 0xac
 80040b8:	f8cb 1004 	str.w	r1, [fp, #4]
 80040bc:	dc60      	bgt.n	8004180 <_vfprintf_r+0x1238>
 80040be:	f10b 0b08 	add.w	fp, fp, #8
 80040c2:	b92b      	cbnz	r3, 80040d0 <_vfprintf_r+0x1188>
 80040c4:	9a10      	ldr	r2, [sp, #64]	; 0x40
 80040c6:	b91a      	cbnz	r2, 80040d0 <_vfprintf_r+0x1188>
 80040c8:	f018 0f01 	tst.w	r8, #1
 80040cc:	f43f a98d 	beq.w	80033ea <_vfprintf_r+0x4a2>
 80040d0:	9a2b      	ldr	r2, [sp, #172]	; 0xac
 80040d2:	9916      	ldr	r1, [sp, #88]	; 0x58
 80040d4:	f8cb 1000 	str.w	r1, [fp]
 80040d8:	9915      	ldr	r1, [sp, #84]	; 0x54
 80040da:	f8cb 1004 	str.w	r1, [fp, #4]
 80040de:	3201      	adds	r2, #1
 80040e0:	440c      	add	r4, r1
 80040e2:	2a07      	cmp	r2, #7
 80040e4:	942c      	str	r4, [sp, #176]	; 0xb0
 80040e6:	922b      	str	r2, [sp, #172]	; 0xac
 80040e8:	f300 8282 	bgt.w	80045f0 <_vfprintf_r+0x16a8>
 80040ec:	f10b 0b08 	add.w	fp, fp, #8
 80040f0:	2b00      	cmp	r3, #0
 80040f2:	f2c0 82e7 	blt.w	80046c4 <_vfprintf_r+0x177c>
 80040f6:	9b10      	ldr	r3, [sp, #64]	; 0x40
 80040f8:	3201      	adds	r2, #1
 80040fa:	441c      	add	r4, r3
 80040fc:	2a07      	cmp	r2, #7
 80040fe:	e9cd 242b 	strd	r2, r4, [sp, #172]	; 0xac
 8004102:	e9cb 7300 	strd	r7, r3, [fp]
 8004106:	f77f a96e 	ble.w	80033e6 <_vfprintf_r+0x49e>
 800410a:	e4fe      	b.n	8003b0a <_vfprintf_r+0xbc2>
 800410c:	aa2a      	add	r2, sp, #168	; 0xa8
 800410e:	9907      	ldr	r1, [sp, #28]
 8004110:	9803      	ldr	r0, [sp, #12]
 8004112:	f003 fa57 	bl	80075c4 <__sprint_r>
 8004116:	2800      	cmp	r0, #0
 8004118:	f47f ac8e 	bne.w	8003a38 <_vfprintf_r+0xaf0>
 800411c:	f10d 0bb4 	add.w	fp, sp, #180	; 0xb4
 8004120:	f7ff bbf0 	b.w	8003904 <_vfprintf_r+0x9bc>
 8004124:	9a05      	ldr	r2, [sp, #20]
 8004126:	601a      	str	r2, [r3, #0]
 8004128:	4657      	mov	r7, sl
 800412a:	f7ff b9b3 	b.w	8003494 <_vfprintf_r+0x54c>
 800412e:	8814      	ldrh	r4, [r2, #0]
 8004130:	9108      	str	r1, [sp, #32]
 8004132:	2500      	movs	r5, #0
 8004134:	2201      	movs	r2, #1
 8004136:	f7ff b9c8 	b.w	80034ca <_vfprintf_r+0x582>
 800413a:	8814      	ldrh	r4, [r2, #0]
 800413c:	9308      	str	r3, [sp, #32]
 800413e:	2500      	movs	r5, #0
 8004140:	f7ff ba14 	b.w	800356c <_vfprintf_r+0x624>
 8004144:	f9b1 4000 	ldrsh.w	r4, [r1]
 8004148:	9208      	str	r2, [sp, #32]
 800414a:	17e5      	asrs	r5, r4, #31
 800414c:	4620      	mov	r0, r4
 800414e:	4629      	mov	r1, r5
 8004150:	f7ff b855 	b.w	80031fe <_vfprintf_r+0x2b6>
 8004154:	8814      	ldrh	r4, [r2, #0]
 8004156:	9308      	str	r3, [sp, #32]
 8004158:	2500      	movs	r5, #0
 800415a:	f7ff b825 	b.w	80031a8 <_vfprintf_r+0x260>
 800415e:	222d      	movs	r2, #45	; 0x2d
 8004160:	f88d 208b 	strb.w	r2, [sp, #139]	; 0x8b
 8004164:	f7ff baa2 	b.w	80036ac <_vfprintf_r+0x764>
 8004168:	aa2a      	add	r2, sp, #168	; 0xa8
 800416a:	9907      	ldr	r1, [sp, #28]
 800416c:	9803      	ldr	r0, [sp, #12]
 800416e:	f003 fa29 	bl	80075c4 <__sprint_r>
 8004172:	2800      	cmp	r0, #0
 8004174:	f47f ac60 	bne.w	8003a38 <_vfprintf_r+0xaf0>
 8004178:	9c2c      	ldr	r4, [sp, #176]	; 0xb0
 800417a:	f10d 0bb4 	add.w	fp, sp, #180	; 0xb4
 800417e:	e534      	b.n	8003bea <_vfprintf_r+0xca2>
 8004180:	aa2a      	add	r2, sp, #168	; 0xa8
 8004182:	9907      	ldr	r1, [sp, #28]
 8004184:	9803      	ldr	r0, [sp, #12]
 8004186:	f003 fa1d 	bl	80075c4 <__sprint_r>
 800418a:	2800      	cmp	r0, #0
 800418c:	f47f ac54 	bne.w	8003a38 <_vfprintf_r+0xaf0>
 8004190:	9b24      	ldr	r3, [sp, #144]	; 0x90
 8004192:	9c2c      	ldr	r4, [sp, #176]	; 0xb0
 8004194:	f10d 0bb4 	add.w	fp, sp, #180	; 0xb4
 8004198:	e793      	b.n	80040c2 <_vfprintf_r+0x117a>
 800419a:	2330      	movs	r3, #48	; 0x30
 800419c:	f88d 308c 	strb.w	r3, [sp, #140]	; 0x8c
 80041a0:	2378      	movs	r3, #120	; 0x78
 80041a2:	f1b9 0f63 	cmp.w	r9, #99	; 0x63
 80041a6:	f88d 308d 	strb.w	r3, [sp, #141]	; 0x8d
 80041aa:	f048 0402 	orr.w	r4, r8, #2
 80041ae:	f300 82b0 	bgt.w	8004712 <_vfprintf_r+0x17ca>
 80041b2:	f448 7381 	orr.w	r3, r8, #258	; 0x102
 80041b6:	930e      	str	r3, [sp, #56]	; 0x38
 80041b8:	f026 0320 	bic.w	r3, r6, #32
 80041bc:	9304      	str	r3, [sp, #16]
 80041be:	2200      	movs	r2, #0
 80041c0:	9b13      	ldr	r3, [sp, #76]	; 0x4c
 80041c2:	920a      	str	r2, [sp, #40]	; 0x28
 80041c4:	46a0      	mov	r8, r4
 80041c6:	af3d      	add	r7, sp, #244	; 0xf4
 80041c8:	2b00      	cmp	r3, #0
 80041ca:	f2c0 81e3 	blt.w	8004594 <_vfprintf_r+0x164c>
 80041ce:	ed9d 7b12 	vldr	d7, [sp, #72]	; 0x48
 80041d2:	ed8d 7b1e 	vstr	d7, [sp, #120]	; 0x78
 80041d6:	2300      	movs	r3, #0
 80041d8:	930b      	str	r3, [sp, #44]	; 0x2c
 80041da:	2e61      	cmp	r6, #97	; 0x61
 80041dc:	f000 8255 	beq.w	800468a <_vfprintf_r+0x1742>
 80041e0:	2e41      	cmp	r6, #65	; 0x41
 80041e2:	f47f aee3 	bne.w	8003fac <_vfprintf_r+0x1064>
 80041e6:	a824      	add	r0, sp, #144	; 0x90
 80041e8:	ed9d 0b1e 	vldr	d0, [sp, #120]	; 0x78
 80041ec:	f003 f8f2 	bl	80073d4 <frexp>
 80041f0:	2200      	movs	r2, #0
 80041f2:	f04f 537f 	mov.w	r3, #1069547520	; 0x3fc00000
 80041f6:	ec51 0b10 	vmov	r0, r1, d0
 80041fa:	f7fc fcab 	bl	8000b54 <__aeabi_dmul>
 80041fe:	2200      	movs	r2, #0
 8004200:	2300      	movs	r3, #0
 8004202:	e9cd 010c 	strd	r0, r1, [sp, #48]	; 0x30
 8004206:	f7fc ff0d 	bl	8001024 <__aeabi_dcmpeq>
 800420a:	2800      	cmp	r0, #0
 800420c:	f040 8305 	bne.w	800481a <_vfprintf_r+0x18d2>
 8004210:	4b63      	ldr	r3, [pc, #396]	; (80043a0 <_vfprintf_r+0x1458>)
 8004212:	9309      	str	r3, [sp, #36]	; 0x24
 8004214:	e9cd a60f 	strd	sl, r6, [sp, #60]	; 0x3c
 8004218:	f109 34ff 	add.w	r4, r9, #4294967295	; 0xffffffff
 800421c:	f8cd 9050 	str.w	r9, [sp, #80]	; 0x50
 8004220:	9721      	str	r7, [sp, #132]	; 0x84
 8004222:	46b9      	mov	r9, r7
 8004224:	f8cd b044 	str.w	fp, [sp, #68]	; 0x44
 8004228:	f8cd 8080 	str.w	r8, [sp, #128]	; 0x80
 800422c:	f8dd a024 	ldr.w	sl, [sp, #36]	; 0x24
 8004230:	e9dd 670c 	ldrd	r6, r7, [sp, #48]	; 0x30
 8004234:	e003      	b.n	800423e <_vfprintf_r+0x12f6>
 8004236:	f7fc fef5 	bl	8001024 <__aeabi_dcmpeq>
 800423a:	bb20      	cbnz	r0, 8004286 <_vfprintf_r+0x133e>
 800423c:	46a9      	mov	r9, r5
 800423e:	2200      	movs	r2, #0
 8004240:	4b58      	ldr	r3, [pc, #352]	; (80043a4 <_vfprintf_r+0x145c>)
 8004242:	4630      	mov	r0, r6
 8004244:	4639      	mov	r1, r7
 8004246:	f7fc fc85 	bl	8000b54 <__aeabi_dmul>
 800424a:	460f      	mov	r7, r1
 800424c:	4606      	mov	r6, r0
 800424e:	f7fc ff31 	bl	80010b4 <__aeabi_d2iz>
 8004252:	4680      	mov	r8, r0
 8004254:	f7fc fc14 	bl	8000a80 <__aeabi_i2d>
 8004258:	4602      	mov	r2, r0
 800425a:	460b      	mov	r3, r1
 800425c:	4630      	mov	r0, r6
 800425e:	4639      	mov	r1, r7
 8004260:	f7fc fac0 	bl	80007e4 <__aeabi_dsub>
 8004264:	464d      	mov	r5, r9
 8004266:	f81a c008 	ldrb.w	ip, [sl, r8]
 800426a:	f805 cb01 	strb.w	ip, [r5], #1
 800426e:	f1b4 3fff 	cmp.w	r4, #4294967295	; 0xffffffff
 8004272:	46a3      	mov	fp, r4
 8004274:	4606      	mov	r6, r0
 8004276:	460f      	mov	r7, r1
 8004278:	f04f 0200 	mov.w	r2, #0
 800427c:	f04f 0300 	mov.w	r3, #0
 8004280:	f104 34ff 	add.w	r4, r4, #4294967295	; 0xffffffff
 8004284:	d1d7      	bne.n	8004236 <_vfprintf_r+0x12ee>
 8004286:	4630      	mov	r0, r6
 8004288:	4639      	mov	r1, r7
 800428a:	2200      	movs	r2, #0
 800428c:	4b46      	ldr	r3, [pc, #280]	; (80043a8 <_vfprintf_r+0x1460>)
 800428e:	f8dd a03c 	ldr.w	sl, [sp, #60]	; 0x3c
 8004292:	9e10      	ldr	r6, [sp, #64]	; 0x40
 8004294:	f8cd b03c 	str.w	fp, [sp, #60]	; 0x3c
 8004298:	4644      	mov	r4, r8
 800429a:	f8cd 9040 	str.w	r9, [sp, #64]	; 0x40
 800429e:	f8dd 8080 	ldr.w	r8, [sp, #128]	; 0x80
 80042a2:	f8dd 9050 	ldr.w	r9, [sp, #80]	; 0x50
 80042a6:	f8dd b044 	ldr.w	fp, [sp, #68]	; 0x44
 80042aa:	9f21      	ldr	r7, [sp, #132]	; 0x84
 80042ac:	e9cd 010c 	strd	r0, r1, [sp, #48]	; 0x30
 80042b0:	f7fc fee0 	bl	8001074 <__aeabi_dcmpgt>
 80042b4:	2800      	cmp	r0, #0
 80042b6:	f040 8176 	bne.w	80045a6 <_vfprintf_r+0x165e>
 80042ba:	e9dd 010c 	ldrd	r0, r1, [sp, #48]	; 0x30
 80042be:	2200      	movs	r2, #0
 80042c0:	4b39      	ldr	r3, [pc, #228]	; (80043a8 <_vfprintf_r+0x1460>)
 80042c2:	f7fc feaf 	bl	8001024 <__aeabi_dcmpeq>
 80042c6:	b110      	cbz	r0, 80042ce <_vfprintf_r+0x1386>
 80042c8:	07e2      	lsls	r2, r4, #31
 80042ca:	f100 816c 	bmi.w	80045a6 <_vfprintf_r+0x165e>
 80042ce:	9b0f      	ldr	r3, [sp, #60]	; 0x3c
 80042d0:	2b00      	cmp	r3, #0
 80042d2:	db07      	blt.n	80042e4 <_vfprintf_r+0x139c>
 80042d4:	9b0f      	ldr	r3, [sp, #60]	; 0x3c
 80042d6:	3301      	adds	r3, #1
 80042d8:	442b      	add	r3, r5
 80042da:	2230      	movs	r2, #48	; 0x30
 80042dc:	f805 2b01 	strb.w	r2, [r5], #1
 80042e0:	42ab      	cmp	r3, r5
 80042e2:	d1fb      	bne.n	80042dc <_vfprintf_r+0x1394>
 80042e4:	1beb      	subs	r3, r5, r7
 80042e6:	4640      	mov	r0, r8
 80042e8:	9310      	str	r3, [sp, #64]	; 0x40
 80042ea:	f8dd 8038 	ldr.w	r8, [sp, #56]	; 0x38
 80042ee:	e683      	b.n	8003ff8 <_vfprintf_r+0x10b0>
 80042f0:	f8cd 9010 	str.w	r9, [sp, #16]
 80042f4:	f8cd 9024 	str.w	r9, [sp, #36]	; 0x24
 80042f8:	9408      	str	r4, [sp, #32]
 80042fa:	4681      	mov	r9, r0
 80042fc:	900f      	str	r0, [sp, #60]	; 0x3c
 80042fe:	9014      	str	r0, [sp, #80]	; 0x50
 8004300:	9011      	str	r0, [sp, #68]	; 0x44
 8004302:	f89d 208b 	ldrb.w	r2, [sp, #139]	; 0x8b
 8004306:	f7fe bfac 	b.w	8003262 <_vfprintf_r+0x31a>
 800430a:	aa2a      	add	r2, sp, #168	; 0xa8
 800430c:	9907      	ldr	r1, [sp, #28]
 800430e:	9803      	ldr	r0, [sp, #12]
 8004310:	f003 f958 	bl	80075c4 <__sprint_r>
 8004314:	2800      	cmp	r0, #0
 8004316:	f47f ab8f 	bne.w	8003a38 <_vfprintf_r+0xaf0>
 800431a:	9b24      	ldr	r3, [sp, #144]	; 0x90
 800431c:	9c2c      	ldr	r4, [sp, #176]	; 0xb0
 800431e:	f10d 0bb4 	add.w	fp, sp, #180	; 0xb4
 8004322:	e511      	b.n	8003d48 <_vfprintf_r+0xe00>
 8004324:	4252      	negs	r2, r2
 8004326:	9206      	str	r2, [sp, #24]
 8004328:	9308      	str	r3, [sp, #32]
 800432a:	f7ff b96d 	b.w	8003608 <_vfprintf_r+0x6c0>
 800432e:	4614      	mov	r4, r2
